
sl_mcu_stm32f407_littlefs.elf:     file format elf32-littlearm

Sections:
Idx Name          Size      VMA       LMA       File off  Algn
  0 .isr_vector   00000188  08000000  08000000  00001000  2**0
                  CONTENTS, ALLOC, LOAD, READONLY, DATA
  1 .text         00006d80  08000190  08000190  00001190  2**4
                  CONTENTS, ALLOC, LOAD, READONLY, CODE
  2 .rodata       00001040  08006f10  08006f10  00007f10  2**2
                  CONTENTS, ALLOC, LOAD, READONLY, DATA
  3 .ARM.extab    00000000  08007f50  08007f50  000090bc  2**0
                  CONTENTS, READONLY
  4 .ARM          00000008  08007f50  08007f50  00008f50  2**2
                  CONTENTS, ALLOC, LOAD, READONLY, DATA
  5 .preinit_array 00000000  08007f58  08007f58  000090bc  2**0
                  CONTENTS, ALLOC, LOAD, DATA
  6 .init_array   00000004  08007f58  08007f58  00008f58  2**2
                  CONTENTS, ALLOC, LOAD, READONLY, DATA
  7 .fini_array   00000004  08007f5c  08007f5c  00008f5c  2**2
                  CONTENTS, ALLOC, LOAD, READONLY, DATA
  8 .data         000000bc  20000000  08007f60  00009000  2**2
                  CONTENTS, ALLOC, LOAD, DATA
  9 .ccmram       00000000  10000000  10000000  000090bc  2**0
                  CONTENTS
 10 .bss          000002c4  200000bc  200000bc  000090bc  2**2
                  ALLOC
 11 ._user_heap_stack 00000600  20000380  20000380  000090bc  2**0
                  ALLOC
 12 .ARM.attributes 00000030  00000000  00000000  000090bc  2**0
                  CONTENTS, READONLY
 13 .debug_info   0001c124  00000000  00000000  000090ec  2**0
                  CONTENTS, READONLY, DEBUGGING, OCTETS
 14 .debug_abbrev 00002777  00000000  00000000  00025210  2**0
                  CONTENTS, READONLY, DEBUGGING, OCTETS
 15 .debug_loclists 0000cd7d  00000000  00000000  00027987  2**0
                  CONTENTS, READONLY, DEBUGGING, OCTETS
 16 .debug_aranges 00000e68  00000000  00000000  00034708  2**3
                  CONTENTS, READONLY, DEBUGGING, OCTETS
 17 .debug_rnglists 00000f16  00000000  00000000  00035570  2**0
                  CONTENTS, READONLY, DEBUGGING, OCTETS
 18 .debug_macro  0002250d  00000000  00000000  00036486  2**0
                  CONTENTS, READONLY, DEBUGGING, OCTETS
 19 .debug_line   000166d1  00000000  00000000  00058993  2**0
                  CONTENTS, READONLY, DEBUGGING, OCTETS
 20 .debug_str    000c93f5  00000000  00000000  0006f064  2**0
                  CONTENTS, READONLY, DEBUGGING, OCTETS
 21 .comment      00000043  00000000  00000000  00138459  2**0
                  CONTENTS, READONLY
 22 .debug_frame  000035bc  00000000  00000000  0013849c  2**2
                  CONTENTS, READONLY, DEBUGGING, OCTETS
 23 .debug_line_str 0000006c  00000000  00000000  0013ba58  2**0
                  CONTENTS, READONLY, DEBUGGING, OCTETS

Disassembly of section .text:

08000190 <__do_global_dtors_aux>:
 8000190:	b510      	push	{r4, lr}
 8000192:	4c05      	ldr	r4, [pc, #20]	@ (80001a8 <__do_global_dtors_aux+0x18>)
 8000194:	7823      	ldrb	r3, [r4, #0]
 8000196:	b933      	cbnz	r3, 80001a6 <__do_global_dtors_aux+0x16>
 8000198:	4b04      	ldr	r3, [pc, #16]	@ (80001ac <__do_global_dtors_aux+0x1c>)
 800019a:	b113      	cbz	r3, 80001a2 <__do_global_dtors_aux+0x12>
 800019c:	4804      	ldr	r0, [pc, #16]	@ (80001b0 <__do_global_dtors_aux+0x20>)
 800019e:	f3af 8000 	nop.w
 80001a2:	2301      	movs	r3, #1
 80001a4:	7023      	strb	r3, [r4, #0]
 80001a6:	bd10      	pop	{r4, pc}
 80001a8:	200000bc 	.word	0x200000bc
 80001ac:	00000000 	.word	0x00000000
 80001b0:	08006ef8 	.word	0x08006ef8

080001b4 <frame_dummy>:
 80001b4:	b508      	push	{r3, lr}
 80001b6:	4b03      	ldr	r3, [pc, #12]	@ (80001c4 <frame_dummy+0x10>)
 80001b8:	b11b      	cbz	r3, 80001c2 <frame_dummy+0xe>
 80001ba:	4903      	ldr	r1, [pc, #12]	@ (80001c8 <frame_dummy+0x14>)
 80001bc:	4803      	ldr	r0, [pc, #12]	@ (80001cc <frame_dummy+0x18>)
 80001be:	f3af 8000 	nop.w
 80001c2:	bd08      	pop	{r3, pc}
 80001c4:	00000000 	.word	0x00000000
 80001c8:	200000c0 	.word	0x200000c0
 80001cc:	08006ef8 	.word	0x08006ef8

080001d0 <memchr>:
 80001d0:	f001 01ff 	and.w	r1, r1, #255	@ 0xff
 80001d4:	2a10      	cmp	r2, #16
 80001d6:	db2b      	blt.n	8000230 <memchr+0x60>
 80001d8:	f010 0f07 	tst.w	r0, #7
 80001dc:	d008      	beq.n	80001f0 <memchr+0x20>
 80001de:	f810 3b01 	ldrb.w	r3, [r0], #1
 80001e2:	3a01      	subs	r2, #1
 80001e4:	428b      	cmp	r3, r1
 80001e6:	d02d      	beq.n	8000244 <memchr+0x74>
 80001e8:	f010 0f07 	tst.w	r0, #7
 80001ec:	b342      	cbz	r2, 8000240 <memchr+0x70>
 80001ee:	d1f6      	bne.n	80001de <memchr+0xe>
 80001f0:	b4f0      	push	{r4, r5, r6, r7}
 80001f2:	ea41 2101 	orr.w	r1, r1, r1, lsl #8
 80001f6:	ea41 4101 	orr.w	r1, r1, r1, lsl #16
 80001fa:	f022 0407 	bic.w	r4, r2, #7
 80001fe:	f07f 0700 	mvns.w	r7, #0
 8000202:	2300      	movs	r3, #0
 8000204:	e8f0 5602 	ldrd	r5, r6, [r0], #8
 8000208:	3c08      	subs	r4, #8
 800020a:	ea85 0501 	eor.w	r5, r5, r1
 800020e:	ea86 0601 	eor.w	r6, r6, r1
 8000212:	fa85 f547 	uadd8	r5, r5, r7
 8000216:	faa3 f587 	sel	r5, r3, r7
 800021a:	fa86 f647 	uadd8	r6, r6, r7
 800021e:	faa5 f687 	sel	r6, r5, r7
 8000222:	b98e      	cbnz	r6, 8000248 <memchr+0x78>
 8000224:	d1ee      	bne.n	8000204 <memchr+0x34>
 8000226:	bcf0      	pop	{r4, r5, r6, r7}
 8000228:	f001 01ff 	and.w	r1, r1, #255	@ 0xff
 800022c:	f002 0207 	and.w	r2, r2, #7
 8000230:	b132      	cbz	r2, 8000240 <memchr+0x70>
 8000232:	f810 3b01 	ldrb.w	r3, [r0], #1
 8000236:	3a01      	subs	r2, #1
 8000238:	ea83 0301 	eor.w	r3, r3, r1
 800023c:	b113      	cbz	r3, 8000244 <memchr+0x74>
 800023e:	d1f8      	bne.n	8000232 <memchr+0x62>
 8000240:	2000      	movs	r0, #0
 8000242:	4770      	bx	lr
 8000244:	3801      	subs	r0, #1
 8000246:	4770      	bx	lr
 8000248:	2d00      	cmp	r5, #0
 800024a:	bf06      	itte	eq
 800024c:	4635      	moveq	r5, r6
 800024e:	3803      	subeq	r0, #3
 8000250:	3807      	subne	r0, #7
 8000252:	f015 0f01 	tst.w	r5, #1
 8000256:	d107      	bne.n	8000268 <memchr+0x98>
 8000258:	3001      	adds	r0, #1
 800025a:	f415 7f80 	tst.w	r5, #256	@ 0x100
 800025e:	bf02      	ittt	eq
 8000260:	3001      	addeq	r0, #1
 8000262:	f415 3fc0 	tsteq.w	r5, #98304	@ 0x18000
 8000266:	3001      	addeq	r0, #1
 8000268:	bcf0      	pop	{r4, r5, r6, r7}
 800026a:	3801      	subs	r0, #1
 800026c:	4770      	bx	lr
 800026e:	bf00      	nop

08000270 <__aeabi_uldivmod>:
 8000270:	b953      	cbnz	r3, 8000288 <__aeabi_uldivmod+0x18>
 8000272:	b94a      	cbnz	r2, 8000288 <__aeabi_uldivmod+0x18>
 8000274:	2900      	cmp	r1, #0
 8000276:	bf08      	it	eq
 8000278:	2800      	cmpeq	r0, #0
 800027a:	bf1c      	itt	ne
 800027c:	f04f 31ff 	movne.w	r1, #4294967295	@ 0xffffffff
 8000280:	f04f 30ff 	movne.w	r0, #4294967295	@ 0xffffffff
 8000284:	f000 b99c 	b.w	80005c0 <__aeabi_idiv0>
 8000288:	f1ad 0c08 	sub.w	ip, sp, #8
 800028c:	e96d ce04 	strd	ip, lr, [sp, #-16]!
 8000290:	f000 f81a 	bl	80002c8 <__udivmoddi4>
 8000294:	f8dd e004 	ldr.w	lr, [sp, #4]
 8000298:	e9dd 2302 	ldrd	r2, r3, [sp, #8]
 800029c:	b004      	add	sp, #16
 800029e:	4770      	bx	lr

080002a0 <__popcountsi2>:
 80002a0:	0843      	lsrs	r3, r0, #1
 80002a2:	f003 3355 	and.w	r3, r3, #1431655765	@ 0x55555555
 80002a6:	1ac0      	subs	r0, r0, r3
 80002a8:	0883      	lsrs	r3, r0, #2
 80002aa:	f003 3333 	and.w	r3, r3, #858993459	@ 0x33333333
 80002ae:	f000 3033 	and.w	r0, r0, #858993459	@ 0x33333333
 80002b2:	4418      	add	r0, r3
 80002b4:	eb00 1010 	add.w	r0, r0, r0, lsr #4
 80002b8:	f000 300f 	and.w	r0, r0, #252645135	@ 0xf0f0f0f
 80002bc:	eb00 2000 	add.w	r0, r0, r0, lsl #8
 80002c0:	eb00 4000 	add.w	r0, r0, r0, lsl #16
 80002c4:	0e00      	lsrs	r0, r0, #24
 80002c6:	4770      	bx	lr

080002c8 <__udivmoddi4>:
 80002c8:	e92d 47f0 	stmdb	sp!, {r4, r5, r6, r7, r8, r9, sl, lr}
 80002cc:	9d08      	ldr	r5, [sp, #32]
 80002ce:	460f      	mov	r7, r1
 80002d0:	4604      	mov	r4, r0
 80002d2:	468c      	mov	ip, r1
 80002d4:	2b00      	cmp	r3, #0
 80002d6:	d148      	bne.n	800036a <__udivmoddi4+0xa2>
 80002d8:	428a      	cmp	r2, r1
 80002da:	4616      	mov	r6, r2
 80002dc:	d961      	bls.n	80003a2 <__udivmoddi4+0xda>
 80002de:	fab2 f382 	clz	r3, r2
 80002e2:	b14b      	cbz	r3, 80002f8 <__udivmoddi4+0x30>
 80002e4:	f1c3 0220 	rsb	r2, r3, #32
 80002e8:	fa01 fc03 	lsl.w	ip, r1, r3
 80002ec:	fa20 f202 	lsr.w	r2, r0, r2
 80002f0:	409e      	lsls	r6, r3
 80002f2:	ea42 0c0c 	orr.w	ip, r2, ip
 80002f6:	409c      	lsls	r4, r3
 80002f8:	ea4f 4e16 	mov.w	lr, r6, lsr #16
 80002fc:	b2b7      	uxth	r7, r6
 80002fe:	fbbc f1fe 	udiv	r1, ip, lr
 8000302:	0c22      	lsrs	r2, r4, #16
 8000304:	fb0e cc11 	mls	ip, lr, r1, ip
 8000308:	ea42 420c 	orr.w	r2, r2, ip, lsl #16
 800030c:	fb01 f007 	mul.w	r0, r1, r7
 8000310:	4290      	cmp	r0, r2
 8000312:	d909      	bls.n	8000328 <__udivmoddi4+0x60>
 8000314:	18b2      	adds	r2, r6, r2
 8000316:	f101 3cff 	add.w	ip, r1, #4294967295	@ 0xffffffff
 800031a:	f080 80ee 	bcs.w	80004fa <__udivmoddi4+0x232>
 800031e:	4290      	cmp	r0, r2
 8000320:	f240 80eb 	bls.w	80004fa <__udivmoddi4+0x232>
 8000324:	3902      	subs	r1, #2
 8000326:	4432      	add	r2, r6
 8000328:	1a12      	subs	r2, r2, r0
 800032a:	b2a4      	uxth	r4, r4
 800032c:	fbb2 f0fe 	udiv	r0, r2, lr
 8000330:	fb0e 2210 	mls	r2, lr, r0, r2
 8000334:	ea44 4402 	orr.w	r4, r4, r2, lsl #16
 8000338:	fb00 f707 	mul.w	r7, r0, r7
 800033c:	42a7      	cmp	r7, r4
 800033e:	d909      	bls.n	8000354 <__udivmoddi4+0x8c>
 8000340:	1934      	adds	r4, r6, r4
 8000342:	f100 32ff 	add.w	r2, r0, #4294967295	@ 0xffffffff
 8000346:	f080 80da 	bcs.w	80004fe <__udivmoddi4+0x236>
 800034a:	42a7      	cmp	r7, r4
 800034c:	f240 80d7 	bls.w	80004fe <__udivmoddi4+0x236>
 8000350:	4434      	add	r4, r6
 8000352:	3802      	subs	r0, #2
 8000354:	ea40 4001 	orr.w	r0, r0, r1, lsl #16
 8000358:	1be4      	subs	r4, r4, r7
 800035a:	2100      	movs	r1, #0
 800035c:	b11d      	cbz	r5, 8000366 <__udivmoddi4+0x9e>
 800035e:	40dc      	lsrs	r4, r3
 8000360:	2300      	movs	r3, #0
 8000362:	e9c5 4300 	strd	r4, r3, [r5]
 8000366:	e8bd 87f0 	ldmia.w	sp!, {r4, r5, r6, r7, r8, r9, sl, pc}
 800036a:	428b      	cmp	r3, r1
 800036c:	d906      	bls.n	800037c <__udivmoddi4+0xb4>
 800036e:	b10d      	cbz	r5, 8000374 <__udivmoddi4+0xac>
 8000370:	e9c5 0100 	strd	r0, r1, [r5]
 8000374:	2100      	movs	r1, #0
 8000376:	4608      	mov	r0, r1
 8000378:	e8bd 87f0 	ldmia.w	sp!, {r4, r5, r6, r7, r8, r9, sl, pc}
 800037c:	fab3 f183 	clz	r1, r3
 8000380:	2900      	cmp	r1, #0
 8000382:	d148      	bne.n	8000416 <__udivmoddi4+0x14e>
 8000384:	42bb      	cmp	r3, r7
 8000386:	d302      	bcc.n	800038e <__udivmoddi4+0xc6>
 8000388:	4282      	cmp	r2, r0
 800038a:	f200 8107 	bhi.w	800059c <__udivmoddi4+0x2d4>
 800038e:	1a84      	subs	r4, r0, r2
 8000390:	eb67 0203 	sbc.w	r2, r7, r3
 8000394:	2001      	movs	r0, #1
 8000396:	4694      	mov	ip, r2
 8000398:	2d00      	cmp	r5, #0
 800039a:	d0e4      	beq.n	8000366 <__udivmoddi4+0x9e>
 800039c:	e9c5 4c00 	strd	r4, ip, [r5]
 80003a0:	e7e1      	b.n	8000366 <__udivmoddi4+0x9e>
 80003a2:	2a00      	cmp	r2, #0
 80003a4:	f000 8092 	beq.w	80004cc <__udivmoddi4+0x204>
 80003a8:	fab2 f382 	clz	r3, r2
 80003ac:	2b00      	cmp	r3, #0
 80003ae:	f040 80a8 	bne.w	8000502 <__udivmoddi4+0x23a>
 80003b2:	1a8a      	subs	r2, r1, r2
 80003b4:	ea4f 4e16 	mov.w	lr, r6, lsr #16
 80003b8:	fa1f fc86 	uxth.w	ip, r6
 80003bc:	2101      	movs	r1, #1
 80003be:	0c20      	lsrs	r0, r4, #16
 80003c0:	fbb2 f7fe 	udiv	r7, r2, lr
 80003c4:	fb0e 2217 	mls	r2, lr, r7, r2
 80003c8:	ea40 4202 	orr.w	r2, r0, r2, lsl #16
 80003cc:	fb0c f007 	mul.w	r0, ip, r7
 80003d0:	4290      	cmp	r0, r2
 80003d2:	d907      	bls.n	80003e4 <__udivmoddi4+0x11c>
 80003d4:	18b2      	adds	r2, r6, r2
 80003d6:	f107 38ff 	add.w	r8, r7, #4294967295	@ 0xffffffff
 80003da:	d202      	bcs.n	80003e2 <__udivmoddi4+0x11a>
 80003dc:	4290      	cmp	r0, r2
 80003de:	f200 80e2 	bhi.w	80005a6 <__udivmoddi4+0x2de>
 80003e2:	4647      	mov	r7, r8
 80003e4:	1a12      	subs	r2, r2, r0
 80003e6:	b2a4      	uxth	r4, r4
 80003e8:	fbb2 f0fe 	udiv	r0, r2, lr
 80003ec:	fb0e 2210 	mls	r2, lr, r0, r2
 80003f0:	ea44 4402 	orr.w	r4, r4, r2, lsl #16
 80003f4:	fb0c fc00 	mul.w	ip, ip, r0
 80003f8:	45a4      	cmp	ip, r4
 80003fa:	d907      	bls.n	800040c <__udivmoddi4+0x144>
 80003fc:	1934      	adds	r4, r6, r4
 80003fe:	f100 32ff 	add.w	r2, r0, #4294967295	@ 0xffffffff
 8000402:	d202      	bcs.n	800040a <__udivmoddi4+0x142>
 8000404:	45a4      	cmp	ip, r4
 8000406:	f200 80cb 	bhi.w	80005a0 <__udivmoddi4+0x2d8>
 800040a:	4610      	mov	r0, r2
 800040c:	eba4 040c 	sub.w	r4, r4, ip
 8000410:	ea40 4007 	orr.w	r0, r0, r7, lsl #16
 8000414:	e7a2      	b.n	800035c <__udivmoddi4+0x94>
 8000416:	f1c1 0620 	rsb	r6, r1, #32
 800041a:	408b      	lsls	r3, r1
 800041c:	fa22 fc06 	lsr.w	ip, r2, r6
 8000420:	ea4c 0c03 	orr.w	ip, ip, r3
 8000424:	fa07 f401 	lsl.w	r4, r7, r1
 8000428:	fa20 f306 	lsr.w	r3, r0, r6
 800042c:	40f7      	lsrs	r7, r6
 800042e:	ea4f 491c 	mov.w	r9, ip, lsr #16
 8000432:	4323      	orrs	r3, r4
 8000434:	fa00 f801 	lsl.w	r8, r0, r1
 8000438:	fa1f fe8c 	uxth.w	lr, ip
 800043c:	fbb7 f0f9 	udiv	r0, r7, r9
 8000440:	0c1c      	lsrs	r4, r3, #16
 8000442:	fb09 7710 	mls	r7, r9, r0, r7
 8000446:	ea44 4407 	orr.w	r4, r4, r7, lsl #16
 800044a:	fb00 f70e 	mul.w	r7, r0, lr
 800044e:	42a7      	cmp	r7, r4
 8000450:	fa02 f201 	lsl.w	r2, r2, r1
 8000454:	d90a      	bls.n	800046c <__udivmoddi4+0x1a4>
 8000456:	eb1c 0404 	adds.w	r4, ip, r4
 800045a:	f100 3aff 	add.w	sl, r0, #4294967295	@ 0xffffffff
 800045e:	f080 809b 	bcs.w	8000598 <__udivmoddi4+0x2d0>
 8000462:	42a7      	cmp	r7, r4
 8000464:	f240 8098 	bls.w	8000598 <__udivmoddi4+0x2d0>
 8000468:	3802      	subs	r0, #2
 800046a:	4464      	add	r4, ip
 800046c:	1be4      	subs	r4, r4, r7
 800046e:	b29f      	uxth	r7, r3
 8000470:	fbb4 f3f9 	udiv	r3, r4, r9
 8000474:	fb09 4413 	mls	r4, r9, r3, r4
 8000478:	ea47 4404 	orr.w	r4, r7, r4, lsl #16
 800047c:	fb03 fe0e 	mul.w	lr, r3, lr
 8000480:	45a6      	cmp	lr, r4
 8000482:	d909      	bls.n	8000498 <__udivmoddi4+0x1d0>
 8000484:	eb1c 0404 	adds.w	r4, ip, r4
 8000488:	f103 37ff 	add.w	r7, r3, #4294967295	@ 0xffffffff
 800048c:	f080 8082 	bcs.w	8000594 <__udivmoddi4+0x2cc>
 8000490:	45a6      	cmp	lr, r4
 8000492:	d97f      	bls.n	8000594 <__udivmoddi4+0x2cc>
 8000494:	3b02      	subs	r3, #2
 8000496:	4464      	add	r4, ip
 8000498:	ea43 4000 	orr.w	r0, r3, r0, lsl #16
 800049c:	eba4 040e 	sub.w	r4, r4, lr
 80004a0:	fba0 e702 	umull	lr, r7, r0, r2
 80004a4:	42bc      	cmp	r4, r7
 80004a6:	4673      	mov	r3, lr
 80004a8:	46b9      	mov	r9, r7
 80004aa:	d363      	bcc.n	8000574 <__udivmoddi4+0x2ac>
 80004ac:	d060      	beq.n	8000570 <__udivmoddi4+0x2a8>
 80004ae:	b15d      	cbz	r5, 80004c8 <__udivmoddi4+0x200>
 80004b0:	ebb8 0203 	subs.w	r2, r8, r3
 80004b4:	eb64 0409 	sbc.w	r4, r4, r9
 80004b8:	fa04 f606 	lsl.w	r6, r4, r6
 80004bc:	fa22 f301 	lsr.w	r3, r2, r1
 80004c0:	431e      	orrs	r6, r3
 80004c2:	40cc      	lsrs	r4, r1
 80004c4:	e9c5 6400 	strd	r6, r4, [r5]
 80004c8:	2100      	movs	r1, #0
 80004ca:	e74c      	b.n	8000366 <__udivmoddi4+0x9e>
 80004cc:	0862      	lsrs	r2, r4, #1
 80004ce:	0848      	lsrs	r0, r1, #1
 80004d0:	ea42 71c1 	orr.w	r1, r2, r1, lsl #31
 80004d4:	0c0b      	lsrs	r3, r1, #16
 80004d6:	ea43 4300 	orr.w	r3, r3, r0, lsl #16
 80004da:	b28a      	uxth	r2, r1
 80004dc:	ea42 4203 	orr.w	r2, r2, r3, lsl #16
 80004e0:	fbb3 f1f6 	udiv	r1, r3, r6
 80004e4:	07e4      	lsls	r4, r4, #31
 80004e6:	46b4      	mov	ip, r6
 80004e8:	4637      	mov	r7, r6
 80004ea:	46b6      	mov	lr, r6
 80004ec:	231f      	movs	r3, #31
 80004ee:	fbb0 f0f6 	udiv	r0, r0, r6
 80004f2:	1bd2      	subs	r2, r2, r7
 80004f4:	ea41 4100 	orr.w	r1, r1, r0, lsl #16
 80004f8:	e761      	b.n	80003be <__udivmoddi4+0xf6>
 80004fa:	4661      	mov	r1, ip
 80004fc:	e714      	b.n	8000328 <__udivmoddi4+0x60>
 80004fe:	4610      	mov	r0, r2
 8000500:	e728      	b.n	8000354 <__udivmoddi4+0x8c>
 8000502:	f1c3 0120 	rsb	r1, r3, #32
 8000506:	fa20 f201 	lsr.w	r2, r0, r1
 800050a:	409e      	lsls	r6, r3
 800050c:	fa27 f101 	lsr.w	r1, r7, r1
 8000510:	409f      	lsls	r7, r3
 8000512:	433a      	orrs	r2, r7
 8000514:	ea4f 4e16 	mov.w	lr, r6, lsr #16
 8000518:	fa1f fc86 	uxth.w	ip, r6
 800051c:	fbb1 f7fe 	udiv	r7, r1, lr
 8000520:	fb0e 1017 	mls	r0, lr, r7, r1
 8000524:	0c11      	lsrs	r1, r2, #16
 8000526:	ea41 4100 	orr.w	r1, r1, r0, lsl #16
 800052a:	fb07 f80c 	mul.w	r8, r7, ip
 800052e:	4588      	cmp	r8, r1
 8000530:	fa04 f403 	lsl.w	r4, r4, r3
 8000534:	d93a      	bls.n	80005ac <__udivmoddi4+0x2e4>
 8000536:	1871      	adds	r1, r6, r1
 8000538:	f107 30ff 	add.w	r0, r7, #4294967295	@ 0xffffffff
 800053c:	d201      	bcs.n	8000542 <__udivmoddi4+0x27a>
 800053e:	4588      	cmp	r8, r1
 8000540:	d81f      	bhi.n	8000582 <__udivmoddi4+0x2ba>
 8000542:	eba1 0108 	sub.w	r1, r1, r8
 8000546:	fbb1 f8fe 	udiv	r8, r1, lr
 800054a:	fb08 f70c 	mul.w	r7, r8, ip
 800054e:	fb0e 1118 	mls	r1, lr, r8, r1
 8000552:	b292      	uxth	r2, r2
 8000554:	ea42 4201 	orr.w	r2, r2, r1, lsl #16
 8000558:	42ba      	cmp	r2, r7
 800055a:	d22f      	bcs.n	80005bc <__udivmoddi4+0x2f4>
 800055c:	18b2      	adds	r2, r6, r2
 800055e:	f108 31ff 	add.w	r1, r8, #4294967295	@ 0xffffffff
 8000562:	d2c6      	bcs.n	80004f2 <__udivmoddi4+0x22a>
 8000564:	42ba      	cmp	r2, r7
 8000566:	d2c4      	bcs.n	80004f2 <__udivmoddi4+0x22a>
 8000568:	f1a8 0102 	sub.w	r1, r8, #2
 800056c:	4432      	add	r2, r6
 800056e:	e7c0      	b.n	80004f2 <__udivmoddi4+0x22a>
 8000570:	45f0      	cmp	r8, lr
 8000572:	d29c      	bcs.n	80004ae <__udivmoddi4+0x1e6>
 8000574:	ebbe 0302 	subs.w	r3, lr, r2
 8000578:	eb67 070c 	sbc.w	r7, r7, ip
 800057c:	3801      	subs	r0, #1
 800057e:	46b9      	mov	r9, r7
 8000580:	e795      	b.n	80004ae <__udivmoddi4+0x1e6>
 8000582:	eba6 0808 	sub.w	r8, r6, r8
 8000586:	4441      	add	r1, r8
 8000588:	1eb8      	subs	r0, r7, #2
 800058a:	fbb1 f8fe 	udiv	r8, r1, lr
 800058e:	fb08 f70c 	mul.w	r7, r8, ip
 8000592:	e7dc      	b.n	800054e <__udivmoddi4+0x286>
 8000594:	463b      	mov	r3, r7
 8000596:	e77f      	b.n	8000498 <__udivmoddi4+0x1d0>
 8000598:	4650      	mov	r0, sl
 800059a:	e767      	b.n	800046c <__udivmoddi4+0x1a4>
 800059c:	4608      	mov	r0, r1
 800059e:	e6fb      	b.n	8000398 <__udivmoddi4+0xd0>
 80005a0:	4434      	add	r4, r6
 80005a2:	3802      	subs	r0, #2
 80005a4:	e732      	b.n	800040c <__udivmoddi4+0x144>
 80005a6:	3f02      	subs	r7, #2
 80005a8:	4432      	add	r2, r6
 80005aa:	e71b      	b.n	80003e4 <__udivmoddi4+0x11c>
 80005ac:	eba1 0108 	sub.w	r1, r1, r8
 80005b0:	4638      	mov	r0, r7
 80005b2:	fbb1 f8fe 	udiv	r8, r1, lr
 80005b6:	fb08 f70c 	mul.w	r7, r8, ip
 80005ba:	e7c8      	b.n	800054e <__udivmoddi4+0x286>
 80005bc:	4641      	mov	r1, r8
 80005be:	e798      	b.n	80004f2 <__udivmoddi4+0x22a>

080005c0 <__aeabi_idiv0>:
 80005c0:	4770      	bx	lr
 80005c2:	bf00      	nop

080005c4 <MX_GPIO_Init>:
 * @brief GPIO Initialization Function
 * @param None
 * @retval None
 */
static void MX_GPIO_Init(void)
{
 80005c4:	b5f0      	push	{r4, r5, r6, r7, lr}
 80005c6:	b08b      	sub	sp, #44	@ 0x2c
    GPIO_InitTypeDef GPIO_InitStruct = { 0 };
 80005c8:	ad05      	add	r5, sp, #20
 80005ca:	2400      	movs	r4, #0
 80005cc:	9405      	str	r4, [sp, #20]
 80005ce:	9406      	str	r4, [sp, #24]
 80005d0:	9407      	str	r4, [sp, #28]
 80005d2:	9408      	str	r4, [sp, #32]
 80005d4:	9409      	str	r4, [sp, #36]	@ 0x24
    /* USER CODE BEGIN MX_GPIO_Init_1 */

    /* USER CODE END MX_GPIO_Init_1 */

    /* GPIO Ports Clock Enable */
    __HAL_RCC_GPIOC_CLK_ENABLE();
 80005d6:	9401      	str	r4, [sp, #4]
 80005d8:	4b25      	ldr	r3, [pc, #148]	@ (8000670 <MX_GPIO_Init+0xac>)
 80005da:	6b1a      	ldr	r2, [r3, #48]	@ 0x30
 80005dc:	f042 0204 	orr.w	r2, r2, #4
 80005e0:	631a      	str	r2, [r3, #48]	@ 0x30
 80005e2:	6b1a      	ldr	r2, [r3, #48]	@ 0x30
 80005e4:	f002 0204 	and.w	r2, r2, #4
 80005e8:	9201      	str	r2, [sp, #4]
 80005ea:	9a01      	ldr	r2, [sp, #4]
    __HAL_RCC_GPIOH_CLK_ENABLE();
 80005ec:	9402      	str	r4, [sp, #8]
 80005ee:	6b1a      	ldr	r2, [r3, #48]	@ 0x30
 80005f0:	f042 0280 	orr.w	r2, r2, #128	@ 0x80
 80005f4:	631a      	str	r2, [r3, #48]	@ 0x30
 80005f6:	6b1a      	ldr	r2, [r3, #48]	@ 0x30
 80005f8:	f002 0280 	and.w	r2, r2, #128	@ 0x80
 80005fc:	9202      	str	r2, [sp, #8]
 80005fe:	9a02      	ldr	r2, [sp, #8]
    __HAL_RCC_GPIOA_CLK_ENABLE();
 8000600:	9403      	str	r4, [sp, #12]
 8000602:	6b1a      	ldr	r2, [r3, #48]	@ 0x30
 8000604:	f042 0201 	orr.w	r2, r2, #1
 8000608:	631a      	str	r2, [r3, #48]	@ 0x30
 800060a:	6b1a      	ldr	r2, [r3, #48]	@ 0x30
 800060c:	f002 0201 	and.w	r2, r2, #1
 8000610:	9203      	str	r2, [sp, #12]
 8000612:	9a03      	ldr	r2, [sp, #12]
    __HAL_RCC_GPIOB_CLK_ENABLE();
 8000614:	9404      	str	r4, [sp, #16]
 8000616:	6b1a      	ldr	r2, [r3, #48]	@ 0x30
 8000618:	f042 0202 	orr.w	r2, r2, #2
 800061c:	631a      	str	r2, [r3, #48]	@ 0x30
 800061e:	6b1b      	ldr	r3, [r3, #48]	@ 0x30
 8000620:	f003 0302 	and.w	r3, r3, #2
 8000624:	9304      	str	r3, [sp, #16]
 8000626:	9b04      	ldr	r3, [sp, #16]

    /*Configure GPIO pin Output Level */
    HAL_GPIO_WritePin(LED_GPIO_Port, LED_Pin, GPIO_PIN_SET);
 8000628:	4f12      	ldr	r7, [pc, #72]	@ (8000674 <MX_GPIO_Init+0xb0>)
 800062a:	2201      	movs	r2, #1
 800062c:	f44f 5100 	mov.w	r1, #8192	@ 0x2000
 8000630:	4638      	mov	r0, r7
 8000632:	f000 fc61 	bl	8000ef8 <HAL_GPIO_WritePin>

    /*Configure GPIO pin Output Level */
    HAL_GPIO_WritePin(SPI1_CS_GPIO_Port, SPI1_CS_Pin, GPIO_PIN_RESET);
 8000636:	4e10      	ldr	r6, [pc, #64]	@ (8000678 <MX_GPIO_Init+0xb4>)
 8000638:	4622      	mov	r2, r4
 800063a:	2110      	movs	r1, #16
 800063c:	4630      	mov	r0, r6
 800063e:	f000 fc5b 	bl	8000ef8 <HAL_GPIO_WritePin>

    /*Configure GPIO pin : LED_Pin */
    GPIO_InitStruct.Pin = LED_Pin;
 8000642:	f44f 5300 	mov.w	r3, #8192	@ 0x2000
 8000646:	9305      	str	r3, [sp, #20]
    GPIO_InitStruct.Mode = GPIO_MODE_OUTPUT_OD;
 8000648:	2311      	movs	r3, #17
 800064a:	9306      	str	r3, [sp, #24]
    GPIO_InitStruct.Pull = GPIO_NOPULL;
 800064c:	9407      	str	r4, [sp, #28]
    GPIO_InitStruct.Speed = GPIO_SPEED_FREQ_LOW;
 800064e:	9408      	str	r4, [sp, #32]
    HAL_GPIO_Init(LED_GPIO_Port, &GPIO_InitStruct);
 8000650:	4629      	mov	r1, r5
 8000652:	4638      	mov	r0, r7
 8000654:	f000 fb5a 	bl	8000d0c <HAL_GPIO_Init>

    /*Configure GPIO pin : SPI1_CS_Pin */
    GPIO_InitStruct.Pin = SPI1_CS_Pin;
 8000658:	2310      	movs	r3, #16
 800065a:	9305      	str	r3, [sp, #20]
    GPIO_InitStruct.Mode = GPIO_MODE_OUTPUT_PP;
 800065c:	2301      	movs	r3, #1
 800065e:	9306      	str	r3, [sp, #24]
    GPIO_InitStruct.Pull = GPIO_NOPULL;
 8000660:	9407      	str	r4, [sp, #28]
    GPIO_InitStruct.Speed = GPIO_SPEED_FREQ_LOW;
 8000662:	9408      	str	r4, [sp, #32]
    HAL_GPIO_Init(SPI1_CS_GPIO_Port, &GPIO_InitStruct);
 8000664:	4629      	mov	r1, r5
 8000666:	4630      	mov	r0, r6
 8000668:	f000 fb50 	bl	8000d0c <HAL_GPIO_Init>

    /* USER CODE BEGIN MX_GPIO_Init_2 */

    /* USER CODE END MX_GPIO_Init_2 */
}
 800066c:	b00b      	add	sp, #44	@ 0x2c
 800066e:	bdf0      	pop	{r4, r5, r6, r7, pc}
 8000670:	40023800 	.word	0x40023800
 8000674:	40020800 	.word	0x40020800
 8000678:	40020000 	.word	0x40020000

0800067c <_write>:
    if (fd == 1 || fd == 2) {
 800067c:	3801      	subs	r0, #1
 800067e:	2801      	cmp	r0, #1
 8000680:	d80a      	bhi.n	8000698 <_write+0x1c>
int _write(int fd, char *ptr, int len) {
 8000682:	b510      	push	{r4, lr}
 8000684:	4614      	mov	r4, r2
        hstatus = HAL_UART_Transmit(&huart1, (uint8_t*) ptr, len, HAL_MAX_DELAY);
 8000686:	f04f 33ff 	mov.w	r3, #4294967295	@ 0xffffffff
 800068a:	b292      	uxth	r2, r2
 800068c:	4805      	ldr	r0, [pc, #20]	@ (80006a4 <_write+0x28>)
 800068e:	f001 fcbc 	bl	800200a <HAL_UART_Transmit>
        if (hstatus == HAL_OK)
 8000692:	b920      	cbnz	r0, 800069e <_write+0x22>
            return len;
 8000694:	4620      	mov	r0, r4
}
 8000696:	bd10      	pop	{r4, pc}
    return -1;
 8000698:	f04f 30ff 	mov.w	r0, #4294967295	@ 0xffffffff
}
 800069c:	4770      	bx	lr
            return -1;
 800069e:	f04f 30ff 	mov.w	r0, #4294967295	@ 0xffffffff
 80006a2:	e7f8      	b.n	8000696 <_write+0x1a>
 80006a4:	20000100 	.word	0x20000100

080006a8 <Error_Handler>:
  \details Disables IRQ interrupts by setting special-purpose register PRIMASK.
           Can only be executed in Privileged modes.
 */
__STATIC_FORCEINLINE void __disable_irq(void)
{
  __ASM volatile ("cpsid i" : : : "memory");
 80006a8:	b672      	cpsid	i
void Error_Handler(void)
{
    /* USER CODE BEGIN Error_Handler_Debug */
    /* User can add his own implementation to report the HAL error return state */
    __disable_irq();
    while (1)
 80006aa:	e7fe      	b.n	80006aa <Error_Handler+0x2>

080006ac <MX_SPI1_Init>:
{
 80006ac:	b508      	push	{r3, lr}
    hspi1.Instance = SPI1;
 80006ae:	480d      	ldr	r0, [pc, #52]	@ (80006e4 <MX_SPI1_Init+0x38>)
 80006b0:	4b0d      	ldr	r3, [pc, #52]	@ (80006e8 <MX_SPI1_Init+0x3c>)
 80006b2:	6003      	str	r3, [r0, #0]
    hspi1.Init.Mode = SPI_MODE_MASTER;
 80006b4:	f44f 7382 	mov.w	r3, #260	@ 0x104
 80006b8:	6043      	str	r3, [r0, #4]
    hspi1.Init.Direction = SPI_DIRECTION_2LINES;
 80006ba:	2300      	movs	r3, #0
 80006bc:	6083      	str	r3, [r0, #8]
    hspi1.Init.DataSize = SPI_DATASIZE_8BIT;
 80006be:	60c3      	str	r3, [r0, #12]
    hspi1.Init.CLKPolarity = SPI_POLARITY_LOW;
 80006c0:	6103      	str	r3, [r0, #16]
    hspi1.Init.CLKPhase = SPI_PHASE_1EDGE;
 80006c2:	6143      	str	r3, [r0, #20]
    hspi1.Init.NSS = SPI_NSS_SOFT;
 80006c4:	f44f 7200 	mov.w	r2, #512	@ 0x200
 80006c8:	6182      	str	r2, [r0, #24]
    hspi1.Init.BaudRatePrescaler = SPI_BAUDRATEPRESCALER_2;
 80006ca:	61c3      	str	r3, [r0, #28]
    hspi1.Init.FirstBit = SPI_FIRSTBIT_MSB;
 80006cc:	6203      	str	r3, [r0, #32]
    hspi1.Init.TIMode = SPI_TIMODE_DISABLE;
 80006ce:	6243      	str	r3, [r0, #36]	@ 0x24
    hspi1.Init.CRCCalculation = SPI_CRCCALCULATION_DISABLE;
 80006d0:	6283      	str	r3, [r0, #40]	@ 0x28
    hspi1.Init.CRCPolynomial = 10;
 80006d2:	230a      	movs	r3, #10
 80006d4:	62c3      	str	r3, [r0, #44]	@ 0x2c
    if (HAL_SPI_Init(&hspi1) != HAL_OK)
 80006d6:	f001 f843 	bl	8001760 <HAL_SPI_Init>
 80006da:	b900      	cbnz	r0, 80006de <MX_SPI1_Init+0x32>
}
 80006dc:	bd08      	pop	{r3, pc}
        Error_Handler();
 80006de:	f7ff ffe3 	bl	80006a8 <Error_Handler>
 80006e2:	bf00      	nop
 80006e4:	20000148 	.word	0x20000148
 80006e8:	40013000 	.word	0x40013000

080006ec <MX_CRC_Init>:
{
 80006ec:	b508      	push	{r3, lr}
    hcrc.Instance = CRC;
 80006ee:	4804      	ldr	r0, [pc, #16]	@ (8000700 <MX_CRC_Init+0x14>)
 80006f0:	4b04      	ldr	r3, [pc, #16]	@ (8000704 <MX_CRC_Init+0x18>)
 80006f2:	6003      	str	r3, [r0, #0]
    if (HAL_CRC_Init(&hcrc) != HAL_OK)
 80006f4:	f000 fafa 	bl	8000cec <HAL_CRC_Init>
 80006f8:	b900      	cbnz	r0, 80006fc <MX_CRC_Init+0x10>
}
 80006fa:	bd08      	pop	{r3, pc}
        Error_Handler();
 80006fc:	f7ff ffd4 	bl	80006a8 <Error_Handler>
 8000700:	200001a0 	.word	0x200001a0
 8000704:	40023000 	.word	0x40023000

08000708 <MX_USART1_UART_Init>:
{
 8000708:	b508      	push	{r3, lr}
    huart1.Instance = USART1;
 800070a:	4809      	ldr	r0, [pc, #36]	@ (8000730 <MX_USART1_UART_Init+0x28>)
 800070c:	4b09      	ldr	r3, [pc, #36]	@ (8000734 <MX_USART1_UART_Init+0x2c>)
 800070e:	6003      	str	r3, [r0, #0]
    huart1.Init.BaudRate = 2000000;
 8000710:	4b09      	ldr	r3, [pc, #36]	@ (8000738 <MX_USART1_UART_Init+0x30>)
 8000712:	6043      	str	r3, [r0, #4]
    huart1.Init.WordLength = UART_WORDLENGTH_8B;
 8000714:	2300      	movs	r3, #0
 8000716:	6083      	str	r3, [r0, #8]
    huart1.Init.StopBits = UART_STOPBITS_1;
 8000718:	60c3      	str	r3, [r0, #12]
    huart1.Init.Parity = UART_PARITY_NONE;
 800071a:	6103      	str	r3, [r0, #16]
    huart1.Init.Mode = UART_MODE_TX_RX;
 800071c:	220c      	movs	r2, #12
 800071e:	6142      	str	r2, [r0, #20]
    huart1.Init.HwFlowCtl = UART_HWCONTROL_NONE;
 8000720:	6183      	str	r3, [r0, #24]
    huart1.Init.OverSampling = UART_OVERSAMPLING_16;
 8000722:	61c3      	str	r3, [r0, #28]
    if (HAL_UART_Init(&huart1) != HAL_OK)
 8000724:	f001 fc41 	bl	8001faa <HAL_UART_Init>
 8000728:	b900      	cbnz	r0, 800072c <MX_USART1_UART_Init+0x24>
}
 800072a:	bd08      	pop	{r3, pc}
        Error_Handler();
 800072c:	f7ff ffbc 	bl	80006a8 <Error_Handler>
 8000730:	20000100 	.word	0x20000100
 8000734:	40011000 	.word	0x40011000
 8000738:	001e8480 	.word	0x001e8480

0800073c <SystemClock_Config>:
{
 800073c:	b510      	push	{r4, lr}
 800073e:	b094      	sub	sp, #80	@ 0x50
    RCC_OscInitTypeDef RCC_OscInitStruct = { 0 };
 8000740:	ac08      	add	r4, sp, #32
 8000742:	2230      	movs	r2, #48	@ 0x30
 8000744:	2100      	movs	r1, #0
 8000746:	4620      	mov	r0, r4
 8000748:	f005 feac 	bl	80064a4 <memset>
    RCC_ClkInitTypeDef RCC_ClkInitStruct = { 0 };
 800074c:	2300      	movs	r3, #0
 800074e:	9303      	str	r3, [sp, #12]
 8000750:	9304      	str	r3, [sp, #16]
 8000752:	9305      	str	r3, [sp, #20]
 8000754:	9306      	str	r3, [sp, #24]
 8000756:	9307      	str	r3, [sp, #28]
    __HAL_RCC_PWR_CLK_ENABLE();
 8000758:	9301      	str	r3, [sp, #4]
 800075a:	4a20      	ldr	r2, [pc, #128]	@ (80007dc <SystemClock_Config+0xa0>)
 800075c:	6c11      	ldr	r1, [r2, #64]	@ 0x40
 800075e:	f041 5180 	orr.w	r1, r1, #268435456	@ 0x10000000
 8000762:	6411      	str	r1, [r2, #64]	@ 0x40
 8000764:	6c12      	ldr	r2, [r2, #64]	@ 0x40
 8000766:	f002 5280 	and.w	r2, r2, #268435456	@ 0x10000000
 800076a:	9201      	str	r2, [sp, #4]
 800076c:	9a01      	ldr	r2, [sp, #4]
    __HAL_PWR_VOLTAGESCALING_CONFIG(PWR_REGULATOR_VOLTAGE_SCALE1);
 800076e:	9302      	str	r3, [sp, #8]
 8000770:	4b1b      	ldr	r3, [pc, #108]	@ (80007e0 <SystemClock_Config+0xa4>)
 8000772:	681a      	ldr	r2, [r3, #0]
 8000774:	f442 4280 	orr.w	r2, r2, #16384	@ 0x4000
 8000778:	601a      	str	r2, [r3, #0]
 800077a:	681b      	ldr	r3, [r3, #0]
 800077c:	f403 4380 	and.w	r3, r3, #16384	@ 0x4000
 8000780:	9302      	str	r3, [sp, #8]
 8000782:	9b02      	ldr	r3, [sp, #8]
    RCC_OscInitStruct.OscillatorType = RCC_OSCILLATORTYPE_HSE;
 8000784:	2301      	movs	r3, #1
 8000786:	9308      	str	r3, [sp, #32]
    RCC_OscInitStruct.HSEState = RCC_HSE_ON;
 8000788:	f44f 3380 	mov.w	r3, #65536	@ 0x10000
 800078c:	9309      	str	r3, [sp, #36]	@ 0x24
    RCC_OscInitStruct.PLL.PLLState = RCC_PLL_ON;
 800078e:	2302      	movs	r3, #2
 8000790:	930e      	str	r3, [sp, #56]	@ 0x38
    RCC_OscInitStruct.PLL.PLLSource = RCC_PLLSOURCE_HSE;
 8000792:	f44f 0280 	mov.w	r2, #4194304	@ 0x400000
 8000796:	920f      	str	r2, [sp, #60]	@ 0x3c
    RCC_OscInitStruct.PLL.PLLM = 8;
 8000798:	2208      	movs	r2, #8
 800079a:	9210      	str	r2, [sp, #64]	@ 0x40
    RCC_OscInitStruct.PLL.PLLN = 168;
 800079c:	22a8      	movs	r2, #168	@ 0xa8
 800079e:	9211      	str	r2, [sp, #68]	@ 0x44
    RCC_OscInitStruct.PLL.PLLP = RCC_PLLP_DIV2;
 80007a0:	9312      	str	r3, [sp, #72]	@ 0x48
    RCC_OscInitStruct.PLL.PLLQ = 4;
 80007a2:	2304      	movs	r3, #4
 80007a4:	9313      	str	r3, [sp, #76]	@ 0x4c
    if (HAL_RCC_OscConfig(&RCC_OscInitStruct) != HAL_OK)
 80007a6:	4620      	mov	r0, r4
 80007a8:	f000 fbb6 	bl	8000f18 <HAL_RCC_OscConfig>
 80007ac:	b990      	cbnz	r0, 80007d4 <SystemClock_Config+0x98>
    RCC_ClkInitStruct.ClockType = RCC_CLOCKTYPE_HCLK | RCC_CLOCKTYPE_SYSCLK
 80007ae:	230f      	movs	r3, #15
 80007b0:	9303      	str	r3, [sp, #12]
    RCC_ClkInitStruct.SYSCLKSource = RCC_SYSCLKSOURCE_PLLCLK;
 80007b2:	2302      	movs	r3, #2
 80007b4:	9304      	str	r3, [sp, #16]
    RCC_ClkInitStruct.AHBCLKDivider = RCC_SYSCLK_DIV1;
 80007b6:	2300      	movs	r3, #0
 80007b8:	9305      	str	r3, [sp, #20]
    RCC_ClkInitStruct.APB1CLKDivider = RCC_HCLK_DIV4;
 80007ba:	f44f 53a0 	mov.w	r3, #5120	@ 0x1400
 80007be:	9306      	str	r3, [sp, #24]
    RCC_ClkInitStruct.APB2CLKDivider = RCC_HCLK_DIV2;
 80007c0:	f44f 5380 	mov.w	r3, #4096	@ 0x1000
 80007c4:	9307      	str	r3, [sp, #28]
    if (HAL_RCC_ClockConfig(&RCC_ClkInitStruct, FLASH_LATENCY_5) != HAL_OK)
 80007c6:	2105      	movs	r1, #5
 80007c8:	a803      	add	r0, sp, #12
 80007ca:	f000 fe09 	bl	80013e0 <HAL_RCC_ClockConfig>
 80007ce:	b918      	cbnz	r0, 80007d8 <SystemClock_Config+0x9c>
}
 80007d0:	b014      	add	sp, #80	@ 0x50
 80007d2:	bd10      	pop	{r4, pc}
        Error_Handler();
 80007d4:	f7ff ff68 	bl	80006a8 <Error_Handler>
        Error_Handler();
 80007d8:	f7ff ff66 	bl	80006a8 <Error_Handler>
 80007dc:	40023800 	.word	0x40023800
 80007e0:	40007000 	.word	0x40007000

080007e4 <main>:
{
 80007e4:	b538      	push	{r3, r4, r5, lr}
    HAL_Init();
 80007e6:	f000 f9d9 	bl	8000b9c <HAL_Init>
    SystemClock_Config();
 80007ea:	f7ff ffa7 	bl	800073c <SystemClock_Config>
    MX_GPIO_Init();
 80007ee:	f7ff fee9 	bl	80005c4 <MX_GPIO_Init>
    MX_SPI1_Init();
 80007f2:	f7ff ff5b 	bl	80006ac <MX_SPI1_Init>
    MX_CRC_Init();
 80007f6:	f7ff ff79 	bl	80006ec <MX_CRC_Init>
    MX_USART1_UART_Init();
 80007fa:	f7ff ff85 	bl	8000708 <MX_USART1_UART_Init>
    printf("\r\n\r\n\r\n--------\nCore and peripherals has been initialized\r\n");
 80007fe:	482b      	ldr	r0, [pc, #172]	@ (80008ac <main+0xc8>)
 8000800:	f005 fd62 	bl	80062c8 <puts>
    HAL_Delay(10); // Wait a bit to make sure the w25qxx is ready
 8000804:	200a      	movs	r0, #10
 8000806:	f000 f9f5 	bl	8000bf4 <HAL_Delay>
    res = w25qxx_init(&w25qxx, &hspi1, SPI1_CS_GPIO_Port, SPI1_CS_Pin);
 800080a:	2310      	movs	r3, #16
 800080c:	4a28      	ldr	r2, [pc, #160]	@ (80008b0 <main+0xcc>)
 800080e:	4929      	ldr	r1, [pc, #164]	@ (80008b4 <main+0xd0>)
 8000810:	4829      	ldr	r0, [pc, #164]	@ (80008b8 <main+0xd4>)
 8000812:	f005 f96f 	bl	8005af4 <w25qxx_init>
    if (res == W25QXX_Ok) {
 8000816:	2800      	cmp	r0, #0
 8000818:	d144      	bne.n	80008a4 <main+0xc0>
        printf("W25QXX successfully initialized\r\n");
 800081a:	4828      	ldr	r0, [pc, #160]	@ (80008bc <main+0xd8>)
 800081c:	f005 fd54 	bl	80062c8 <puts>
        printf("Manufacturer       = 0x%2x\r\n", w25qxx.manufacturer_id);
 8000820:	4c25      	ldr	r4, [pc, #148]	@ (80008b8 <main+0xd4>)
 8000822:	7aa1      	ldrb	r1, [r4, #10]
 8000824:	4826      	ldr	r0, [pc, #152]	@ (80008c0 <main+0xdc>)
 8000826:	f005 fce7 	bl	80061f8 <iprintf>
        printf("Device             = 0x%4x\r\n", w25qxx.device_id);
 800082a:	89a1      	ldrh	r1, [r4, #12]
 800082c:	4825      	ldr	r0, [pc, #148]	@ (80008c4 <main+0xe0>)
 800082e:	f005 fce3 	bl	80061f8 <iprintf>
        printf("Block size         = 0x%04lx (%lu)\r\n", w25qxx.block_size, w25qxx.block_size);
 8000832:	6921      	ldr	r1, [r4, #16]
 8000834:	460a      	mov	r2, r1
 8000836:	4824      	ldr	r0, [pc, #144]	@ (80008c8 <main+0xe4>)
 8000838:	f005 fcde 	bl	80061f8 <iprintf>
        printf("Block count        = 0x%04lx (%lu)\r\n", w25qxx.block_count, w25qxx.block_count);
 800083c:	6961      	ldr	r1, [r4, #20]
 800083e:	460a      	mov	r2, r1
 8000840:	4822      	ldr	r0, [pc, #136]	@ (80008cc <main+0xe8>)
 8000842:	f005 fcd9 	bl	80061f8 <iprintf>
        printf("Sector size        = 0x%04lx (%lu)\r\n", w25qxx.sector_size, w25qxx.sector_size);
 8000846:	69a1      	ldr	r1, [r4, #24]
 8000848:	460a      	mov	r2, r1
 800084a:	4821      	ldr	r0, [pc, #132]	@ (80008d0 <main+0xec>)
 800084c:	f005 fcd4 	bl	80061f8 <iprintf>
        printf("Sectors per block  = 0x%04lx (%lu)\r\n", w25qxx.sectors_in_block, w25qxx.sectors_in_block);
 8000850:	69e1      	ldr	r1, [r4, #28]
 8000852:	460a      	mov	r2, r1
 8000854:	481f      	ldr	r0, [pc, #124]	@ (80008d4 <main+0xf0>)
 8000856:	f005 fccf 	bl	80061f8 <iprintf>
        printf("Page size          = 0x%04lx (%lu)\r\n", w25qxx.page_size, w25qxx.page_size);
 800085a:	6a21      	ldr	r1, [r4, #32]
 800085c:	460a      	mov	r2, r1
 800085e:	481e      	ldr	r0, [pc, #120]	@ (80008d8 <main+0xf4>)
 8000860:	f005 fcca 	bl	80061f8 <iprintf>
        printf("Pages per sector   = 0x%04lx (%lu)\r\n", w25qxx.pages_in_sector, w25qxx.pages_in_sector);
 8000864:	6a61      	ldr	r1, [r4, #36]	@ 0x24
 8000866:	460a      	mov	r2, r1
 8000868:	481c      	ldr	r0, [pc, #112]	@ (80008dc <main+0xf8>)
 800086a:	f005 fcc5 	bl	80061f8 <iprintf>
        printf("Total size (in kB) = 0x%04lx (%lu)\r\n", (w25qxx.block_count * w25qxx.block_size) / 1024, (w25qxx.block_count * w25qxx.block_size) / 1024);
 800086e:	6961      	ldr	r1, [r4, #20]
 8000870:	6923      	ldr	r3, [r4, #16]
 8000872:	fb03 f101 	mul.w	r1, r3, r1
 8000876:	0a89      	lsrs	r1, r1, #10
 8000878:	460a      	mov	r2, r1
 800087a:	4819      	ldr	r0, [pc, #100]	@ (80008e0 <main+0xfc>)
 800087c:	f005 fcbc 	bl	80061f8 <iprintf>
    w25qxx_littlefs_init(&w25qxx);
 8000880:	480d      	ldr	r0, [pc, #52]	@ (80008b8 <main+0xd4>)
 8000882:	f005 fadf 	bl	8005e44 <w25qxx_littlefs_init>
    uint32_t now = 0, last_blink = 0, last_test = 0, offset_address = 0;
 8000886:	2400      	movs	r4, #0
 8000888:	4625      	mov	r5, r4
        now = HAL_GetTick();
 800088a:	f000 f9ad 	bl	8000be8 <HAL_GetTick>
 800088e:	4604      	mov	r4, r0
        if (now - last_blink >= 500) {
 8000890:	1b43      	subs	r3, r0, r5
 8000892:	f5b3 7ffa 	cmp.w	r3, #500	@ 0x1f4
 8000896:	d3f8      	bcc.n	800088a <main+0xa6>
            HAL_GPIO_TogglePin(LED_GPIO_Port, LED_Pin);
 8000898:	f44f 5100 	mov.w	r1, #8192	@ 0x2000
 800089c:	4811      	ldr	r0, [pc, #68]	@ (80008e4 <main+0x100>)
 800089e:	f000 fb31 	bl	8000f04 <HAL_GPIO_TogglePin>
            last_blink = now;
 80008a2:	e7f1      	b.n	8000888 <main+0xa4>
        printf("Unable to initialize w25qxx\n");
 80008a4:	4810      	ldr	r0, [pc, #64]	@ (80008e8 <main+0x104>)
 80008a6:	f005 fd0f 	bl	80062c8 <puts>
 80008aa:	e7e9      	b.n	8000880 <main+0x9c>
 80008ac:	08006f28 	.word	0x08006f28
 80008b0:	40020000 	.word	0x40020000
 80008b4:	20000148 	.word	0x20000148
 80008b8:	200000d8 	.word	0x200000d8
 80008bc:	08006f64 	.word	0x08006f64
 80008c0:	08006f88 	.word	0x08006f88
 80008c4:	08006fa8 	.word	0x08006fa8
 80008c8:	08006fc8 	.word	0x08006fc8
 80008cc:	08006ff0 	.word	0x08006ff0
 80008d0:	08007018 	.word	0x08007018
 80008d4:	08007040 	.word	0x08007040
 80008d8:	08007068 	.word	0x08007068
 80008dc:	08007090 	.word	0x08007090
 80008e0:	080070b8 	.word	0x080070b8
 80008e4:	40020800 	.word	0x40020800
 80008e8:	080070e0 	.word	0x080070e0

080008ec <HAL_MspInit>:
/* USER CODE END 0 */
/**
  * Initializes the Global MSP.
  */
void HAL_MspInit(void)
{
 80008ec:	b082      	sub	sp, #8

  /* USER CODE BEGIN MspInit 0 */

  /* USER CODE END MspInit 0 */

  __HAL_RCC_SYSCFG_CLK_ENABLE();
 80008ee:	2100      	movs	r1, #0
 80008f0:	9100      	str	r1, [sp, #0]
 80008f2:	4b0b      	ldr	r3, [pc, #44]	@ (8000920 <HAL_MspInit+0x34>)
 80008f4:	6c5a      	ldr	r2, [r3, #68]	@ 0x44
 80008f6:	f442 4280 	orr.w	r2, r2, #16384	@ 0x4000
 80008fa:	645a      	str	r2, [r3, #68]	@ 0x44
 80008fc:	6c5a      	ldr	r2, [r3, #68]	@ 0x44
 80008fe:	f402 4280 	and.w	r2, r2, #16384	@ 0x4000
 8000902:	9200      	str	r2, [sp, #0]
 8000904:	9a00      	ldr	r2, [sp, #0]
  __HAL_RCC_PWR_CLK_ENABLE();
 8000906:	9101      	str	r1, [sp, #4]
 8000908:	6c1a      	ldr	r2, [r3, #64]	@ 0x40
 800090a:	f042 5280 	orr.w	r2, r2, #268435456	@ 0x10000000
 800090e:	641a      	str	r2, [r3, #64]	@ 0x40
 8000910:	6c1b      	ldr	r3, [r3, #64]	@ 0x40
 8000912:	f003 5380 	and.w	r3, r3, #268435456	@ 0x10000000
 8000916:	9301      	str	r3, [sp, #4]
 8000918:	9b01      	ldr	r3, [sp, #4]
  /* System interrupt init*/

  /* USER CODE BEGIN MspInit 1 */

  /* USER CODE END MspInit 1 */
}
 800091a:	b002      	add	sp, #8
 800091c:	4770      	bx	lr
 800091e:	bf00      	nop
 8000920:	40023800 	.word	0x40023800

08000924 <HAL_CRC_MspInit>:
  * @param hcrc: CRC handle pointer
  * @retval None
  */
void HAL_CRC_MspInit(CRC_HandleTypeDef* hcrc)
{
  if(hcrc->Instance==CRC)
 8000924:	6802      	ldr	r2, [r0, #0]
 8000926:	4b09      	ldr	r3, [pc, #36]	@ (800094c <HAL_CRC_MspInit+0x28>)
 8000928:	429a      	cmp	r2, r3
 800092a:	d000      	beq.n	800092e <HAL_CRC_MspInit+0xa>
 800092c:	4770      	bx	lr
{
 800092e:	b082      	sub	sp, #8
  {
    /* USER CODE BEGIN CRC_MspInit 0 */

    /* USER CODE END CRC_MspInit 0 */
    /* Peripheral clock enable */
    __HAL_RCC_CRC_CLK_ENABLE();
 8000930:	2300      	movs	r3, #0
 8000932:	9301      	str	r3, [sp, #4]
 8000934:	4b06      	ldr	r3, [pc, #24]	@ (8000950 <HAL_CRC_MspInit+0x2c>)
 8000936:	6b1a      	ldr	r2, [r3, #48]	@ 0x30
 8000938:	f442 5280 	orr.w	r2, r2, #4096	@ 0x1000
 800093c:	631a      	str	r2, [r3, #48]	@ 0x30
 800093e:	6b1b      	ldr	r3, [r3, #48]	@ 0x30
 8000940:	f403 5380 	and.w	r3, r3, #4096	@ 0x1000
 8000944:	9301      	str	r3, [sp, #4]
 8000946:	9b01      	ldr	r3, [sp, #4]

    /* USER CODE END CRC_MspInit 1 */

  }

}
 8000948:	b002      	add	sp, #8
 800094a:	4770      	bx	lr
 800094c:	40023000 	.word	0x40023000
 8000950:	40023800 	.word	0x40023800

08000954 <HAL_SPI_MspInit>:
  * This function configures the hardware resources used in this example
  * @param hspi: SPI handle pointer
  * @retval None
  */
void HAL_SPI_MspInit(SPI_HandleTypeDef* hspi)
{
 8000954:	b500      	push	{lr}
 8000956:	b089      	sub	sp, #36	@ 0x24
  GPIO_InitTypeDef GPIO_InitStruct = {0};
 8000958:	2300      	movs	r3, #0
 800095a:	9303      	str	r3, [sp, #12]
 800095c:	9304      	str	r3, [sp, #16]
 800095e:	9305      	str	r3, [sp, #20]
 8000960:	9306      	str	r3, [sp, #24]
 8000962:	9307      	str	r3, [sp, #28]
  if(hspi->Instance==SPI1)
 8000964:	6802      	ldr	r2, [r0, #0]
 8000966:	4b14      	ldr	r3, [pc, #80]	@ (80009b8 <HAL_SPI_MspInit+0x64>)
 8000968:	429a      	cmp	r2, r3
 800096a:	d001      	beq.n	8000970 <HAL_SPI_MspInit+0x1c>

    /* USER CODE END SPI1_MspInit 1 */

  }

}
 800096c:	b009      	add	sp, #36	@ 0x24
 800096e:	bd00      	pop	{pc}
    __HAL_RCC_SPI1_CLK_ENABLE();
 8000970:	2100      	movs	r1, #0
 8000972:	9101      	str	r1, [sp, #4]
 8000974:	f503 3384 	add.w	r3, r3, #67584	@ 0x10800
 8000978:	6c5a      	ldr	r2, [r3, #68]	@ 0x44
 800097a:	f442 5280 	orr.w	r2, r2, #4096	@ 0x1000
 800097e:	645a      	str	r2, [r3, #68]	@ 0x44
 8000980:	6c5a      	ldr	r2, [r3, #68]	@ 0x44
 8000982:	f402 5280 	and.w	r2, r2, #4096	@ 0x1000
 8000986:	9201      	str	r2, [sp, #4]
 8000988:	9a01      	ldr	r2, [sp, #4]
    __HAL_RCC_GPIOA_CLK_ENABLE();
 800098a:	9102      	str	r1, [sp, #8]
 800098c:	6b1a      	ldr	r2, [r3, #48]	@ 0x30
 800098e:	f042 0201 	orr.w	r2, r2, #1
 8000992:	631a      	str	r2, [r3, #48]	@ 0x30
 8000994:	6b1b      	ldr	r3, [r3, #48]	@ 0x30
 8000996:	f003 0301 	and.w	r3, r3, #1
 800099a:	9302      	str	r3, [sp, #8]
 800099c:	9b02      	ldr	r3, [sp, #8]
    GPIO_InitStruct.Pin = GPIO_PIN_5|GPIO_PIN_6|GPIO_PIN_7;
 800099e:	23e0      	movs	r3, #224	@ 0xe0
 80009a0:	9303      	str	r3, [sp, #12]
    GPIO_InitStruct.Mode = GPIO_MODE_AF_PP;
 80009a2:	2302      	movs	r3, #2
 80009a4:	9304      	str	r3, [sp, #16]
    GPIO_InitStruct.Speed = GPIO_SPEED_FREQ_VERY_HIGH;
 80009a6:	2303      	movs	r3, #3
 80009a8:	9306      	str	r3, [sp, #24]
    GPIO_InitStruct.Alternate = GPIO_AF5_SPI1;
 80009aa:	2305      	movs	r3, #5
 80009ac:	9307      	str	r3, [sp, #28]
    HAL_GPIO_Init(GPIOA, &GPIO_InitStruct);
 80009ae:	a903      	add	r1, sp, #12
 80009b0:	4802      	ldr	r0, [pc, #8]	@ (80009bc <HAL_SPI_MspInit+0x68>)
 80009b2:	f000 f9ab 	bl	8000d0c <HAL_GPIO_Init>
}
 80009b6:	e7d9      	b.n	800096c <HAL_SPI_MspInit+0x18>
 80009b8:	40013000 	.word	0x40013000
 80009bc:	40020000 	.word	0x40020000

080009c0 <HAL_UART_MspInit>:
  * This function configures the hardware resources used in this example
  * @param huart: UART handle pointer
  * @retval None
  */
void HAL_UART_MspInit(UART_HandleTypeDef* huart)
{
 80009c0:	b500      	push	{lr}
 80009c2:	b089      	sub	sp, #36	@ 0x24
  GPIO_InitTypeDef GPIO_InitStruct = {0};
 80009c4:	2300      	movs	r3, #0
 80009c6:	9303      	str	r3, [sp, #12]
 80009c8:	9304      	str	r3, [sp, #16]
 80009ca:	9305      	str	r3, [sp, #20]
 80009cc:	9306      	str	r3, [sp, #24]
 80009ce:	9307      	str	r3, [sp, #28]
  if(huart->Instance==USART1)
 80009d0:	6802      	ldr	r2, [r0, #0]
 80009d2:	f103 4380 	add.w	r3, r3, #1073741824	@ 0x40000000
 80009d6:	f503 3388 	add.w	r3, r3, #69632	@ 0x11000
 80009da:	429a      	cmp	r2, r3
 80009dc:	d001      	beq.n	80009e2 <HAL_UART_MspInit+0x22>

    /* USER CODE END USART1_MspInit 1 */

  }

}
 80009de:	b009      	add	sp, #36	@ 0x24
 80009e0:	bd00      	pop	{pc}
    __HAL_RCC_USART1_CLK_ENABLE();
 80009e2:	2100      	movs	r1, #0
 80009e4:	9101      	str	r1, [sp, #4]
 80009e6:	f503 3394 	add.w	r3, r3, #75776	@ 0x12800
 80009ea:	6c5a      	ldr	r2, [r3, #68]	@ 0x44
 80009ec:	f042 0210 	orr.w	r2, r2, #16
 80009f0:	645a      	str	r2, [r3, #68]	@ 0x44
 80009f2:	6c5a      	ldr	r2, [r3, #68]	@ 0x44
 80009f4:	f002 0210 	and.w	r2, r2, #16
 80009f8:	9201      	str	r2, [sp, #4]
 80009fa:	9a01      	ldr	r2, [sp, #4]
    __HAL_RCC_GPIOA_CLK_ENABLE();
 80009fc:	9102      	str	r1, [sp, #8]
 80009fe:	6b1a      	ldr	r2, [r3, #48]	@ 0x30
 8000a00:	f042 0201 	orr.w	r2, r2, #1
 8000a04:	631a      	str	r2, [r3, #48]	@ 0x30
 8000a06:	6b1b      	ldr	r3, [r3, #48]	@ 0x30
 8000a08:	f003 0301 	and.w	r3, r3, #1
 8000a0c:	9302      	str	r3, [sp, #8]
 8000a0e:	9b02      	ldr	r3, [sp, #8]
    GPIO_InitStruct.Pin = GPIO_PIN_9|GPIO_PIN_10;
 8000a10:	f44f 63c0 	mov.w	r3, #1536	@ 0x600
 8000a14:	9303      	str	r3, [sp, #12]
    GPIO_InitStruct.Mode = GPIO_MODE_AF_PP;
 8000a16:	2302      	movs	r3, #2
 8000a18:	9304      	str	r3, [sp, #16]
    GPIO_InitStruct.Speed = GPIO_SPEED_FREQ_VERY_HIGH;
 8000a1a:	2303      	movs	r3, #3
 8000a1c:	9306      	str	r3, [sp, #24]
    GPIO_InitStruct.Alternate = GPIO_AF7_USART1;
 8000a1e:	2307      	movs	r3, #7
 8000a20:	9307      	str	r3, [sp, #28]
    HAL_GPIO_Init(GPIOA, &GPIO_InitStruct);
 8000a22:	a903      	add	r1, sp, #12
 8000a24:	4801      	ldr	r0, [pc, #4]	@ (8000a2c <HAL_UART_MspInit+0x6c>)
 8000a26:	f000 f971 	bl	8000d0c <HAL_GPIO_Init>
}
 8000a2a:	e7d8      	b.n	80009de <HAL_UART_MspInit+0x1e>
 8000a2c:	40020000 	.word	0x40020000

08000a30 <NMI_Handler>:
{
  /* USER CODE BEGIN NonMaskableInt_IRQn 0 */

  /* USER CODE END NonMaskableInt_IRQn 0 */
  /* USER CODE BEGIN NonMaskableInt_IRQn 1 */
   while (1)
 8000a30:	e7fe      	b.n	8000a30 <NMI_Handler>

08000a32 <HardFault_Handler>:
void HardFault_Handler(void)
{
  /* USER CODE BEGIN HardFault_IRQn 0 */

  /* USER CODE END HardFault_IRQn 0 */
  while (1)
 8000a32:	e7fe      	b.n	8000a32 <HardFault_Handler>

08000a34 <MemManage_Handler>:
void MemManage_Handler(void)
{
  /* USER CODE BEGIN MemoryManagement_IRQn 0 */

  /* USER CODE END MemoryManagement_IRQn 0 */
  while (1)
 8000a34:	e7fe      	b.n	8000a34 <MemManage_Handler>

08000a36 <BusFault_Handler>:
void BusFault_Handler(void)
{
  /* USER CODE BEGIN BusFault_IRQn 0 */

  /* USER CODE END BusFault_IRQn 0 */
  while (1)
 8000a36:	e7fe      	b.n	8000a36 <BusFault_Handler>

08000a38 <UsageFault_Handler>:
void UsageFault_Handler(void)
{
  /* USER CODE BEGIN UsageFault_IRQn 0 */

  /* USER CODE END UsageFault_IRQn 0 */
  while (1)
 8000a38:	e7fe      	b.n	8000a38 <UsageFault_Handler>

08000a3a <SVC_Handler>:

  /* USER CODE END SVCall_IRQn 0 */
  /* USER CODE BEGIN SVCall_IRQn 1 */

  /* USER CODE END SVCall_IRQn 1 */
}
 8000a3a:	4770      	bx	lr

08000a3c <DebugMon_Handler>:

  /* USER CODE END DebugMonitor_IRQn 0 */
  /* USER CODE BEGIN DebugMonitor_IRQn 1 */

  /* USER CODE END DebugMonitor_IRQn 1 */
}
 8000a3c:	4770      	bx	lr

08000a3e <PendSV_Handler>:

  /* USER CODE END PendSV_IRQn 0 */
  /* USER CODE BEGIN PendSV_IRQn 1 */

  /* USER CODE END PendSV_IRQn 1 */
}
 8000a3e:	4770      	bx	lr

08000a40 <SysTick_Handler>:

/**
  * @brief This function handles System tick timer.
  */
void SysTick_Handler(void)
{
 8000a40:	b508      	push	{r3, lr}
  /* USER CODE BEGIN SysTick_IRQn 0 */

  /* USER CODE END SysTick_IRQn 0 */
  HAL_IncTick();
 8000a42:	f000 f8c5 	bl	8000bd0 <HAL_IncTick>
  /* USER CODE BEGIN SysTick_IRQn 1 */

  /* USER CODE END SysTick_IRQn 1 */
}
 8000a46:	bd08      	pop	{r3, pc}

08000a48 <_getpid>:
}

int _getpid(void)
{
  return 1;
}
 8000a48:	2001      	movs	r0, #1
 8000a4a:	4770      	bx	lr

08000a4c <_kill>:

int _kill(int pid, int sig)
{
 8000a4c:	b508      	push	{r3, lr}
  (void)pid;
  (void)sig;
  errno = EINVAL;
 8000a4e:	f005 fd87 	bl	8006560 <__errno>
 8000a52:	2316      	movs	r3, #22
 8000a54:	6003      	str	r3, [r0, #0]
  return -1;
}
 8000a56:	f04f 30ff 	mov.w	r0, #4294967295	@ 0xffffffff
 8000a5a:	bd08      	pop	{r3, pc}

08000a5c <_exit>:

void _exit (int status)
{
 8000a5c:	b508      	push	{r3, lr}
  _kill(status, -1);
 8000a5e:	f04f 31ff 	mov.w	r1, #4294967295	@ 0xffffffff
 8000a62:	f7ff fff3 	bl	8000a4c <_kill>
  while (1) {}    /* Make sure we hang here */
 8000a66:	e7fe      	b.n	8000a66 <_exit+0xa>

08000a68 <_read>:
}

__attribute__((weak)) int _read(int file, char *ptr, int len)
{
 8000a68:	b570      	push	{r4, r5, r6, lr}
 8000a6a:	460c      	mov	r4, r1
 8000a6c:	4616      	mov	r6, r2
  (void)file;
  int DataIdx;

  for (DataIdx = 0; DataIdx < len; DataIdx++)
 8000a6e:	2500      	movs	r5, #0
 8000a70:	e006      	b.n	8000a80 <_read+0x18>
  {
    *ptr++ = __io_getchar();
 8000a72:	f3af 8000 	nop.w
 8000a76:	4621      	mov	r1, r4
 8000a78:	f801 0b01 	strb.w	r0, [r1], #1
  for (DataIdx = 0; DataIdx < len; DataIdx++)
 8000a7c:	3501      	adds	r5, #1
    *ptr++ = __io_getchar();
 8000a7e:	460c      	mov	r4, r1
  for (DataIdx = 0; DataIdx < len; DataIdx++)
 8000a80:	42b5      	cmp	r5, r6
 8000a82:	dbf6      	blt.n	8000a72 <_read+0xa>
  }

  return len;
}
 8000a84:	4630      	mov	r0, r6
 8000a86:	bd70      	pop	{r4, r5, r6, pc}

08000a88 <_close>:

int _close(int file)
{
  (void)file;
  return -1;
}
 8000a88:	f04f 30ff 	mov.w	r0, #4294967295	@ 0xffffffff
 8000a8c:	4770      	bx	lr

08000a8e <_fstat>:


int _fstat(int file, struct stat *st)
{
  (void)file;
  st->st_mode = S_IFCHR;
 8000a8e:	f44f 5300 	mov.w	r3, #8192	@ 0x2000
 8000a92:	604b      	str	r3, [r1, #4]
  return 0;
}
 8000a94:	2000      	movs	r0, #0
 8000a96:	4770      	bx	lr

08000a98 <_isatty>:

int _isatty(int file)
{
  (void)file;
  return 1;
}
 8000a98:	2001      	movs	r0, #1
 8000a9a:	4770      	bx	lr

08000a9c <_lseek>:
{
  (void)file;
  (void)ptr;
  (void)dir;
  return 0;
}
 8000a9c:	2000      	movs	r0, #0
 8000a9e:	4770      	bx	lr

08000aa0 <_sbrk>:
 *
 * @param incr Memory size
 * @return Pointer to allocated memory
 */
void *_sbrk(ptrdiff_t incr)
{
 8000aa0:	b510      	push	{r4, lr}
 8000aa2:	4603      	mov	r3, r0
  extern uint8_t _end; /* Symbol defined in the linker script */
  extern uint8_t _estack; /* Symbol defined in the linker script */
  extern uint32_t _Min_Stack_Size; /* Symbol defined in the linker script */
  const uint32_t stack_limit = (uint32_t)&_estack - (uint32_t)&_Min_Stack_Size;
 8000aa4:	4a0c      	ldr	r2, [pc, #48]	@ (8000ad8 <_sbrk+0x38>)
 8000aa6:	490d      	ldr	r1, [pc, #52]	@ (8000adc <_sbrk+0x3c>)
  const uint8_t *max_heap = (uint8_t *)stack_limit;
  uint8_t *prev_heap_end;

  /* Initialize heap end at first call */
  if (NULL == __sbrk_heap_end)
 8000aa8:	480d      	ldr	r0, [pc, #52]	@ (8000ae0 <_sbrk+0x40>)
 8000aaa:	6800      	ldr	r0, [r0, #0]
 8000aac:	b140      	cbz	r0, 8000ac0 <_sbrk+0x20>
  {
    __sbrk_heap_end = &_end;
  }

  /* Protect heap from growing into the reserved MSP stack */
  if (__sbrk_heap_end + incr > max_heap)
 8000aae:	480c      	ldr	r0, [pc, #48]	@ (8000ae0 <_sbrk+0x40>)
 8000ab0:	6800      	ldr	r0, [r0, #0]
 8000ab2:	4403      	add	r3, r0
 8000ab4:	1a52      	subs	r2, r2, r1
 8000ab6:	4293      	cmp	r3, r2
 8000ab8:	d806      	bhi.n	8000ac8 <_sbrk+0x28>
    errno = ENOMEM;
    return (void *)-1;
  }

  prev_heap_end = __sbrk_heap_end;
  __sbrk_heap_end += incr;
 8000aba:	4a09      	ldr	r2, [pc, #36]	@ (8000ae0 <_sbrk+0x40>)
 8000abc:	6013      	str	r3, [r2, #0]

  return (void *)prev_heap_end;
}
 8000abe:	bd10      	pop	{r4, pc}
    __sbrk_heap_end = &_end;
 8000ac0:	4807      	ldr	r0, [pc, #28]	@ (8000ae0 <_sbrk+0x40>)
 8000ac2:	4c08      	ldr	r4, [pc, #32]	@ (8000ae4 <_sbrk+0x44>)
 8000ac4:	6004      	str	r4, [r0, #0]
 8000ac6:	e7f2      	b.n	8000aae <_sbrk+0xe>
    errno = ENOMEM;
 8000ac8:	f005 fd4a 	bl	8006560 <__errno>
 8000acc:	230c      	movs	r3, #12
 8000ace:	6003      	str	r3, [r0, #0]
    return (void *)-1;
 8000ad0:	f04f 30ff 	mov.w	r0, #4294967295	@ 0xffffffff
 8000ad4:	e7f3      	b.n	8000abe <_sbrk+0x1e>
 8000ad6:	bf00      	nop
 8000ad8:	20020000 	.word	0x20020000
 8000adc:	00000400 	.word	0x00000400
 8000ae0:	200001a8 	.word	0x200001a8
 8000ae4:	20000380 	.word	0x20000380

08000ae8 <SystemInit>:
  */
void SystemInit(void)
{
  /* FPU settings ------------------------------------------------------------*/
  #if (__FPU_PRESENT == 1) && (__FPU_USED == 1)
    SCB->CPACR |= ((3UL << 10*2)|(3UL << 11*2));  /* set CP10 and CP11 Full Access */
 8000ae8:	4a03      	ldr	r2, [pc, #12]	@ (8000af8 <SystemInit+0x10>)
 8000aea:	f8d2 3088 	ldr.w	r3, [r2, #136]	@ 0x88
 8000aee:	f443 0370 	orr.w	r3, r3, #15728640	@ 0xf00000
 8000af2:	f8c2 3088 	str.w	r3, [r2, #136]	@ 0x88

  /* Configure the Vector Table location -------------------------------------*/
#if defined(USER_VECT_TAB_ADDRESS)
  SCB->VTOR = VECT_TAB_BASE_ADDRESS | VECT_TAB_OFFSET; /* Vector Table Relocation in Internal SRAM */
#endif /* USER_VECT_TAB_ADDRESS */
}
 8000af6:	4770      	bx	lr
 8000af8:	e000ed00 	.word	0xe000ed00

08000afc <Reset_Handler>:

    .section  .text.Reset_Handler
  .weak  Reset_Handler
  .type  Reset_Handler, %function
Reset_Handler:  
  ldr   sp, =_estack     /* set stack pointer */
 8000afc:	f8df d034 	ldr.w	sp, [pc, #52]	@ 8000b34 <LoopFillZerobss+0xe>
  
/* Call the clock system initialization function.*/
  bl  SystemInit  
 8000b00:	f7ff fff2 	bl	8000ae8 <SystemInit>

/* Copy the data segment initializers from flash to SRAM */  
  ldr r0, =_sdata
 8000b04:	480c      	ldr	r0, [pc, #48]	@ (8000b38 <LoopFillZerobss+0x12>)
  ldr r1, =_edata
 8000b06:	490d      	ldr	r1, [pc, #52]	@ (8000b3c <LoopFillZerobss+0x16>)
  ldr r2, =_sidata
 8000b08:	4a0d      	ldr	r2, [pc, #52]	@ (8000b40 <LoopFillZerobss+0x1a>)
  movs r3, #0
 8000b0a:	2300      	movs	r3, #0
  b LoopCopyDataInit
 8000b0c:	e002      	b.n	8000b14 <LoopCopyDataInit>

08000b0e <CopyDataInit>:

CopyDataInit:
  ldr r4, [r2, r3]
 8000b0e:	58d4      	ldr	r4, [r2, r3]
  str r4, [r0, r3]
 8000b10:	50c4      	str	r4, [r0, r3]
  adds r3, r3, #4
 8000b12:	3304      	adds	r3, #4

08000b14 <LoopCopyDataInit>:

LoopCopyDataInit:
  adds r4, r0, r3
 8000b14:	18c4      	adds	r4, r0, r3
  cmp r4, r1
 8000b16:	428c      	cmp	r4, r1
  bcc CopyDataInit
 8000b18:	d3f9      	bcc.n	8000b0e <CopyDataInit>
  
/* Zero fill the bss segment. */
  ldr r2, =_sbss
 8000b1a:	4a0a      	ldr	r2, [pc, #40]	@ (8000b44 <LoopFillZerobss+0x1e>)
  ldr r4, =_ebss
 8000b1c:	4c0a      	ldr	r4, [pc, #40]	@ (8000b48 <LoopFillZerobss+0x22>)
  movs r3, #0
 8000b1e:	2300      	movs	r3, #0
  b LoopFillZerobss
 8000b20:	e001      	b.n	8000b26 <LoopFillZerobss>

08000b22 <FillZerobss>:

FillZerobss:
  str  r3, [r2]
 8000b22:	6013      	str	r3, [r2, #0]
  adds r2, r2, #4
 8000b24:	3204      	adds	r2, #4

08000b26 <LoopFillZerobss>:

LoopFillZerobss:
  cmp r2, r4
 8000b26:	42a2      	cmp	r2, r4
  bcc FillZerobss
 8000b28:	d3fb      	bcc.n	8000b22 <FillZerobss>

/* Call static constructors */
    bl __libc_init_array
 8000b2a:	f005 fd1f 	bl	800656c <__libc_init_array>
/* Call the application's entry point.*/
  bl  main
 8000b2e:	f7ff fe59 	bl	80007e4 <main>
  bx  lr    
 8000b32:	4770      	bx	lr
  ldr   sp, =_estack     /* set stack pointer */
 8000b34:	20020000 	.word	0x20020000
  ldr r0, =_sdata
 8000b38:	20000000 	.word	0x20000000
  ldr r1, =_edata
 8000b3c:	200000bc 	.word	0x200000bc
  ldr r2, =_sidata
 8000b40:	08007f60 	.word	0x08007f60
  ldr r2, =_sbss
 8000b44:	200000bc 	.word	0x200000bc
  ldr r4, =_ebss
 8000b48:	20000380 	.word	0x20000380

08000b4c <ADC_IRQHandler>:
 * @retval None       
*/
    .section  .text.Default_Handler,"ax",%progbits
Default_Handler:
Infinite_Loop:
  b  Infinite_Loop
 8000b4c:	e7fe      	b.n	8000b4c <ADC_IRQHandler>
	...

08000b50 <HAL_InitTick>:
  *       implementation  in user file.
  * @param TickPriority Tick interrupt priority.
  * @retval HAL status
  */
__weak HAL_StatusTypeDef HAL_InitTick(uint32_t TickPriority)
{
 8000b50:	b510      	push	{r4, lr}
 8000b52:	4604      	mov	r4, r0
  /* Configure the SysTick to have interrupt in 1ms time basis*/
  if (HAL_SYSTICK_Config(SystemCoreClock / (1000U / uwTickFreq)) > 0U)
 8000b54:	4b0e      	ldr	r3, [pc, #56]	@ (8000b90 <HAL_InitTick+0x40>)
 8000b56:	6818      	ldr	r0, [r3, #0]
 8000b58:	4b0e      	ldr	r3, [pc, #56]	@ (8000b94 <HAL_InitTick+0x44>)
 8000b5a:	781a      	ldrb	r2, [r3, #0]
 8000b5c:	f44f 737a 	mov.w	r3, #1000	@ 0x3e8
 8000b60:	fbb3 f3f2 	udiv	r3, r3, r2
 8000b64:	fbb0 f0f3 	udiv	r0, r0, r3
 8000b68:	f000 f8ac 	bl	8000cc4 <HAL_SYSTICK_Config>
 8000b6c:	b968      	cbnz	r0, 8000b8a <HAL_InitTick+0x3a>
  {
    return HAL_ERROR;
  }

  /* Configure the SysTick IRQ priority */
  if (TickPriority < (1UL << __NVIC_PRIO_BITS))
 8000b6e:	2c0f      	cmp	r4, #15
 8000b70:	d901      	bls.n	8000b76 <HAL_InitTick+0x26>
    HAL_NVIC_SetPriority(SysTick_IRQn, TickPriority, 0U);
    uwTickPrio = TickPriority;
  }
  else
  {
    return HAL_ERROR;
 8000b72:	2001      	movs	r0, #1
 8000b74:	e00a      	b.n	8000b8c <HAL_InitTick+0x3c>
    HAL_NVIC_SetPriority(SysTick_IRQn, TickPriority, 0U);
 8000b76:	2200      	movs	r2, #0
 8000b78:	4621      	mov	r1, r4
 8000b7a:	f04f 30ff 	mov.w	r0, #4294967295	@ 0xffffffff
 8000b7e:	f000 f891 	bl	8000ca4 <HAL_NVIC_SetPriority>
    uwTickPrio = TickPriority;
 8000b82:	4b05      	ldr	r3, [pc, #20]	@ (8000b98 <HAL_InitTick+0x48>)
 8000b84:	601c      	str	r4, [r3, #0]
  }

  /* Return function status */
  return HAL_OK;
 8000b86:	2000      	movs	r0, #0
 8000b88:	e000      	b.n	8000b8c <HAL_InitTick+0x3c>
    return HAL_ERROR;
 8000b8a:	2001      	movs	r0, #1
}
 8000b8c:	bd10      	pop	{r4, pc}
 8000b8e:	bf00      	nop
 8000b90:	20000000 	.word	0x20000000
 8000b94:	20000004 	.word	0x20000004
 8000b98:	20000008 	.word	0x20000008

08000b9c <HAL_Init>:
{
 8000b9c:	b508      	push	{r3, lr}
  __HAL_FLASH_INSTRUCTION_CACHE_ENABLE();
 8000b9e:	4b0b      	ldr	r3, [pc, #44]	@ (8000bcc <HAL_Init+0x30>)
 8000ba0:	681a      	ldr	r2, [r3, #0]
 8000ba2:	f442 7200 	orr.w	r2, r2, #512	@ 0x200
 8000ba6:	601a      	str	r2, [r3, #0]
  __HAL_FLASH_DATA_CACHE_ENABLE();
 8000ba8:	681a      	ldr	r2, [r3, #0]
 8000baa:	f442 6280 	orr.w	r2, r2, #1024	@ 0x400
 8000bae:	601a      	str	r2, [r3, #0]
  __HAL_FLASH_PREFETCH_BUFFER_ENABLE();
 8000bb0:	681a      	ldr	r2, [r3, #0]
 8000bb2:	f442 7280 	orr.w	r2, r2, #256	@ 0x100
 8000bb6:	601a      	str	r2, [r3, #0]
  HAL_NVIC_SetPriorityGrouping(NVIC_PRIORITYGROUP_4);
 8000bb8:	2003      	movs	r0, #3
 8000bba:	f000 f861 	bl	8000c80 <HAL_NVIC_SetPriorityGrouping>
  HAL_InitTick(TICK_INT_PRIORITY);
 8000bbe:	200f      	movs	r0, #15
 8000bc0:	f7ff ffc6 	bl	8000b50 <HAL_InitTick>
  HAL_MspInit();
 8000bc4:	f7ff fe92 	bl	80008ec <HAL_MspInit>
}
 8000bc8:	2000      	movs	r0, #0
 8000bca:	bd08      	pop	{r3, pc}
 8000bcc:	40023c00 	.word	0x40023c00

08000bd0 <HAL_IncTick>:
  *      implementations in user file.
  * @retval None
  */
__weak void HAL_IncTick(void)
{
  uwTick += uwTickFreq;
 8000bd0:	4a03      	ldr	r2, [pc, #12]	@ (8000be0 <HAL_IncTick+0x10>)
 8000bd2:	6811      	ldr	r1, [r2, #0]
 8000bd4:	4b03      	ldr	r3, [pc, #12]	@ (8000be4 <HAL_IncTick+0x14>)
 8000bd6:	781b      	ldrb	r3, [r3, #0]
 8000bd8:	440b      	add	r3, r1
 8000bda:	6013      	str	r3, [r2, #0]
}
 8000bdc:	4770      	bx	lr
 8000bde:	bf00      	nop
 8000be0:	200001ac 	.word	0x200001ac
 8000be4:	20000004 	.word	0x20000004

08000be8 <HAL_GetTick>:
  *       implementations in user file.
  * @retval tick value
  */
__weak uint32_t HAL_GetTick(void)
{
  return uwTick;
 8000be8:	4b01      	ldr	r3, [pc, #4]	@ (8000bf0 <HAL_GetTick+0x8>)
 8000bea:	6818      	ldr	r0, [r3, #0]
}
 8000bec:	4770      	bx	lr
 8000bee:	bf00      	nop
 8000bf0:	200001ac 	.word	0x200001ac

08000bf4 <HAL_Delay>:
  *       implementations in user file.
  * @param Delay specifies the delay time length, in milliseconds.
  * @retval None
  */
__weak void HAL_Delay(uint32_t Delay)
{
 8000bf4:	b538      	push	{r3, r4, r5, lr}
 8000bf6:	4604      	mov	r4, r0
  uint32_t tickstart = HAL_GetTick();
 8000bf8:	f7ff fff6 	bl	8000be8 <HAL_GetTick>
 8000bfc:	4605      	mov	r5, r0
  uint32_t wait = Delay;

  /* Add a freq to guarantee minimum wait */
  if (wait < HAL_MAX_DELAY)
 8000bfe:	f1b4 3fff 	cmp.w	r4, #4294967295	@ 0xffffffff
 8000c02:	d002      	beq.n	8000c0a <HAL_Delay+0x16>
  {
    wait += (uint32_t)(uwTickFreq);
 8000c04:	4b04      	ldr	r3, [pc, #16]	@ (8000c18 <HAL_Delay+0x24>)
 8000c06:	781b      	ldrb	r3, [r3, #0]
 8000c08:	441c      	add	r4, r3
  }

  while((HAL_GetTick() - tickstart) < wait)
 8000c0a:	f7ff ffed 	bl	8000be8 <HAL_GetTick>
 8000c0e:	1b40      	subs	r0, r0, r5
 8000c10:	42a0      	cmp	r0, r4
 8000c12:	d3fa      	bcc.n	8000c0a <HAL_Delay+0x16>
  {
  }
}
 8000c14:	bd38      	pop	{r3, r4, r5, pc}
 8000c16:	bf00      	nop
 8000c18:	20000004 	.word	0x20000004

08000c1c <__NVIC_SetPriority>:
  \param [in]  priority  Priority to set.
  \note    The priority cannot be set for every processor exception.
 */
__STATIC_INLINE void __NVIC_SetPriority(IRQn_Type IRQn, uint32_t priority)
{
  if ((int32_t)(IRQn) >= 0)
 8000c1c:	2800      	cmp	r0, #0
 8000c1e:	db08      	blt.n	8000c32 <__NVIC_SetPriority+0x16>
  {
    NVIC->IP[((uint32_t)IRQn)]               = (uint8_t)((priority << (8U - __NVIC_PRIO_BITS)) & (uint32_t)0xFFUL);
 8000c20:	0109      	lsls	r1, r1, #4
 8000c22:	b2c9      	uxtb	r1, r1
 8000c24:	f100 4060 	add.w	r0, r0, #3758096384	@ 0xe0000000
 8000c28:	f500 4061 	add.w	r0, r0, #57600	@ 0xe100
 8000c2c:	f880 1300 	strb.w	r1, [r0, #768]	@ 0x300
 8000c30:	4770      	bx	lr
  }
  else
  {
    SCB->SHP[(((uint32_t)IRQn) & 0xFUL)-4UL] = (uint8_t)((priority << (8U - __NVIC_PRIO_BITS)) & (uint32_t)0xFFUL);
 8000c32:	f000 000f 	and.w	r0, r0, #15
 8000c36:	0109      	lsls	r1, r1, #4
 8000c38:	b2c9      	uxtb	r1, r1
 8000c3a:	4b01      	ldr	r3, [pc, #4]	@ (8000c40 <__NVIC_SetPriority+0x24>)
 8000c3c:	5419      	strb	r1, [r3, r0]
  }
}
 8000c3e:	4770      	bx	lr
 8000c40:	e000ed14 	.word	0xe000ed14

08000c44 <NVIC_EncodePriority>:
  \param [in]   PreemptPriority  Preemptive priority value (starting from 0).
  \param [in]       SubPriority  Subpriority value (starting from 0).
  \return                        Encoded priority. Value can be used in the function \ref NVIC_SetPriority().
 */
__STATIC_INLINE uint32_t NVIC_EncodePriority (uint32_t PriorityGroup, uint32_t PreemptPriority, uint32_t SubPriority)
{
 8000c44:	b500      	push	{lr}
  uint32_t PriorityGroupTmp = (PriorityGroup & (uint32_t)0x07UL);   /* only values 0..7 are used          */
 8000c46:	f000 0007 	and.w	r0, r0, #7
  uint32_t PreemptPriorityBits;
  uint32_t SubPriorityBits;

  PreemptPriorityBits = ((7UL - PriorityGroupTmp) > (uint32_t)(__NVIC_PRIO_BITS)) ? (uint32_t)(__NVIC_PRIO_BITS) : (uint32_t)(7UL - PriorityGroupTmp);
 8000c4a:	f1c0 0c07 	rsb	ip, r0, #7
 8000c4e:	f1bc 0f04 	cmp.w	ip, #4
 8000c52:	bf28      	it	cs
 8000c54:	f04f 0c04 	movcs.w	ip, #4
  SubPriorityBits     = ((PriorityGroupTmp + (uint32_t)(__NVIC_PRIO_BITS)) < (uint32_t)7UL) ? (uint32_t)0UL : (uint32_t)((PriorityGroupTmp - 7UL) + (uint32_t)(__NVIC_PRIO_BITS));
 8000c58:	1d03      	adds	r3, r0, #4
 8000c5a:	2b06      	cmp	r3, #6
 8000c5c:	d90e      	bls.n	8000c7c <NVIC_EncodePriority+0x38>
 8000c5e:	1ec3      	subs	r3, r0, #3

  return (
           ((PreemptPriority & (uint32_t)((1UL << (PreemptPriorityBits)) - 1UL)) << SubPriorityBits) |
 8000c60:	f04f 3eff 	mov.w	lr, #4294967295	@ 0xffffffff
 8000c64:	fa0e f00c 	lsl.w	r0, lr, ip
 8000c68:	ea21 0100 	bic.w	r1, r1, r0
 8000c6c:	4099      	lsls	r1, r3
           ((SubPriority     & (uint32_t)((1UL << (SubPriorityBits    )) - 1UL)))
 8000c6e:	fa0e fe03 	lsl.w	lr, lr, r3
 8000c72:	ea22 020e 	bic.w	r2, r2, lr
         );
}
 8000c76:	ea41 0002 	orr.w	r0, r1, r2
 8000c7a:	bd00      	pop	{pc}
  SubPriorityBits     = ((PriorityGroupTmp + (uint32_t)(__NVIC_PRIO_BITS)) < (uint32_t)7UL) ? (uint32_t)0UL : (uint32_t)((PriorityGroupTmp - 7UL) + (uint32_t)(__NVIC_PRIO_BITS));
 8000c7c:	2300      	movs	r3, #0
 8000c7e:	e7ef      	b.n	8000c60 <NVIC_EncodePriority+0x1c>

08000c80 <HAL_NVIC_SetPriorityGrouping>:
  reg_value  =  SCB->AIRCR;                                                   /* read old register configuration    */
 8000c80:	4a07      	ldr	r2, [pc, #28]	@ (8000ca0 <HAL_NVIC_SetPriorityGrouping+0x20>)
 8000c82:	68d3      	ldr	r3, [r2, #12]
  reg_value &= ~((uint32_t)(SCB_AIRCR_VECTKEY_Msk | SCB_AIRCR_PRIGROUP_Msk)); /* clear bits to change               */
 8000c84:	f423 63e0 	bic.w	r3, r3, #1792	@ 0x700
 8000c88:	041b      	lsls	r3, r3, #16
 8000c8a:	0c1b      	lsrs	r3, r3, #16
                (PriorityGroupTmp << SCB_AIRCR_PRIGROUP_Pos)  );              /* Insert write key and priority group */
 8000c8c:	0200      	lsls	r0, r0, #8
 8000c8e:	f400 60e0 	and.w	r0, r0, #1792	@ 0x700
                ((uint32_t)0x5FAUL << SCB_AIRCR_VECTKEY_Pos) |
 8000c92:	4303      	orrs	r3, r0
  reg_value  =  (reg_value                                   |
 8000c94:	f043 63bf 	orr.w	r3, r3, #100139008	@ 0x5f80000
 8000c98:	f443 3300 	orr.w	r3, r3, #131072	@ 0x20000
  SCB->AIRCR =  reg_value;
 8000c9c:	60d3      	str	r3, [r2, #12]
  /* Check the parameters */
  assert_param(IS_NVIC_PRIORITY_GROUP(PriorityGroup));
  
  /* Set the PRIGROUP[10:8] bits according to the PriorityGroup parameter value */
  NVIC_SetPriorityGrouping(PriorityGroup);
}
 8000c9e:	4770      	bx	lr
 8000ca0:	e000ed00 	.word	0xe000ed00

08000ca4 <HAL_NVIC_SetPriority>:
  *         This parameter can be a value between 0 and 15
  *         A lower priority value indicates a higher priority.          
  * @retval None
  */
void HAL_NVIC_SetPriority(IRQn_Type IRQn, uint32_t PreemptPriority, uint32_t SubPriority)
{ 
 8000ca4:	b510      	push	{r4, lr}
 8000ca6:	4604      	mov	r4, r0
  return ((uint32_t)((SCB->AIRCR & SCB_AIRCR_PRIGROUP_Msk) >> SCB_AIRCR_PRIGROUP_Pos));
 8000ca8:	4b05      	ldr	r3, [pc, #20]	@ (8000cc0 <HAL_NVIC_SetPriority+0x1c>)
 8000caa:	68d8      	ldr	r0, [r3, #12]
  assert_param(IS_NVIC_SUB_PRIORITY(SubPriority));
  assert_param(IS_NVIC_PREEMPTION_PRIORITY(PreemptPriority));
  
  prioritygroup = NVIC_GetPriorityGrouping();
  
  NVIC_SetPriority(IRQn, NVIC_EncodePriority(prioritygroup, PreemptPriority, SubPriority));
 8000cac:	f3c0 2002 	ubfx	r0, r0, #8, #3
 8000cb0:	f7ff ffc8 	bl	8000c44 <NVIC_EncodePriority>
 8000cb4:	4601      	mov	r1, r0
 8000cb6:	4620      	mov	r0, r4
 8000cb8:	f7ff ffb0 	bl	8000c1c <__NVIC_SetPriority>
}
 8000cbc:	bd10      	pop	{r4, pc}
 8000cbe:	bf00      	nop
 8000cc0:	e000ed00 	.word	0xe000ed00

08000cc4 <HAL_SYSTICK_Config>:
           function <b>SysTick_Config</b> is not included. In this case, the file <b><i>device</i>.h</b>
           must contain a vendor-specific implementation of this function.
 */
__STATIC_INLINE uint32_t SysTick_Config(uint32_t ticks)
{
  if ((ticks - 1UL) > SysTick_LOAD_RELOAD_Msk)
 8000cc4:	3801      	subs	r0, #1
 8000cc6:	f1b0 7f80 	cmp.w	r0, #16777216	@ 0x1000000
 8000cca:	d20b      	bcs.n	8000ce4 <HAL_SYSTICK_Config+0x20>
  {
    return (1UL);                                                   /* Reload value impossible */
  }

  SysTick->LOAD  = (uint32_t)(ticks - 1UL);                         /* set reload register */
 8000ccc:	f04f 23e0 	mov.w	r3, #3758153728	@ 0xe000e000
 8000cd0:	6158      	str	r0, [r3, #20]
    SCB->SHP[(((uint32_t)IRQn) & 0xFUL)-4UL] = (uint8_t)((priority << (8U - __NVIC_PRIO_BITS)) & (uint32_t)0xFFUL);
 8000cd2:	4a05      	ldr	r2, [pc, #20]	@ (8000ce8 <HAL_SYSTICK_Config+0x24>)
 8000cd4:	21f0      	movs	r1, #240	@ 0xf0
 8000cd6:	f882 1023 	strb.w	r1, [r2, #35]	@ 0x23
  NVIC_SetPriority (SysTick_IRQn, (1UL << __NVIC_PRIO_BITS) - 1UL); /* set Priority for Systick Interrupt */
  SysTick->VAL   = 0UL;                                             /* Load the SysTick Counter Value */
 8000cda:	2000      	movs	r0, #0
 8000cdc:	6198      	str	r0, [r3, #24]
  SysTick->CTRL  = SysTick_CTRL_CLKSOURCE_Msk |
 8000cde:	2207      	movs	r2, #7
 8000ce0:	611a      	str	r2, [r3, #16]
                   SysTick_CTRL_TICKINT_Msk   |
                   SysTick_CTRL_ENABLE_Msk;                         /* Enable SysTick IRQ and SysTick Timer */
  return (0UL);                                                     /* Function successful */
 8000ce2:	4770      	bx	lr
    return (1UL);                                                   /* Reload value impossible */
 8000ce4:	2001      	movs	r0, #1
  *                  - 1  Function failed.
  */
uint32_t HAL_SYSTICK_Config(uint32_t TicksNumb)
{
   return SysTick_Config(TicksNumb);
}
 8000ce6:	4770      	bx	lr
 8000ce8:	e000ed00 	.word	0xe000ed00

08000cec <HAL_CRC_Init>:
  * @retval HAL status
  */
HAL_StatusTypeDef HAL_CRC_Init(CRC_HandleTypeDef *hcrc)
{
  /* Check the CRC handle allocation */
  if (hcrc == NULL)
 8000cec:	b158      	cbz	r0, 8000d06 <HAL_CRC_Init+0x1a>
{
 8000cee:	b510      	push	{r4, lr}
 8000cf0:	4604      	mov	r4, r0
  }

  /* Check the parameters */
  assert_param(IS_CRC_ALL_INSTANCE(hcrc->Instance));

  if (hcrc->State == HAL_CRC_STATE_RESET)
 8000cf2:	7943      	ldrb	r3, [r0, #5]
 8000cf4:	b11b      	cbz	r3, 8000cfe <HAL_CRC_Init+0x12>
    /* Init the low level hardware */
    HAL_CRC_MspInit(hcrc);
  }

  /* Change CRC peripheral state */
  hcrc->State = HAL_CRC_STATE_READY;
 8000cf6:	2301      	movs	r3, #1
 8000cf8:	7163      	strb	r3, [r4, #5]

  /* Return function status */
  return HAL_OK;
 8000cfa:	2000      	movs	r0, #0
}
 8000cfc:	bd10      	pop	{r4, pc}
    hcrc->Lock = HAL_UNLOCKED;
 8000cfe:	7103      	strb	r3, [r0, #4]
    HAL_CRC_MspInit(hcrc);
 8000d00:	f7ff fe10 	bl	8000924 <HAL_CRC_MspInit>
 8000d04:	e7f7      	b.n	8000cf6 <HAL_CRC_Init+0xa>
    return HAL_ERROR;
 8000d06:	2001      	movs	r0, #1
}
 8000d08:	4770      	bx	lr
	...

08000d0c <HAL_GPIO_Init>:
  assert_param(IS_GPIO_ALL_INSTANCE(GPIOx));
  assert_param(IS_GPIO_PIN(GPIO_Init->Pin));
  assert_param(IS_GPIO_MODE(GPIO_Init->Mode));

  /* Configure the port pins */
  for(position = 0U; position < GPIO_NUMBER; position++)
 8000d0c:	2300      	movs	r3, #0
 8000d0e:	2b0f      	cmp	r3, #15
 8000d10:	f200 80e9 	bhi.w	8000ee6 <HAL_GPIO_Init+0x1da>
{
 8000d14:	b570      	push	{r4, r5, r6, lr}
 8000d16:	b082      	sub	sp, #8
 8000d18:	e065      	b.n	8000de6 <HAL_GPIO_Init+0xda>
          (GPIO_Init->Mode & GPIO_MODE) == MODE_AF)
      {
        /* Check the Speed parameter */
        assert_param(IS_GPIO_SPEED(GPIO_Init->Speed));
        /* Configure the IO Speed */
        temp = GPIOx->OSPEEDR; 
 8000d1a:	6885      	ldr	r5, [r0, #8]
        temp &= ~(GPIO_OSPEEDER_OSPEEDR0 << (position * 2U));
 8000d1c:	ea4f 0e43 	mov.w	lr, r3, lsl #1
 8000d20:	2403      	movs	r4, #3
 8000d22:	fa04 f40e 	lsl.w	r4, r4, lr
 8000d26:	ea25 0504 	bic.w	r5, r5, r4
        temp |= (GPIO_Init->Speed << (position * 2U));
 8000d2a:	68cc      	ldr	r4, [r1, #12]
 8000d2c:	fa04 f40e 	lsl.w	r4, r4, lr
 8000d30:	432c      	orrs	r4, r5
        GPIOx->OSPEEDR = temp;
 8000d32:	6084      	str	r4, [r0, #8]

        /* Configure the IO Output Type */
        temp = GPIOx->OTYPER;
 8000d34:	6844      	ldr	r4, [r0, #4]
        temp &= ~(GPIO_OTYPER_OT_0 << position) ;
 8000d36:	ea24 0402 	bic.w	r4, r4, r2
        temp |= (((GPIO_Init->Mode & OUTPUT_TYPE) >> OUTPUT_TYPE_Pos) << position);
 8000d3a:	684a      	ldr	r2, [r1, #4]
 8000d3c:	f3c2 1200 	ubfx	r2, r2, #4, #1
 8000d40:	409a      	lsls	r2, r3
 8000d42:	4322      	orrs	r2, r4
        GPIOx->OTYPER = temp;
 8000d44:	6042      	str	r2, [r0, #4]
 8000d46:	e05c      	b.n	8000e02 <HAL_GPIO_Init+0xf6>
      if((GPIO_Init->Mode & GPIO_MODE) == MODE_AF)
      {
        /* Check the Alternate function parameter */
        assert_param(IS_GPIO_AF(GPIO_Init->Alternate));
        /* Configure Alternate function mapped with the current IO */
        temp = GPIOx->AFR[position >> 3U];
 8000d48:	08dc      	lsrs	r4, r3, #3
 8000d4a:	3408      	adds	r4, #8
 8000d4c:	f850 2024 	ldr.w	r2, [r0, r4, lsl #2]
        temp &= ~(0xFU << ((uint32_t)(position & 0x07U) * 4U)) ;
 8000d50:	f003 0507 	and.w	r5, r3, #7
 8000d54:	00ad      	lsls	r5, r5, #2
 8000d56:	f04f 0e0f 	mov.w	lr, #15
 8000d5a:	fa0e fe05 	lsl.w	lr, lr, r5
 8000d5e:	ea22 0e0e 	bic.w	lr, r2, lr
        temp |= ((uint32_t)(GPIO_Init->Alternate) << (((uint32_t)position & 0x07U) * 4U));
 8000d62:	690a      	ldr	r2, [r1, #16]
 8000d64:	40aa      	lsls	r2, r5
 8000d66:	ea42 020e 	orr.w	r2, r2, lr
        GPIOx->AFR[position >> 3U] = temp;
 8000d6a:	f840 2024 	str.w	r2, [r0, r4, lsl #2]
 8000d6e:	e05c      	b.n	8000e2a <HAL_GPIO_Init+0x11e>
        /* Enable SYSCFG Clock */
        __HAL_RCC_SYSCFG_CLK_ENABLE();

        temp = SYSCFG->EXTICR[position >> 2U];
        temp &= ~(0x0FU << (4U * (position & 0x03U)));
        temp |= ((uint32_t)(GPIO_GET_INDEX(GPIOx)) << (4U * (position & 0x03U)));
 8000d70:	2207      	movs	r2, #7
 8000d72:	e000      	b.n	8000d76 <HAL_GPIO_Init+0x6a>
 8000d74:	2200      	movs	r2, #0
 8000d76:	fa02 f20e 	lsl.w	r2, r2, lr
 8000d7a:	432a      	orrs	r2, r5
        SYSCFG->EXTICR[position >> 2U] = temp;
 8000d7c:	3402      	adds	r4, #2
 8000d7e:	4d5a      	ldr	r5, [pc, #360]	@ (8000ee8 <HAL_GPIO_Init+0x1dc>)
 8000d80:	f845 2024 	str.w	r2, [r5, r4, lsl #2]

        /* Clear Rising Falling edge configuration */
        temp = EXTI->RTSR;
 8000d84:	4a59      	ldr	r2, [pc, #356]	@ (8000eec <HAL_GPIO_Init+0x1e0>)
 8000d86:	6894      	ldr	r4, [r2, #8]
        temp &= ~((uint32_t)iocurrent);
 8000d88:	ea6f 020c 	mvn.w	r2, ip
 8000d8c:	ea24 050c 	bic.w	r5, r4, ip
        if((GPIO_Init->Mode & TRIGGER_RISING) != 0x00U)
 8000d90:	684e      	ldr	r6, [r1, #4]
 8000d92:	f416 1f80 	tst.w	r6, #1048576	@ 0x100000
 8000d96:	d001      	beq.n	8000d9c <HAL_GPIO_Init+0x90>
        {
          temp |= iocurrent;
 8000d98:	ea4c 0504 	orr.w	r5, ip, r4
        }
        EXTI->RTSR = temp;
 8000d9c:	4c53      	ldr	r4, [pc, #332]	@ (8000eec <HAL_GPIO_Init+0x1e0>)
 8000d9e:	60a5      	str	r5, [r4, #8]

        temp = EXTI->FTSR;
 8000da0:	68e4      	ldr	r4, [r4, #12]
        temp &= ~((uint32_t)iocurrent);
 8000da2:	ea02 0504 	and.w	r5, r2, r4
        if((GPIO_Init->Mode & TRIGGER_FALLING) != 0x00U)
 8000da6:	684e      	ldr	r6, [r1, #4]
 8000da8:	f416 1f00 	tst.w	r6, #2097152	@ 0x200000
 8000dac:	d001      	beq.n	8000db2 <HAL_GPIO_Init+0xa6>
        {
          temp |= iocurrent;
 8000dae:	ea4c 0504 	orr.w	r5, ip, r4
        }
        EXTI->FTSR = temp;
 8000db2:	4c4e      	ldr	r4, [pc, #312]	@ (8000eec <HAL_GPIO_Init+0x1e0>)
 8000db4:	60e5      	str	r5, [r4, #12]

        temp = EXTI->EMR;
 8000db6:	6864      	ldr	r4, [r4, #4]
        temp &= ~((uint32_t)iocurrent);
 8000db8:	ea02 0504 	and.w	r5, r2, r4
        if((GPIO_Init->Mode & EXTI_EVT) != 0x00U)
 8000dbc:	684e      	ldr	r6, [r1, #4]
 8000dbe:	f416 3f00 	tst.w	r6, #131072	@ 0x20000
 8000dc2:	d001      	beq.n	8000dc8 <HAL_GPIO_Init+0xbc>
        {
          temp |= iocurrent;
 8000dc4:	ea4c 0504 	orr.w	r5, ip, r4
        }
        EXTI->EMR = temp;
 8000dc8:	4c48      	ldr	r4, [pc, #288]	@ (8000eec <HAL_GPIO_Init+0x1e0>)
 8000dca:	6065      	str	r5, [r4, #4]

        /* Clear EXTI line configuration */
        temp = EXTI->IMR;
 8000dcc:	6824      	ldr	r4, [r4, #0]
        temp &= ~((uint32_t)iocurrent);
 8000dce:	4022      	ands	r2, r4
        if((GPIO_Init->Mode & EXTI_IT) != 0x00U)
 8000dd0:	684d      	ldr	r5, [r1, #4]
 8000dd2:	f415 3f80 	tst.w	r5, #65536	@ 0x10000
 8000dd6:	d001      	beq.n	8000ddc <HAL_GPIO_Init+0xd0>
        {
          temp |= iocurrent;
 8000dd8:	ea4c 0204 	orr.w	r2, ip, r4
        }
        EXTI->IMR = temp;
 8000ddc:	4c43      	ldr	r4, [pc, #268]	@ (8000eec <HAL_GPIO_Init+0x1e0>)
 8000dde:	6022      	str	r2, [r4, #0]
  for(position = 0U; position < GPIO_NUMBER; position++)
 8000de0:	3301      	adds	r3, #1
 8000de2:	2b0f      	cmp	r3, #15
 8000de4:	d87d      	bhi.n	8000ee2 <HAL_GPIO_Init+0x1d6>
    ioposition = 0x01U << position;
 8000de6:	2201      	movs	r2, #1
 8000de8:	409a      	lsls	r2, r3
    iocurrent = (uint32_t)(GPIO_Init->Pin) & ioposition;
 8000dea:	680c      	ldr	r4, [r1, #0]
 8000dec:	ea04 0c02 	and.w	ip, r4, r2
    if(iocurrent == ioposition)
 8000df0:	ea32 0404 	bics.w	r4, r2, r4
 8000df4:	d1f4      	bne.n	8000de0 <HAL_GPIO_Init+0xd4>
      if(((GPIO_Init->Mode & GPIO_MODE) == MODE_OUTPUT) || \
 8000df6:	684c      	ldr	r4, [r1, #4]
 8000df8:	f004 0403 	and.w	r4, r4, #3
 8000dfc:	3c01      	subs	r4, #1
 8000dfe:	2c01      	cmp	r4, #1
 8000e00:	d98b      	bls.n	8000d1a <HAL_GPIO_Init+0xe>
      if((GPIO_Init->Mode & GPIO_MODE) != MODE_ANALOG)
 8000e02:	684a      	ldr	r2, [r1, #4]
 8000e04:	f002 0203 	and.w	r2, r2, #3
 8000e08:	2a03      	cmp	r2, #3
 8000e0a:	d009      	beq.n	8000e20 <HAL_GPIO_Init+0x114>
        temp = GPIOx->PUPDR;
 8000e0c:	68c4      	ldr	r4, [r0, #12]
        temp &= ~(GPIO_PUPDR_PUPDR0 << (position * 2U));
 8000e0e:	005d      	lsls	r5, r3, #1
 8000e10:	2203      	movs	r2, #3
 8000e12:	40aa      	lsls	r2, r5
 8000e14:	ea24 0402 	bic.w	r4, r4, r2
        temp |= ((GPIO_Init->Pull) << (position * 2U));
 8000e18:	688a      	ldr	r2, [r1, #8]
 8000e1a:	40aa      	lsls	r2, r5
 8000e1c:	4322      	orrs	r2, r4
        GPIOx->PUPDR = temp;
 8000e1e:	60c2      	str	r2, [r0, #12]
      if((GPIO_Init->Mode & GPIO_MODE) == MODE_AF)
 8000e20:	684a      	ldr	r2, [r1, #4]
 8000e22:	f002 0203 	and.w	r2, r2, #3
 8000e26:	2a02      	cmp	r2, #2
 8000e28:	d08e      	beq.n	8000d48 <HAL_GPIO_Init+0x3c>
      temp = GPIOx->MODER;
 8000e2a:	6804      	ldr	r4, [r0, #0]
      temp &= ~(GPIO_MODER_MODER0 << (position * 2U));
 8000e2c:	ea4f 0e43 	mov.w	lr, r3, lsl #1
 8000e30:	2203      	movs	r2, #3
 8000e32:	fa02 f20e 	lsl.w	r2, r2, lr
 8000e36:	ea24 0402 	bic.w	r4, r4, r2
      temp |= ((GPIO_Init->Mode & GPIO_MODE) << (position * 2U));
 8000e3a:	684a      	ldr	r2, [r1, #4]
 8000e3c:	f002 0203 	and.w	r2, r2, #3
 8000e40:	fa02 f20e 	lsl.w	r2, r2, lr
 8000e44:	4322      	orrs	r2, r4
      GPIOx->MODER = temp;
 8000e46:	6002      	str	r2, [r0, #0]
      if((GPIO_Init->Mode & EXTI_MODE) != 0x00U)
 8000e48:	684a      	ldr	r2, [r1, #4]
 8000e4a:	f412 3f40 	tst.w	r2, #196608	@ 0x30000
 8000e4e:	d0c7      	beq.n	8000de0 <HAL_GPIO_Init+0xd4>
        __HAL_RCC_SYSCFG_CLK_ENABLE();
 8000e50:	2200      	movs	r2, #0
 8000e52:	9201      	str	r2, [sp, #4]
 8000e54:	4a26      	ldr	r2, [pc, #152]	@ (8000ef0 <HAL_GPIO_Init+0x1e4>)
 8000e56:	6c54      	ldr	r4, [r2, #68]	@ 0x44
 8000e58:	f444 4480 	orr.w	r4, r4, #16384	@ 0x4000
 8000e5c:	6454      	str	r4, [r2, #68]	@ 0x44
 8000e5e:	6c52      	ldr	r2, [r2, #68]	@ 0x44
 8000e60:	f402 4280 	and.w	r2, r2, #16384	@ 0x4000
 8000e64:	9201      	str	r2, [sp, #4]
 8000e66:	9a01      	ldr	r2, [sp, #4]
        temp = SYSCFG->EXTICR[position >> 2U];
 8000e68:	089c      	lsrs	r4, r3, #2
 8000e6a:	1ca5      	adds	r5, r4, #2
 8000e6c:	4a1e      	ldr	r2, [pc, #120]	@ (8000ee8 <HAL_GPIO_Init+0x1dc>)
 8000e6e:	f852 5025 	ldr.w	r5, [r2, r5, lsl #2]
        temp &= ~(0x0FU << (4U * (position & 0x03U)));
 8000e72:	f003 0e03 	and.w	lr, r3, #3
 8000e76:	ea4f 0e8e 	mov.w	lr, lr, lsl #2
 8000e7a:	220f      	movs	r2, #15
 8000e7c:	fa02 f20e 	lsl.w	r2, r2, lr
 8000e80:	ea25 0502 	bic.w	r5, r5, r2
        temp |= ((uint32_t)(GPIO_GET_INDEX(GPIOx)) << (4U * (position & 0x03U)));
 8000e84:	4a1b      	ldr	r2, [pc, #108]	@ (8000ef4 <HAL_GPIO_Init+0x1e8>)
 8000e86:	4290      	cmp	r0, r2
 8000e88:	f43f af74 	beq.w	8000d74 <HAL_GPIO_Init+0x68>
 8000e8c:	f502 6280 	add.w	r2, r2, #1024	@ 0x400
 8000e90:	4290      	cmp	r0, r2
 8000e92:	d01a      	beq.n	8000eca <HAL_GPIO_Init+0x1be>
 8000e94:	f502 6280 	add.w	r2, r2, #1024	@ 0x400
 8000e98:	4290      	cmp	r0, r2
 8000e9a:	d018      	beq.n	8000ece <HAL_GPIO_Init+0x1c2>
 8000e9c:	f502 6280 	add.w	r2, r2, #1024	@ 0x400
 8000ea0:	4290      	cmp	r0, r2
 8000ea2:	d016      	beq.n	8000ed2 <HAL_GPIO_Init+0x1c6>
 8000ea4:	f502 6280 	add.w	r2, r2, #1024	@ 0x400
 8000ea8:	4290      	cmp	r0, r2
 8000eaa:	d014      	beq.n	8000ed6 <HAL_GPIO_Init+0x1ca>
 8000eac:	f502 6280 	add.w	r2, r2, #1024	@ 0x400
 8000eb0:	4290      	cmp	r0, r2
 8000eb2:	d012      	beq.n	8000eda <HAL_GPIO_Init+0x1ce>
 8000eb4:	f502 6280 	add.w	r2, r2, #1024	@ 0x400
 8000eb8:	4290      	cmp	r0, r2
 8000eba:	d010      	beq.n	8000ede <HAL_GPIO_Init+0x1d2>
 8000ebc:	f502 6280 	add.w	r2, r2, #1024	@ 0x400
 8000ec0:	4290      	cmp	r0, r2
 8000ec2:	f43f af55 	beq.w	8000d70 <HAL_GPIO_Init+0x64>
 8000ec6:	2208      	movs	r2, #8
 8000ec8:	e755      	b.n	8000d76 <HAL_GPIO_Init+0x6a>
 8000eca:	2201      	movs	r2, #1
 8000ecc:	e753      	b.n	8000d76 <HAL_GPIO_Init+0x6a>
 8000ece:	2202      	movs	r2, #2
 8000ed0:	e751      	b.n	8000d76 <HAL_GPIO_Init+0x6a>
 8000ed2:	2203      	movs	r2, #3
 8000ed4:	e74f      	b.n	8000d76 <HAL_GPIO_Init+0x6a>
 8000ed6:	2204      	movs	r2, #4
 8000ed8:	e74d      	b.n	8000d76 <HAL_GPIO_Init+0x6a>
 8000eda:	2205      	movs	r2, #5
 8000edc:	e74b      	b.n	8000d76 <HAL_GPIO_Init+0x6a>
 8000ede:	2206      	movs	r2, #6
 8000ee0:	e749      	b.n	8000d76 <HAL_GPIO_Init+0x6a>
      }
    }
  }
}
 8000ee2:	b002      	add	sp, #8
 8000ee4:	bd70      	pop	{r4, r5, r6, pc}
 8000ee6:	4770      	bx	lr
 8000ee8:	40013800 	.word	0x40013800
 8000eec:	40013c00 	.word	0x40013c00
 8000ef0:	40023800 	.word	0x40023800
 8000ef4:	40020000 	.word	0x40020000

08000ef8 <HAL_GPIO_WritePin>:
{
  /* Check the parameters */
  assert_param(IS_GPIO_PIN(GPIO_Pin));
  assert_param(IS_GPIO_PIN_ACTION(PinState));

  if(PinState != GPIO_PIN_RESET)
 8000ef8:	b10a      	cbz	r2, 8000efe <HAL_GPIO_WritePin+0x6>
  {
    GPIOx->BSRR = GPIO_Pin;
 8000efa:	6181      	str	r1, [r0, #24]
 8000efc:	4770      	bx	lr
  }
  else
  {
    GPIOx->BSRR = (uint32_t)GPIO_Pin << 16U;
 8000efe:	0409      	lsls	r1, r1, #16
 8000f00:	6181      	str	r1, [r0, #24]
  }
}
 8000f02:	4770      	bx	lr

08000f04 <HAL_GPIO_TogglePin>:

  /* Check the parameters */
  assert_param(IS_GPIO_PIN(GPIO_Pin));

  /* get current Output Data Register value */
  odr = GPIOx->ODR;
 8000f04:	6943      	ldr	r3, [r0, #20]

  /* Set selected pins that were at low level, and reset ones that were high */
  GPIOx->BSRR = ((odr & GPIO_Pin) << GPIO_NUMBER) | (~odr & GPIO_Pin);
 8000f06:	ea01 0203 	and.w	r2, r1, r3
 8000f0a:	ea21 0103 	bic.w	r1, r1, r3
 8000f0e:	ea41 4102 	orr.w	r1, r1, r2, lsl #16
 8000f12:	6181      	str	r1, [r0, #24]
}
 8000f14:	4770      	bx	lr
	...

08000f18 <HAL_RCC_OscConfig>:
__weak HAL_StatusTypeDef HAL_RCC_OscConfig(const RCC_OscInitTypeDef  *RCC_OscInitStruct)
{
  uint32_t tickstart;
  uint32_t pll_config;
  /* Check Null pointer */
  if (RCC_OscInitStruct == NULL)
 8000f18:	2800      	cmp	r0, #0
 8000f1a:	f000 81e0 	beq.w	80012de <HAL_RCC_OscConfig+0x3c6>
{
 8000f1e:	b570      	push	{r4, r5, r6, lr}
 8000f20:	b082      	sub	sp, #8
 8000f22:	4604      	mov	r4, r0
  }

  /* Check the parameters */
  assert_param(IS_RCC_OSCILLATORTYPE(RCC_OscInitStruct->OscillatorType));
  /*------------------------------- HSE Configuration ------------------------*/
  if (((RCC_OscInitStruct->OscillatorType) & RCC_OSCILLATORTYPE_HSE) == RCC_OSCILLATORTYPE_HSE)
 8000f24:	6803      	ldr	r3, [r0, #0]
 8000f26:	f013 0f01 	tst.w	r3, #1
 8000f2a:	d03b      	beq.n	8000fa4 <HAL_RCC_OscConfig+0x8c>
  {
    /* Check the parameters */
    assert_param(IS_RCC_HSE(RCC_OscInitStruct->HSEState));
    /* When the HSE is used as system clock or clock source for PLL in these cases HSE will not disabled */
    if ((__HAL_RCC_GET_SYSCLK_SOURCE() == RCC_CFGR_SWS_HSE) || \
 8000f2c:	4b9f      	ldr	r3, [pc, #636]	@ (80011ac <HAL_RCC_OscConfig+0x294>)
 8000f2e:	689b      	ldr	r3, [r3, #8]
 8000f30:	f003 030c 	and.w	r3, r3, #12
 8000f34:	2b04      	cmp	r3, #4
 8000f36:	d02c      	beq.n	8000f92 <HAL_RCC_OscConfig+0x7a>
        ((__HAL_RCC_GET_SYSCLK_SOURCE() == RCC_CFGR_SWS_PLL) && ((RCC->PLLCFGR & RCC_PLLCFGR_PLLSRC) == RCC_PLLCFGR_PLLSRC_HSE)))
 8000f38:	4b9c      	ldr	r3, [pc, #624]	@ (80011ac <HAL_RCC_OscConfig+0x294>)
 8000f3a:	689b      	ldr	r3, [r3, #8]
 8000f3c:	f003 030c 	and.w	r3, r3, #12
    if ((__HAL_RCC_GET_SYSCLK_SOURCE() == RCC_CFGR_SWS_HSE) || \
 8000f40:	2b08      	cmp	r3, #8
 8000f42:	d021      	beq.n	8000f88 <HAL_RCC_OscConfig+0x70>
      }
    }
    else
    {
      /* Set the new HSE configuration ---------------------------------------*/
      __HAL_RCC_HSE_CONFIG(RCC_OscInitStruct->HSEState);
 8000f44:	6863      	ldr	r3, [r4, #4]
 8000f46:	f5b3 3f80 	cmp.w	r3, #65536	@ 0x10000
 8000f4a:	d04f      	beq.n	8000fec <HAL_RCC_OscConfig+0xd4>
 8000f4c:	f5b3 2fa0 	cmp.w	r3, #327680	@ 0x50000
 8000f50:	d052      	beq.n	8000ff8 <HAL_RCC_OscConfig+0xe0>
 8000f52:	4b96      	ldr	r3, [pc, #600]	@ (80011ac <HAL_RCC_OscConfig+0x294>)
 8000f54:	681a      	ldr	r2, [r3, #0]
 8000f56:	f422 3280 	bic.w	r2, r2, #65536	@ 0x10000
 8000f5a:	601a      	str	r2, [r3, #0]
 8000f5c:	681a      	ldr	r2, [r3, #0]
 8000f5e:	f422 2280 	bic.w	r2, r2, #262144	@ 0x40000
 8000f62:	601a      	str	r2, [r3, #0]

      /* Check the HSE State */
      if ((RCC_OscInitStruct->HSEState) != RCC_HSE_OFF)
 8000f64:	6863      	ldr	r3, [r4, #4]
 8000f66:	2b00      	cmp	r3, #0
 8000f68:	d050      	beq.n	800100c <HAL_RCC_OscConfig+0xf4>
      {
        /* Get Start Tick */
        tickstart = HAL_GetTick();
 8000f6a:	f7ff fe3d 	bl	8000be8 <HAL_GetTick>
 8000f6e:	4605      	mov	r5, r0

        /* Wait till HSE is ready */
        while (__HAL_RCC_GET_FLAG(RCC_FLAG_HSERDY) == RESET)
 8000f70:	4b8e      	ldr	r3, [pc, #568]	@ (80011ac <HAL_RCC_OscConfig+0x294>)
 8000f72:	681b      	ldr	r3, [r3, #0]
 8000f74:	f413 3f00 	tst.w	r3, #131072	@ 0x20000
 8000f78:	d114      	bne.n	8000fa4 <HAL_RCC_OscConfig+0x8c>
        {
          if ((HAL_GetTick() - tickstart) > HSE_TIMEOUT_VALUE)
 8000f7a:	f7ff fe35 	bl	8000be8 <HAL_GetTick>
 8000f7e:	1b40      	subs	r0, r0, r5
 8000f80:	2864      	cmp	r0, #100	@ 0x64
 8000f82:	d9f5      	bls.n	8000f70 <HAL_RCC_OscConfig+0x58>
          {
            return HAL_TIMEOUT;
 8000f84:	2003      	movs	r0, #3
 8000f86:	e1b1      	b.n	80012ec <HAL_RCC_OscConfig+0x3d4>
        ((__HAL_RCC_GET_SYSCLK_SOURCE() == RCC_CFGR_SWS_PLL) && ((RCC->PLLCFGR & RCC_PLLCFGR_PLLSRC) == RCC_PLLCFGR_PLLSRC_HSE)))
 8000f88:	4b88      	ldr	r3, [pc, #544]	@ (80011ac <HAL_RCC_OscConfig+0x294>)
 8000f8a:	685b      	ldr	r3, [r3, #4]
 8000f8c:	f413 0f80 	tst.w	r3, #4194304	@ 0x400000
 8000f90:	d0d8      	beq.n	8000f44 <HAL_RCC_OscConfig+0x2c>
      if ((__HAL_RCC_GET_FLAG(RCC_FLAG_HSERDY) != RESET) && (RCC_OscInitStruct->HSEState == RCC_HSE_OFF))
 8000f92:	4b86      	ldr	r3, [pc, #536]	@ (80011ac <HAL_RCC_OscConfig+0x294>)
 8000f94:	681b      	ldr	r3, [r3, #0]
 8000f96:	f413 3f00 	tst.w	r3, #131072	@ 0x20000
 8000f9a:	d003      	beq.n	8000fa4 <HAL_RCC_OscConfig+0x8c>
 8000f9c:	6863      	ldr	r3, [r4, #4]
 8000f9e:	2b00      	cmp	r3, #0
 8000fa0:	f000 819f 	beq.w	80012e2 <HAL_RCC_OscConfig+0x3ca>
        }
      }
    }
  }
  /*----------------------------- HSI Configuration --------------------------*/
  if (((RCC_OscInitStruct->OscillatorType) & RCC_OSCILLATORTYPE_HSI) == RCC_OSCILLATORTYPE_HSI)
 8000fa4:	6823      	ldr	r3, [r4, #0]
 8000fa6:	f013 0f02 	tst.w	r3, #2
 8000faa:	d054      	beq.n	8001056 <HAL_RCC_OscConfig+0x13e>
    /* Check the parameters */
    assert_param(IS_RCC_HSI(RCC_OscInitStruct->HSIState));
    assert_param(IS_RCC_CALIBRATION_VALUE(RCC_OscInitStruct->HSICalibrationValue));

    /* Check if HSI is used as system clock or as PLL source when PLL is selected as system clock */
    if ((__HAL_RCC_GET_SYSCLK_SOURCE() == RCC_CFGR_SWS_HSI) || \
 8000fac:	4b7f      	ldr	r3, [pc, #508]	@ (80011ac <HAL_RCC_OscConfig+0x294>)
 8000fae:	689b      	ldr	r3, [r3, #8]
 8000fb0:	f013 0f0c 	tst.w	r3, #12
 8000fb4:	d03e      	beq.n	8001034 <HAL_RCC_OscConfig+0x11c>
        ((__HAL_RCC_GET_SYSCLK_SOURCE() == RCC_CFGR_SWS_PLL) && ((RCC->PLLCFGR & RCC_PLLCFGR_PLLSRC) == RCC_PLLCFGR_PLLSRC_HSI)))
 8000fb6:	4b7d      	ldr	r3, [pc, #500]	@ (80011ac <HAL_RCC_OscConfig+0x294>)
 8000fb8:	689b      	ldr	r3, [r3, #8]
 8000fba:	f003 030c 	and.w	r3, r3, #12
    if ((__HAL_RCC_GET_SYSCLK_SOURCE() == RCC_CFGR_SWS_HSI) || \
 8000fbe:	2b08      	cmp	r3, #8
 8000fc0:	d033      	beq.n	800102a <HAL_RCC_OscConfig+0x112>
      }
    }
    else
    {
      /* Check the HSI State */
      if ((RCC_OscInitStruct->HSIState) != RCC_HSI_OFF)
 8000fc2:	68e3      	ldr	r3, [r4, #12]
 8000fc4:	2b00      	cmp	r3, #0
 8000fc6:	d068      	beq.n	800109a <HAL_RCC_OscConfig+0x182>
      {
        /* Enable the Internal High Speed oscillator (HSI). */
        __HAL_RCC_HSI_ENABLE();
 8000fc8:	4b79      	ldr	r3, [pc, #484]	@ (80011b0 <HAL_RCC_OscConfig+0x298>)
 8000fca:	2201      	movs	r2, #1
 8000fcc:	601a      	str	r2, [r3, #0]

        /* Get Start Tick*/
        tickstart = HAL_GetTick();
 8000fce:	f7ff fe0b 	bl	8000be8 <HAL_GetTick>
 8000fd2:	4605      	mov	r5, r0

        /* Wait till HSI is ready */
        while (__HAL_RCC_GET_FLAG(RCC_FLAG_HSIRDY) == RESET)
 8000fd4:	4b75      	ldr	r3, [pc, #468]	@ (80011ac <HAL_RCC_OscConfig+0x294>)
 8000fd6:	681b      	ldr	r3, [r3, #0]
 8000fd8:	f013 0f02 	tst.w	r3, #2
 8000fdc:	d154      	bne.n	8001088 <HAL_RCC_OscConfig+0x170>
        {
          if ((HAL_GetTick() - tickstart) > HSI_TIMEOUT_VALUE)
 8000fde:	f7ff fe03 	bl	8000be8 <HAL_GetTick>
 8000fe2:	1b40      	subs	r0, r0, r5
 8000fe4:	2802      	cmp	r0, #2
 8000fe6:	d9f5      	bls.n	8000fd4 <HAL_RCC_OscConfig+0xbc>
          {
            return HAL_TIMEOUT;
 8000fe8:	2003      	movs	r0, #3
 8000fea:	e17f      	b.n	80012ec <HAL_RCC_OscConfig+0x3d4>
      __HAL_RCC_HSE_CONFIG(RCC_OscInitStruct->HSEState);
 8000fec:	4a6f      	ldr	r2, [pc, #444]	@ (80011ac <HAL_RCC_OscConfig+0x294>)
 8000fee:	6813      	ldr	r3, [r2, #0]
 8000ff0:	f443 3380 	orr.w	r3, r3, #65536	@ 0x10000
 8000ff4:	6013      	str	r3, [r2, #0]
 8000ff6:	e7b5      	b.n	8000f64 <HAL_RCC_OscConfig+0x4c>
 8000ff8:	4b6c      	ldr	r3, [pc, #432]	@ (80011ac <HAL_RCC_OscConfig+0x294>)
 8000ffa:	681a      	ldr	r2, [r3, #0]
 8000ffc:	f442 2280 	orr.w	r2, r2, #262144	@ 0x40000
 8001000:	601a      	str	r2, [r3, #0]
 8001002:	681a      	ldr	r2, [r3, #0]
 8001004:	f442 3280 	orr.w	r2, r2, #65536	@ 0x10000
 8001008:	601a      	str	r2, [r3, #0]
 800100a:	e7ab      	b.n	8000f64 <HAL_RCC_OscConfig+0x4c>
        tickstart = HAL_GetTick();
 800100c:	f7ff fdec 	bl	8000be8 <HAL_GetTick>
 8001010:	4605      	mov	r5, r0
        while (__HAL_RCC_GET_FLAG(RCC_FLAG_HSERDY) != RESET)
 8001012:	4b66      	ldr	r3, [pc, #408]	@ (80011ac <HAL_RCC_OscConfig+0x294>)
 8001014:	681b      	ldr	r3, [r3, #0]
 8001016:	f413 3f00 	tst.w	r3, #131072	@ 0x20000
 800101a:	d0c3      	beq.n	8000fa4 <HAL_RCC_OscConfig+0x8c>
          if ((HAL_GetTick() - tickstart) > HSE_TIMEOUT_VALUE)
 800101c:	f7ff fde4 	bl	8000be8 <HAL_GetTick>
 8001020:	1b40      	subs	r0, r0, r5
 8001022:	2864      	cmp	r0, #100	@ 0x64
 8001024:	d9f5      	bls.n	8001012 <HAL_RCC_OscConfig+0xfa>
            return HAL_TIMEOUT;
 8001026:	2003      	movs	r0, #3
 8001028:	e160      	b.n	80012ec <HAL_RCC_OscConfig+0x3d4>
        ((__HAL_RCC_GET_SYSCLK_SOURCE() == RCC_CFGR_SWS_PLL) && ((RCC->PLLCFGR & RCC_PLLCFGR_PLLSRC) == RCC_PLLCFGR_PLLSRC_HSI)))
 800102a:	4b60      	ldr	r3, [pc, #384]	@ (80011ac <HAL_RCC_OscConfig+0x294>)
 800102c:	685b      	ldr	r3, [r3, #4]
 800102e:	f413 0f80 	tst.w	r3, #4194304	@ 0x400000
 8001032:	d1c6      	bne.n	8000fc2 <HAL_RCC_OscConfig+0xaa>
      if ((__HAL_RCC_GET_FLAG(RCC_FLAG_HSIRDY) != RESET) && (RCC_OscInitStruct->HSIState != RCC_HSI_ON))
 8001034:	4b5d      	ldr	r3, [pc, #372]	@ (80011ac <HAL_RCC_OscConfig+0x294>)
 8001036:	681b      	ldr	r3, [r3, #0]
 8001038:	f013 0f02 	tst.w	r3, #2
 800103c:	d003      	beq.n	8001046 <HAL_RCC_OscConfig+0x12e>
 800103e:	68e3      	ldr	r3, [r4, #12]
 8001040:	2b01      	cmp	r3, #1
 8001042:	f040 8150 	bne.w	80012e6 <HAL_RCC_OscConfig+0x3ce>
        __HAL_RCC_HSI_CALIBRATIONVALUE_ADJUST(RCC_OscInitStruct->HSICalibrationValue);
 8001046:	4a59      	ldr	r2, [pc, #356]	@ (80011ac <HAL_RCC_OscConfig+0x294>)
 8001048:	6813      	ldr	r3, [r2, #0]
 800104a:	f023 03f8 	bic.w	r3, r3, #248	@ 0xf8
 800104e:	6921      	ldr	r1, [r4, #16]
 8001050:	ea43 03c1 	orr.w	r3, r3, r1, lsl #3
 8001054:	6013      	str	r3, [r2, #0]
        }
      }
    }
  }
  /*------------------------------ LSI Configuration -------------------------*/
  if (((RCC_OscInitStruct->OscillatorType) & RCC_OSCILLATORTYPE_LSI) == RCC_OSCILLATORTYPE_LSI)
 8001056:	6823      	ldr	r3, [r4, #0]
 8001058:	f013 0f08 	tst.w	r3, #8
 800105c:	d042      	beq.n	80010e4 <HAL_RCC_OscConfig+0x1cc>
  {
    /* Check the parameters */
    assert_param(IS_RCC_LSI(RCC_OscInitStruct->LSIState));

    /* Check the LSI State */
    if ((RCC_OscInitStruct->LSIState) != RCC_LSI_OFF)
 800105e:	6963      	ldr	r3, [r4, #20]
 8001060:	b36b      	cbz	r3, 80010be <HAL_RCC_OscConfig+0x1a6>
    {
      /* Enable the Internal Low Speed oscillator (LSI). */
      __HAL_RCC_LSI_ENABLE();
 8001062:	4b53      	ldr	r3, [pc, #332]	@ (80011b0 <HAL_RCC_OscConfig+0x298>)
 8001064:	2201      	movs	r2, #1
 8001066:	f8c3 2e80 	str.w	r2, [r3, #3712]	@ 0xe80

      /* Get Start Tick*/
      tickstart = HAL_GetTick();
 800106a:	f7ff fdbd 	bl	8000be8 <HAL_GetTick>
 800106e:	4605      	mov	r5, r0

      /* Wait till LSI is ready */
      while (__HAL_RCC_GET_FLAG(RCC_FLAG_LSIRDY) == RESET)
 8001070:	4b4e      	ldr	r3, [pc, #312]	@ (80011ac <HAL_RCC_OscConfig+0x294>)
 8001072:	6f5b      	ldr	r3, [r3, #116]	@ 0x74
 8001074:	f013 0f02 	tst.w	r3, #2
 8001078:	d134      	bne.n	80010e4 <HAL_RCC_OscConfig+0x1cc>
      {
        if ((HAL_GetTick() - tickstart) > LSI_TIMEOUT_VALUE)
 800107a:	f7ff fdb5 	bl	8000be8 <HAL_GetTick>
 800107e:	1b40      	subs	r0, r0, r5
 8001080:	2802      	cmp	r0, #2
 8001082:	d9f5      	bls.n	8001070 <HAL_RCC_OscConfig+0x158>
        {
          return HAL_TIMEOUT;
 8001084:	2003      	movs	r0, #3
 8001086:	e131      	b.n	80012ec <HAL_RCC_OscConfig+0x3d4>
        __HAL_RCC_HSI_CALIBRATIONVALUE_ADJUST(RCC_OscInitStruct->HSICalibrationValue);
 8001088:	4a48      	ldr	r2, [pc, #288]	@ (80011ac <HAL_RCC_OscConfig+0x294>)
 800108a:	6813      	ldr	r3, [r2, #0]
 800108c:	f023 03f8 	bic.w	r3, r3, #248	@ 0xf8
 8001090:	6921      	ldr	r1, [r4, #16]
 8001092:	ea43 03c1 	orr.w	r3, r3, r1, lsl #3
 8001096:	6013      	str	r3, [r2, #0]
 8001098:	e7dd      	b.n	8001056 <HAL_RCC_OscConfig+0x13e>
        __HAL_RCC_HSI_DISABLE();
 800109a:	4b45      	ldr	r3, [pc, #276]	@ (80011b0 <HAL_RCC_OscConfig+0x298>)
 800109c:	2200      	movs	r2, #0
 800109e:	601a      	str	r2, [r3, #0]
        tickstart = HAL_GetTick();
 80010a0:	f7ff fda2 	bl	8000be8 <HAL_GetTick>
 80010a4:	4605      	mov	r5, r0
        while (__HAL_RCC_GET_FLAG(RCC_FLAG_HSIRDY) != RESET)
 80010a6:	4b41      	ldr	r3, [pc, #260]	@ (80011ac <HAL_RCC_OscConfig+0x294>)
 80010a8:	681b      	ldr	r3, [r3, #0]
 80010aa:	f013 0f02 	tst.w	r3, #2
 80010ae:	d0d2      	beq.n	8001056 <HAL_RCC_OscConfig+0x13e>
          if ((HAL_GetTick() - tickstart) > HSI_TIMEOUT_VALUE)
 80010b0:	f7ff fd9a 	bl	8000be8 <HAL_GetTick>
 80010b4:	1b40      	subs	r0, r0, r5
 80010b6:	2802      	cmp	r0, #2
 80010b8:	d9f5      	bls.n	80010a6 <HAL_RCC_OscConfig+0x18e>
            return HAL_TIMEOUT;
 80010ba:	2003      	movs	r0, #3
 80010bc:	e116      	b.n	80012ec <HAL_RCC_OscConfig+0x3d4>
      }
    }
    else
    {
      /* Disable the Internal Low Speed oscillator (LSI). */
      __HAL_RCC_LSI_DISABLE();
 80010be:	4b3c      	ldr	r3, [pc, #240]	@ (80011b0 <HAL_RCC_OscConfig+0x298>)
 80010c0:	2200      	movs	r2, #0
 80010c2:	f8c3 2e80 	str.w	r2, [r3, #3712]	@ 0xe80

      /* Get Start Tick */
      tickstart = HAL_GetTick();
 80010c6:	f7ff fd8f 	bl	8000be8 <HAL_GetTick>
 80010ca:	4605      	mov	r5, r0

      /* Wait till LSI is ready */
      while (__HAL_RCC_GET_FLAG(RCC_FLAG_LSIRDY) != RESET)
 80010cc:	4b37      	ldr	r3, [pc, #220]	@ (80011ac <HAL_RCC_OscConfig+0x294>)
 80010ce:	6f5b      	ldr	r3, [r3, #116]	@ 0x74
 80010d0:	f013 0f02 	tst.w	r3, #2
 80010d4:	d006      	beq.n	80010e4 <HAL_RCC_OscConfig+0x1cc>
      {
        if ((HAL_GetTick() - tickstart) > LSI_TIMEOUT_VALUE)
 80010d6:	f7ff fd87 	bl	8000be8 <HAL_GetTick>
 80010da:	1b40      	subs	r0, r0, r5
 80010dc:	2802      	cmp	r0, #2
 80010de:	d9f5      	bls.n	80010cc <HAL_RCC_OscConfig+0x1b4>
        {
          return HAL_TIMEOUT;
 80010e0:	2003      	movs	r0, #3
 80010e2:	e103      	b.n	80012ec <HAL_RCC_OscConfig+0x3d4>
        }
      }
    }
  }
  /*------------------------------ LSE Configuration -------------------------*/
  if (((RCC_OscInitStruct->OscillatorType) & RCC_OSCILLATORTYPE_LSE) == RCC_OSCILLATORTYPE_LSE)
 80010e4:	6823      	ldr	r3, [r4, #0]
 80010e6:	f013 0f04 	tst.w	r3, #4
 80010ea:	d077      	beq.n	80011dc <HAL_RCC_OscConfig+0x2c4>
    /* Check the parameters */
    assert_param(IS_RCC_LSE(RCC_OscInitStruct->LSEState));

    /* Update LSE configuration in Backup Domain control register    */
    /* Requires to enable write access to Backup Domain of necessary */
    if (__HAL_RCC_PWR_IS_CLK_DISABLED())
 80010ec:	4b2f      	ldr	r3, [pc, #188]	@ (80011ac <HAL_RCC_OscConfig+0x294>)
 80010ee:	6c1b      	ldr	r3, [r3, #64]	@ 0x40
 80010f0:	f013 5f80 	tst.w	r3, #268435456	@ 0x10000000
 80010f4:	d133      	bne.n	800115e <HAL_RCC_OscConfig+0x246>
    {
      __HAL_RCC_PWR_CLK_ENABLE();
 80010f6:	2300      	movs	r3, #0
 80010f8:	9301      	str	r3, [sp, #4]
 80010fa:	4b2c      	ldr	r3, [pc, #176]	@ (80011ac <HAL_RCC_OscConfig+0x294>)
 80010fc:	6c1a      	ldr	r2, [r3, #64]	@ 0x40
 80010fe:	f042 5280 	orr.w	r2, r2, #268435456	@ 0x10000000
 8001102:	641a      	str	r2, [r3, #64]	@ 0x40
 8001104:	6c1b      	ldr	r3, [r3, #64]	@ 0x40
 8001106:	f003 5380 	and.w	r3, r3, #268435456	@ 0x10000000
 800110a:	9301      	str	r3, [sp, #4]
 800110c:	9b01      	ldr	r3, [sp, #4]
      pwrclkchanged = SET;
 800110e:	2501      	movs	r5, #1
    }

    if (HAL_IS_BIT_CLR(PWR->CR, PWR_CR_DBP))
 8001110:	4b28      	ldr	r3, [pc, #160]	@ (80011b4 <HAL_RCC_OscConfig+0x29c>)
 8001112:	681b      	ldr	r3, [r3, #0]
 8001114:	f413 7f80 	tst.w	r3, #256	@ 0x100
 8001118:	d023      	beq.n	8001162 <HAL_RCC_OscConfig+0x24a>
        }
      }
    }

    /* Set the new LSE configuration -----------------------------------------*/
    __HAL_RCC_LSE_CONFIG(RCC_OscInitStruct->LSEState);
 800111a:	68a3      	ldr	r3, [r4, #8]
 800111c:	2b01      	cmp	r3, #1
 800111e:	d034      	beq.n	800118a <HAL_RCC_OscConfig+0x272>
 8001120:	2b05      	cmp	r3, #5
 8001122:	d038      	beq.n	8001196 <HAL_RCC_OscConfig+0x27e>
 8001124:	4b21      	ldr	r3, [pc, #132]	@ (80011ac <HAL_RCC_OscConfig+0x294>)
 8001126:	6f1a      	ldr	r2, [r3, #112]	@ 0x70
 8001128:	f022 0201 	bic.w	r2, r2, #1
 800112c:	671a      	str	r2, [r3, #112]	@ 0x70
 800112e:	6f1a      	ldr	r2, [r3, #112]	@ 0x70
 8001130:	f022 0204 	bic.w	r2, r2, #4
 8001134:	671a      	str	r2, [r3, #112]	@ 0x70
    /* Check the LSE State */
    if ((RCC_OscInitStruct->LSEState) != RCC_LSE_OFF)
 8001136:	68a3      	ldr	r3, [r4, #8]
 8001138:	2b00      	cmp	r3, #0
 800113a:	d03d      	beq.n	80011b8 <HAL_RCC_OscConfig+0x2a0>
    {
      /* Get Start Tick*/
      tickstart = HAL_GetTick();
 800113c:	f7ff fd54 	bl	8000be8 <HAL_GetTick>
 8001140:	4606      	mov	r6, r0

      /* Wait till LSE is ready */
      while (__HAL_RCC_GET_FLAG(RCC_FLAG_LSERDY) == RESET)
 8001142:	4b1a      	ldr	r3, [pc, #104]	@ (80011ac <HAL_RCC_OscConfig+0x294>)
 8001144:	6f1b      	ldr	r3, [r3, #112]	@ 0x70
 8001146:	f013 0f02 	tst.w	r3, #2
 800114a:	d146      	bne.n	80011da <HAL_RCC_OscConfig+0x2c2>
      {
        if ((HAL_GetTick() - tickstart) > RCC_LSE_TIMEOUT_VALUE)
 800114c:	f7ff fd4c 	bl	8000be8 <HAL_GetTick>
 8001150:	1b80      	subs	r0, r0, r6
 8001152:	f241 3388 	movw	r3, #5000	@ 0x1388
 8001156:	4298      	cmp	r0, r3
 8001158:	d9f3      	bls.n	8001142 <HAL_RCC_OscConfig+0x22a>
        {
          return HAL_TIMEOUT;
 800115a:	2003      	movs	r0, #3
 800115c:	e0c6      	b.n	80012ec <HAL_RCC_OscConfig+0x3d4>
    FlagStatus       pwrclkchanged = RESET;
 800115e:	2500      	movs	r5, #0
 8001160:	e7d6      	b.n	8001110 <HAL_RCC_OscConfig+0x1f8>
      SET_BIT(PWR->CR, PWR_CR_DBP);
 8001162:	4a14      	ldr	r2, [pc, #80]	@ (80011b4 <HAL_RCC_OscConfig+0x29c>)
 8001164:	6813      	ldr	r3, [r2, #0]
 8001166:	f443 7380 	orr.w	r3, r3, #256	@ 0x100
 800116a:	6013      	str	r3, [r2, #0]
      tickstart = HAL_GetTick();
 800116c:	f7ff fd3c 	bl	8000be8 <HAL_GetTick>
 8001170:	4606      	mov	r6, r0
      while (HAL_IS_BIT_CLR(PWR->CR, PWR_CR_DBP))
 8001172:	4b10      	ldr	r3, [pc, #64]	@ (80011b4 <HAL_RCC_OscConfig+0x29c>)
 8001174:	681b      	ldr	r3, [r3, #0]
 8001176:	f413 7f80 	tst.w	r3, #256	@ 0x100
 800117a:	d1ce      	bne.n	800111a <HAL_RCC_OscConfig+0x202>
        if ((HAL_GetTick() - tickstart) > RCC_DBP_TIMEOUT_VALUE)
 800117c:	f7ff fd34 	bl	8000be8 <HAL_GetTick>
 8001180:	1b80      	subs	r0, r0, r6
 8001182:	2802      	cmp	r0, #2
 8001184:	d9f5      	bls.n	8001172 <HAL_RCC_OscConfig+0x25a>
          return HAL_TIMEOUT;
 8001186:	2003      	movs	r0, #3
 8001188:	e0b0      	b.n	80012ec <HAL_RCC_OscConfig+0x3d4>
    __HAL_RCC_LSE_CONFIG(RCC_OscInitStruct->LSEState);
 800118a:	4a08      	ldr	r2, [pc, #32]	@ (80011ac <HAL_RCC_OscConfig+0x294>)
 800118c:	6f13      	ldr	r3, [r2, #112]	@ 0x70
 800118e:	f043 0301 	orr.w	r3, r3, #1
 8001192:	6713      	str	r3, [r2, #112]	@ 0x70
 8001194:	e7cf      	b.n	8001136 <HAL_RCC_OscConfig+0x21e>
 8001196:	4b05      	ldr	r3, [pc, #20]	@ (80011ac <HAL_RCC_OscConfig+0x294>)
 8001198:	6f1a      	ldr	r2, [r3, #112]	@ 0x70
 800119a:	f042 0204 	orr.w	r2, r2, #4
 800119e:	671a      	str	r2, [r3, #112]	@ 0x70
 80011a0:	6f1a      	ldr	r2, [r3, #112]	@ 0x70
 80011a2:	f042 0201 	orr.w	r2, r2, #1
 80011a6:	671a      	str	r2, [r3, #112]	@ 0x70
 80011a8:	e7c5      	b.n	8001136 <HAL_RCC_OscConfig+0x21e>
 80011aa:	bf00      	nop
 80011ac:	40023800 	.word	0x40023800
 80011b0:	42470000 	.word	0x42470000
 80011b4:	40007000 	.word	0x40007000
      }
    }
    else
    {
      /* Get Start Tick */
      tickstart = HAL_GetTick();
 80011b8:	f7ff fd16 	bl	8000be8 <HAL_GetTick>
 80011bc:	4606      	mov	r6, r0

      /* Wait till LSE is ready */
      while (__HAL_RCC_GET_FLAG(RCC_FLAG_LSERDY) != RESET)
 80011be:	4b52      	ldr	r3, [pc, #328]	@ (8001308 <HAL_RCC_OscConfig+0x3f0>)
 80011c0:	6f1b      	ldr	r3, [r3, #112]	@ 0x70
 80011c2:	f013 0f02 	tst.w	r3, #2
 80011c6:	d008      	beq.n	80011da <HAL_RCC_OscConfig+0x2c2>
      {
        if ((HAL_GetTick() - tickstart) > RCC_LSE_TIMEOUT_VALUE)
 80011c8:	f7ff fd0e 	bl	8000be8 <HAL_GetTick>
 80011cc:	1b80      	subs	r0, r0, r6
 80011ce:	f241 3388 	movw	r3, #5000	@ 0x1388
 80011d2:	4298      	cmp	r0, r3
 80011d4:	d9f3      	bls.n	80011be <HAL_RCC_OscConfig+0x2a6>
        {
          return HAL_TIMEOUT;
 80011d6:	2003      	movs	r0, #3
 80011d8:	e088      	b.n	80012ec <HAL_RCC_OscConfig+0x3d4>
        }
      }
    }

    /* Restore clock configuration if changed */
    if (pwrclkchanged == SET)
 80011da:	b9ed      	cbnz	r5, 8001218 <HAL_RCC_OscConfig+0x300>
    }
  }
  /*-------------------------------- PLL Configuration -----------------------*/
  /* Check the parameters */
  assert_param(IS_RCC_PLL(RCC_OscInitStruct->PLL.PLLState));
  if ((RCC_OscInitStruct->PLL.PLLState) != RCC_PLL_NONE)
 80011dc:	69a3      	ldr	r3, [r4, #24]
 80011de:	2b00      	cmp	r3, #0
 80011e0:	f000 8083 	beq.w	80012ea <HAL_RCC_OscConfig+0x3d2>
  {
    /* Check if the PLL is used as system clock or not */
    if (__HAL_RCC_GET_SYSCLK_SOURCE() != RCC_CFGR_SWS_PLL)
 80011e4:	4a48      	ldr	r2, [pc, #288]	@ (8001308 <HAL_RCC_OscConfig+0x3f0>)
 80011e6:	6892      	ldr	r2, [r2, #8]
 80011e8:	f002 020c 	and.w	r2, r2, #12
 80011ec:	2a08      	cmp	r2, #8
 80011ee:	d051      	beq.n	8001294 <HAL_RCC_OscConfig+0x37c>
    {
      if ((RCC_OscInitStruct->PLL.PLLState) == RCC_PLL_ON)
 80011f0:	2b02      	cmp	r3, #2
 80011f2:	d017      	beq.n	8001224 <HAL_RCC_OscConfig+0x30c>
        }
      }
      else
      {
        /* Disable the main PLL. */
        __HAL_RCC_PLL_DISABLE();
 80011f4:	4b45      	ldr	r3, [pc, #276]	@ (800130c <HAL_RCC_OscConfig+0x3f4>)
 80011f6:	2200      	movs	r2, #0
 80011f8:	661a      	str	r2, [r3, #96]	@ 0x60

        /* Get Start Tick */
        tickstart = HAL_GetTick();
 80011fa:	f7ff fcf5 	bl	8000be8 <HAL_GetTick>
 80011fe:	4604      	mov	r4, r0

        /* Wait till PLL is disabled */
        while (__HAL_RCC_GET_FLAG(RCC_FLAG_PLLRDY) != RESET)
 8001200:	4b41      	ldr	r3, [pc, #260]	@ (8001308 <HAL_RCC_OscConfig+0x3f0>)
 8001202:	681b      	ldr	r3, [r3, #0]
 8001204:	f013 7f00 	tst.w	r3, #33554432	@ 0x2000000
 8001208:	d042      	beq.n	8001290 <HAL_RCC_OscConfig+0x378>
        {
          if ((HAL_GetTick() - tickstart) > PLL_TIMEOUT_VALUE)
 800120a:	f7ff fced 	bl	8000be8 <HAL_GetTick>
 800120e:	1b00      	subs	r0, r0, r4
 8001210:	2802      	cmp	r0, #2
 8001212:	d9f5      	bls.n	8001200 <HAL_RCC_OscConfig+0x2e8>
          {
            return HAL_TIMEOUT;
 8001214:	2003      	movs	r0, #3
 8001216:	e069      	b.n	80012ec <HAL_RCC_OscConfig+0x3d4>
      __HAL_RCC_PWR_CLK_DISABLE();
 8001218:	4a3b      	ldr	r2, [pc, #236]	@ (8001308 <HAL_RCC_OscConfig+0x3f0>)
 800121a:	6c13      	ldr	r3, [r2, #64]	@ 0x40
 800121c:	f023 5380 	bic.w	r3, r3, #268435456	@ 0x10000000
 8001220:	6413      	str	r3, [r2, #64]	@ 0x40
 8001222:	e7db      	b.n	80011dc <HAL_RCC_OscConfig+0x2c4>
        __HAL_RCC_PLL_DISABLE();
 8001224:	4b39      	ldr	r3, [pc, #228]	@ (800130c <HAL_RCC_OscConfig+0x3f4>)
 8001226:	2200      	movs	r2, #0
 8001228:	661a      	str	r2, [r3, #96]	@ 0x60
        tickstart = HAL_GetTick();
 800122a:	f7ff fcdd 	bl	8000be8 <HAL_GetTick>
 800122e:	4605      	mov	r5, r0
        while (__HAL_RCC_GET_FLAG(RCC_FLAG_PLLRDY) != RESET)
 8001230:	4b35      	ldr	r3, [pc, #212]	@ (8001308 <HAL_RCC_OscConfig+0x3f0>)
 8001232:	681b      	ldr	r3, [r3, #0]
 8001234:	f013 7f00 	tst.w	r3, #33554432	@ 0x2000000
 8001238:	d006      	beq.n	8001248 <HAL_RCC_OscConfig+0x330>
          if ((HAL_GetTick() - tickstart) > PLL_TIMEOUT_VALUE)
 800123a:	f7ff fcd5 	bl	8000be8 <HAL_GetTick>
 800123e:	1b40      	subs	r0, r0, r5
 8001240:	2802      	cmp	r0, #2
 8001242:	d9f5      	bls.n	8001230 <HAL_RCC_OscConfig+0x318>
            return HAL_TIMEOUT;
 8001244:	2003      	movs	r0, #3
 8001246:	e051      	b.n	80012ec <HAL_RCC_OscConfig+0x3d4>
        WRITE_REG(RCC->PLLCFGR, (RCC_OscInitStruct->PLL.PLLSource                                            | \
 8001248:	69e3      	ldr	r3, [r4, #28]
 800124a:	6a22      	ldr	r2, [r4, #32]
 800124c:	4313      	orrs	r3, r2
 800124e:	6a62      	ldr	r2, [r4, #36]	@ 0x24
 8001250:	ea43 1382 	orr.w	r3, r3, r2, lsl #6
 8001254:	6aa2      	ldr	r2, [r4, #40]	@ 0x28
 8001256:	0852      	lsrs	r2, r2, #1
 8001258:	3a01      	subs	r2, #1
 800125a:	ea43 4302 	orr.w	r3, r3, r2, lsl #16
 800125e:	6ae2      	ldr	r2, [r4, #44]	@ 0x2c
 8001260:	ea43 6302 	orr.w	r3, r3, r2, lsl #24
 8001264:	4a28      	ldr	r2, [pc, #160]	@ (8001308 <HAL_RCC_OscConfig+0x3f0>)
 8001266:	6053      	str	r3, [r2, #4]
        __HAL_RCC_PLL_ENABLE();
 8001268:	4b28      	ldr	r3, [pc, #160]	@ (800130c <HAL_RCC_OscConfig+0x3f4>)
 800126a:	2201      	movs	r2, #1
 800126c:	661a      	str	r2, [r3, #96]	@ 0x60
        tickstart = HAL_GetTick();
 800126e:	f7ff fcbb 	bl	8000be8 <HAL_GetTick>
 8001272:	4604      	mov	r4, r0
        while (__HAL_RCC_GET_FLAG(RCC_FLAG_PLLRDY) == RESET)
 8001274:	4b24      	ldr	r3, [pc, #144]	@ (8001308 <HAL_RCC_OscConfig+0x3f0>)
 8001276:	681b      	ldr	r3, [r3, #0]
 8001278:	f013 7f00 	tst.w	r3, #33554432	@ 0x2000000
 800127c:	d106      	bne.n	800128c <HAL_RCC_OscConfig+0x374>
          if ((HAL_GetTick() - tickstart) > PLL_TIMEOUT_VALUE)
 800127e:	f7ff fcb3 	bl	8000be8 <HAL_GetTick>
 8001282:	1b00      	subs	r0, r0, r4
 8001284:	2802      	cmp	r0, #2
 8001286:	d9f5      	bls.n	8001274 <HAL_RCC_OscConfig+0x35c>
            return HAL_TIMEOUT;
 8001288:	2003      	movs	r0, #3
 800128a:	e02f      	b.n	80012ec <HAL_RCC_OscConfig+0x3d4>
          return HAL_ERROR;
        }
      }
    }
  }
  return HAL_OK;
 800128c:	2000      	movs	r0, #0
 800128e:	e02d      	b.n	80012ec <HAL_RCC_OscConfig+0x3d4>
 8001290:	2000      	movs	r0, #0
 8001292:	e02b      	b.n	80012ec <HAL_RCC_OscConfig+0x3d4>
      if ((RCC_OscInitStruct->PLL.PLLState) == RCC_PLL_OFF)
 8001294:	2b01      	cmp	r3, #1
 8001296:	d02b      	beq.n	80012f0 <HAL_RCC_OscConfig+0x3d8>
        pll_config = RCC->PLLCFGR;
 8001298:	4b1b      	ldr	r3, [pc, #108]	@ (8001308 <HAL_RCC_OscConfig+0x3f0>)
 800129a:	685b      	ldr	r3, [r3, #4]
            (READ_BIT(pll_config, RCC_PLLCFGR_PLLSRC) != RCC_OscInitStruct->PLL.PLLSource) ||
 800129c:	f403 0180 	and.w	r1, r3, #4194304	@ 0x400000
 80012a0:	69e2      	ldr	r2, [r4, #28]
        if (((RCC_OscInitStruct->PLL.PLLState) == RCC_PLL_OFF) ||
 80012a2:	4291      	cmp	r1, r2
 80012a4:	d126      	bne.n	80012f4 <HAL_RCC_OscConfig+0x3dc>
            (READ_BIT(pll_config, RCC_PLLCFGR_PLLM) != (RCC_OscInitStruct->PLL.PLLM) << RCC_PLLCFGR_PLLM_Pos) ||
 80012a6:	f003 023f 	and.w	r2, r3, #63	@ 0x3f
 80012aa:	6a21      	ldr	r1, [r4, #32]
            (READ_BIT(pll_config, RCC_PLLCFGR_PLLSRC) != RCC_OscInitStruct->PLL.PLLSource) ||
 80012ac:	428a      	cmp	r2, r1
 80012ae:	d123      	bne.n	80012f8 <HAL_RCC_OscConfig+0x3e0>
            (READ_BIT(pll_config, RCC_PLLCFGR_PLLN) != (RCC_OscInitStruct->PLL.PLLN) << RCC_PLLCFGR_PLLN_Pos) ||
 80012b0:	6a61      	ldr	r1, [r4, #36]	@ 0x24
            (READ_BIT(pll_config, RCC_PLLCFGR_PLLM) != (RCC_OscInitStruct->PLL.PLLM) << RCC_PLLCFGR_PLLM_Pos) ||
 80012b2:	f647 72c0 	movw	r2, #32704	@ 0x7fc0
 80012b6:	401a      	ands	r2, r3
 80012b8:	ebb2 1f81 	cmp.w	r2, r1, lsl #6
 80012bc:	d11e      	bne.n	80012fc <HAL_RCC_OscConfig+0x3e4>
            (READ_BIT(pll_config, RCC_PLLCFGR_PLLP) != (((RCC_OscInitStruct->PLL.PLLP >> 1U) - 1U)) << RCC_PLLCFGR_PLLP_Pos) ||
 80012be:	f403 3140 	and.w	r1, r3, #196608	@ 0x30000
 80012c2:	6aa2      	ldr	r2, [r4, #40]	@ 0x28
 80012c4:	0852      	lsrs	r2, r2, #1
 80012c6:	3a01      	subs	r2, #1
            (READ_BIT(pll_config, RCC_PLLCFGR_PLLN) != (RCC_OscInitStruct->PLL.PLLN) << RCC_PLLCFGR_PLLN_Pos) ||
 80012c8:	ebb1 4f02 	cmp.w	r1, r2, lsl #16
 80012cc:	d118      	bne.n	8001300 <HAL_RCC_OscConfig+0x3e8>
            (READ_BIT(pll_config, RCC_PLLCFGR_PLLQ) != (RCC_OscInitStruct->PLL.PLLQ << RCC_PLLCFGR_PLLQ_Pos)))
 80012ce:	f003 6370 	and.w	r3, r3, #251658240	@ 0xf000000
 80012d2:	6ae2      	ldr	r2, [r4, #44]	@ 0x2c
            (READ_BIT(pll_config, RCC_PLLCFGR_PLLP) != (((RCC_OscInitStruct->PLL.PLLP >> 1U) - 1U)) << RCC_PLLCFGR_PLLP_Pos) ||
 80012d4:	ebb3 6f02 	cmp.w	r3, r2, lsl #24
 80012d8:	d114      	bne.n	8001304 <HAL_RCC_OscConfig+0x3ec>
  return HAL_OK;
 80012da:	2000      	movs	r0, #0
 80012dc:	e006      	b.n	80012ec <HAL_RCC_OscConfig+0x3d4>
    return HAL_ERROR;
 80012de:	2001      	movs	r0, #1
}
 80012e0:	4770      	bx	lr
        return HAL_ERROR;
 80012e2:	2001      	movs	r0, #1
 80012e4:	e002      	b.n	80012ec <HAL_RCC_OscConfig+0x3d4>
        return HAL_ERROR;
 80012e6:	2001      	movs	r0, #1
 80012e8:	e000      	b.n	80012ec <HAL_RCC_OscConfig+0x3d4>
  return HAL_OK;
 80012ea:	2000      	movs	r0, #0
}
 80012ec:	b002      	add	sp, #8
 80012ee:	bd70      	pop	{r4, r5, r6, pc}
        return HAL_ERROR;
 80012f0:	2001      	movs	r0, #1
 80012f2:	e7fb      	b.n	80012ec <HAL_RCC_OscConfig+0x3d4>
          return HAL_ERROR;
 80012f4:	2001      	movs	r0, #1
 80012f6:	e7f9      	b.n	80012ec <HAL_RCC_OscConfig+0x3d4>
 80012f8:	2001      	movs	r0, #1
 80012fa:	e7f7      	b.n	80012ec <HAL_RCC_OscConfig+0x3d4>
 80012fc:	2001      	movs	r0, #1
 80012fe:	e7f5      	b.n	80012ec <HAL_RCC_OscConfig+0x3d4>
 8001300:	2001      	movs	r0, #1
 8001302:	e7f3      	b.n	80012ec <HAL_RCC_OscConfig+0x3d4>
 8001304:	2001      	movs	r0, #1
 8001306:	e7f1      	b.n	80012ec <HAL_RCC_OscConfig+0x3d4>
 8001308:	40023800 	.word	0x40023800
 800130c:	42470000 	.word	0x42470000

08001310 <HAL_RCC_GetSysClockFreq>:
  *
  *
  * @retval SYSCLK frequency
  */
__weak uint32_t HAL_RCC_GetSysClockFreq(void)
{
 8001310:	b508      	push	{r3, lr}
  uint32_t pllvco = 0U;
  uint32_t pllp = 0U;
  uint32_t sysclockfreq = 0U;

  /* Get SYSCLK source -------------------------------------------------------*/
  switch (RCC->CFGR & RCC_CFGR_SWS)
 8001312:	4b31      	ldr	r3, [pc, #196]	@ (80013d8 <HAL_RCC_GetSysClockFreq+0xc8>)
 8001314:	689b      	ldr	r3, [r3, #8]
 8001316:	f003 030c 	and.w	r3, r3, #12
 800131a:	2b08      	cmp	r3, #8
 800131c:	d001      	beq.n	8001322 <HAL_RCC_GetSysClockFreq+0x12>
  {
    case RCC_CFGR_SWS_HSI:  /* HSI used as system clock source */
    {
      sysclockfreq = HSI_VALUE;
 800131e:	482f      	ldr	r0, [pc, #188]	@ (80013dc <HAL_RCC_GetSysClockFreq+0xcc>)
      sysclockfreq = HSI_VALUE;
      break;
    }
  }
  return sysclockfreq;
}
 8001320:	bd08      	pop	{r3, pc}
      pllm = RCC->PLLCFGR & RCC_PLLCFGR_PLLM;
 8001322:	4b2d      	ldr	r3, [pc, #180]	@ (80013d8 <HAL_RCC_GetSysClockFreq+0xc8>)
 8001324:	685a      	ldr	r2, [r3, #4]
 8001326:	f002 023f 	and.w	r2, r2, #63	@ 0x3f
      if (__HAL_RCC_GET_PLL_OSCSOURCE() != RCC_PLLSOURCE_HSI)
 800132a:	685b      	ldr	r3, [r3, #4]
 800132c:	f413 0f80 	tst.w	r3, #4194304	@ 0x400000
 8001330:	d02c      	beq.n	800138c <HAL_RCC_GetSysClockFreq+0x7c>
        pllvco = (uint32_t)((((uint64_t) HSE_VALUE * ((uint64_t)((RCC->PLLCFGR & RCC_PLLCFGR_PLLN) >> RCC_PLLCFGR_PLLN_Pos)))) / (uint64_t)pllm);
 8001332:	4b29      	ldr	r3, [pc, #164]	@ (80013d8 <HAL_RCC_GetSysClockFreq+0xc8>)
 8001334:	6858      	ldr	r0, [r3, #4]
 8001336:	f3c0 1088 	ubfx	r0, r0, #6, #9
 800133a:	ea4f 1c40 	mov.w	ip, r0, lsl #5
 800133e:	ebbc 0c00 	subs.w	ip, ip, r0
 8001342:	eb6e 0e0e 	sbc.w	lr, lr, lr
 8001346:	ea4f 138e 	mov.w	r3, lr, lsl #6
 800134a:	ea43 639c 	orr.w	r3, r3, ip, lsr #26
 800134e:	ea4f 118c 	mov.w	r1, ip, lsl #6
 8001352:	ebb1 010c 	subs.w	r1, r1, ip
 8001356:	eb63 030e 	sbc.w	r3, r3, lr
 800135a:	00db      	lsls	r3, r3, #3
 800135c:	ea43 7351 	orr.w	r3, r3, r1, lsr #29
 8001360:	00c9      	lsls	r1, r1, #3
 8001362:	eb11 0c00 	adds.w	ip, r1, r0
 8001366:	f143 0300 	adc.w	r3, r3, #0
 800136a:	0299      	lsls	r1, r3, #10
 800136c:	2300      	movs	r3, #0
 800136e:	ea4f 208c 	mov.w	r0, ip, lsl #10
 8001372:	ea41 519c 	orr.w	r1, r1, ip, lsr #22
 8001376:	f7fe ff7b 	bl	8000270 <__aeabi_uldivmod>
      pllp = ((((RCC->PLLCFGR & RCC_PLLCFGR_PLLP) >> RCC_PLLCFGR_PLLP_Pos) + 1U) * 2U);
 800137a:	4b17      	ldr	r3, [pc, #92]	@ (80013d8 <HAL_RCC_GetSysClockFreq+0xc8>)
 800137c:	685b      	ldr	r3, [r3, #4]
 800137e:	f3c3 4301 	ubfx	r3, r3, #16, #2
 8001382:	3301      	adds	r3, #1
 8001384:	005b      	lsls	r3, r3, #1
      sysclockfreq = pllvco / pllp;
 8001386:	fbb0 f0f3 	udiv	r0, r0, r3
      break;
 800138a:	e7c9      	b.n	8001320 <HAL_RCC_GetSysClockFreq+0x10>
        pllvco = (uint32_t)((((uint64_t) HSI_VALUE * ((uint64_t)((RCC->PLLCFGR & RCC_PLLCFGR_PLLN) >> RCC_PLLCFGR_PLLN_Pos)))) / (uint64_t)pllm);
 800138c:	4b12      	ldr	r3, [pc, #72]	@ (80013d8 <HAL_RCC_GetSysClockFreq+0xc8>)
 800138e:	6858      	ldr	r0, [r3, #4]
 8001390:	f3c0 1088 	ubfx	r0, r0, #6, #9
 8001394:	ea4f 1c40 	mov.w	ip, r0, lsl #5
 8001398:	ebbc 0c00 	subs.w	ip, ip, r0
 800139c:	eb6e 0e0e 	sbc.w	lr, lr, lr
 80013a0:	ea4f 138e 	mov.w	r3, lr, lsl #6
 80013a4:	ea43 639c 	orr.w	r3, r3, ip, lsr #26
 80013a8:	ea4f 118c 	mov.w	r1, ip, lsl #6
 80013ac:	ebb1 010c 	subs.w	r1, r1, ip
 80013b0:	eb63 030e 	sbc.w	r3, r3, lr
 80013b4:	00db      	lsls	r3, r3, #3
 80013b6:	ea43 7351 	orr.w	r3, r3, r1, lsr #29
 80013ba:	00c9      	lsls	r1, r1, #3
 80013bc:	eb11 0c00 	adds.w	ip, r1, r0
 80013c0:	f143 0300 	adc.w	r3, r3, #0
 80013c4:	0299      	lsls	r1, r3, #10
 80013c6:	2300      	movs	r3, #0
 80013c8:	ea4f 208c 	mov.w	r0, ip, lsl #10
 80013cc:	ea41 519c 	orr.w	r1, r1, ip, lsr #22
 80013d0:	f7fe ff4e 	bl	8000270 <__aeabi_uldivmod>
 80013d4:	e7d1      	b.n	800137a <HAL_RCC_GetSysClockFreq+0x6a>
 80013d6:	bf00      	nop
 80013d8:	40023800 	.word	0x40023800
 80013dc:	00f42400 	.word	0x00f42400

080013e0 <HAL_RCC_ClockConfig>:
  if (RCC_ClkInitStruct == NULL)
 80013e0:	2800      	cmp	r0, #0
 80013e2:	f000 809b 	beq.w	800151c <HAL_RCC_ClockConfig+0x13c>
{
 80013e6:	b570      	push	{r4, r5, r6, lr}
 80013e8:	460d      	mov	r5, r1
 80013ea:	4604      	mov	r4, r0
  if (FLatency > __HAL_FLASH_GET_LATENCY())
 80013ec:	4b4f      	ldr	r3, [pc, #316]	@ (800152c <HAL_RCC_ClockConfig+0x14c>)
 80013ee:	681b      	ldr	r3, [r3, #0]
 80013f0:	f003 0307 	and.w	r3, r3, #7
 80013f4:	428b      	cmp	r3, r1
 80013f6:	d208      	bcs.n	800140a <HAL_RCC_ClockConfig+0x2a>
    __HAL_FLASH_SET_LATENCY(FLatency);
 80013f8:	b2cb      	uxtb	r3, r1
 80013fa:	4a4c      	ldr	r2, [pc, #304]	@ (800152c <HAL_RCC_ClockConfig+0x14c>)
 80013fc:	7013      	strb	r3, [r2, #0]
    if (__HAL_FLASH_GET_LATENCY() != FLatency)
 80013fe:	6813      	ldr	r3, [r2, #0]
 8001400:	f003 0307 	and.w	r3, r3, #7
 8001404:	428b      	cmp	r3, r1
 8001406:	f040 808b 	bne.w	8001520 <HAL_RCC_ClockConfig+0x140>
  if (((RCC_ClkInitStruct->ClockType) & RCC_CLOCKTYPE_HCLK) == RCC_CLOCKTYPE_HCLK)
 800140a:	6823      	ldr	r3, [r4, #0]
 800140c:	f013 0f02 	tst.w	r3, #2
 8001410:	d017      	beq.n	8001442 <HAL_RCC_ClockConfig+0x62>
    if (((RCC_ClkInitStruct->ClockType) & RCC_CLOCKTYPE_PCLK1) == RCC_CLOCKTYPE_PCLK1)
 8001412:	f013 0f04 	tst.w	r3, #4
 8001416:	d004      	beq.n	8001422 <HAL_RCC_ClockConfig+0x42>
      MODIFY_REG(RCC->CFGR, RCC_CFGR_PPRE1, RCC_HCLK_DIV16);
 8001418:	4a45      	ldr	r2, [pc, #276]	@ (8001530 <HAL_RCC_ClockConfig+0x150>)
 800141a:	6893      	ldr	r3, [r2, #8]
 800141c:	f443 53e0 	orr.w	r3, r3, #7168	@ 0x1c00
 8001420:	6093      	str	r3, [r2, #8]
    if (((RCC_ClkInitStruct->ClockType) & RCC_CLOCKTYPE_PCLK2) == RCC_CLOCKTYPE_PCLK2)
 8001422:	6823      	ldr	r3, [r4, #0]
 8001424:	f013 0f08 	tst.w	r3, #8
 8001428:	d004      	beq.n	8001434 <HAL_RCC_ClockConfig+0x54>
      MODIFY_REG(RCC->CFGR, RCC_CFGR_PPRE2, (RCC_HCLK_DIV16 << 3));
 800142a:	4a41      	ldr	r2, [pc, #260]	@ (8001530 <HAL_RCC_ClockConfig+0x150>)
 800142c:	6893      	ldr	r3, [r2, #8]
 800142e:	f443 4360 	orr.w	r3, r3, #57344	@ 0xe000
 8001432:	6093      	str	r3, [r2, #8]
    MODIFY_REG(RCC->CFGR, RCC_CFGR_HPRE, RCC_ClkInitStruct->AHBCLKDivider);
 8001434:	4a3e      	ldr	r2, [pc, #248]	@ (8001530 <HAL_RCC_ClockConfig+0x150>)
 8001436:	6893      	ldr	r3, [r2, #8]
 8001438:	f023 03f0 	bic.w	r3, r3, #240	@ 0xf0
 800143c:	68a1      	ldr	r1, [r4, #8]
 800143e:	430b      	orrs	r3, r1
 8001440:	6093      	str	r3, [r2, #8]
  if (((RCC_ClkInitStruct->ClockType) & RCC_CLOCKTYPE_SYSCLK) == RCC_CLOCKTYPE_SYSCLK)
 8001442:	6823      	ldr	r3, [r4, #0]
 8001444:	f013 0f01 	tst.w	r3, #1
 8001448:	d032      	beq.n	80014b0 <HAL_RCC_ClockConfig+0xd0>
    if (RCC_ClkInitStruct->SYSCLKSource == RCC_SYSCLKSOURCE_HSE)
 800144a:	6863      	ldr	r3, [r4, #4]
 800144c:	2b01      	cmp	r3, #1
 800144e:	d021      	beq.n	8001494 <HAL_RCC_ClockConfig+0xb4>
    else if ((RCC_ClkInitStruct->SYSCLKSource == RCC_SYSCLKSOURCE_PLLCLK)   ||
 8001450:	1e9a      	subs	r2, r3, #2
 8001452:	2a01      	cmp	r2, #1
 8001454:	d925      	bls.n	80014a2 <HAL_RCC_ClockConfig+0xc2>
      if (__HAL_RCC_GET_FLAG(RCC_FLAG_HSIRDY) == RESET)
 8001456:	4a36      	ldr	r2, [pc, #216]	@ (8001530 <HAL_RCC_ClockConfig+0x150>)
 8001458:	6812      	ldr	r2, [r2, #0]
 800145a:	f012 0f02 	tst.w	r2, #2
 800145e:	d061      	beq.n	8001524 <HAL_RCC_ClockConfig+0x144>
    __HAL_RCC_SYSCLK_CONFIG(RCC_ClkInitStruct->SYSCLKSource);
 8001460:	4933      	ldr	r1, [pc, #204]	@ (8001530 <HAL_RCC_ClockConfig+0x150>)
 8001462:	688a      	ldr	r2, [r1, #8]
 8001464:	f022 0203 	bic.w	r2, r2, #3
 8001468:	4313      	orrs	r3, r2
 800146a:	608b      	str	r3, [r1, #8]
    tickstart = HAL_GetTick();
 800146c:	f7ff fbbc 	bl	8000be8 <HAL_GetTick>
 8001470:	4606      	mov	r6, r0
    while (__HAL_RCC_GET_SYSCLK_SOURCE() != (RCC_ClkInitStruct->SYSCLKSource << RCC_CFGR_SWS_Pos))
 8001472:	4b2f      	ldr	r3, [pc, #188]	@ (8001530 <HAL_RCC_ClockConfig+0x150>)
 8001474:	689b      	ldr	r3, [r3, #8]
 8001476:	f003 030c 	and.w	r3, r3, #12
 800147a:	6862      	ldr	r2, [r4, #4]
 800147c:	ebb3 0f82 	cmp.w	r3, r2, lsl #2
 8001480:	d016      	beq.n	80014b0 <HAL_RCC_ClockConfig+0xd0>
      if ((HAL_GetTick() - tickstart) > CLOCKSWITCH_TIMEOUT_VALUE)
 8001482:	f7ff fbb1 	bl	8000be8 <HAL_GetTick>
 8001486:	1b80      	subs	r0, r0, r6
 8001488:	f241 3388 	movw	r3, #5000	@ 0x1388
 800148c:	4298      	cmp	r0, r3
 800148e:	d9f0      	bls.n	8001472 <HAL_RCC_ClockConfig+0x92>
        return HAL_TIMEOUT;
 8001490:	2003      	movs	r0, #3
 8001492:	e042      	b.n	800151a <HAL_RCC_ClockConfig+0x13a>
      if (__HAL_RCC_GET_FLAG(RCC_FLAG_HSERDY) == RESET)
 8001494:	4a26      	ldr	r2, [pc, #152]	@ (8001530 <HAL_RCC_ClockConfig+0x150>)
 8001496:	6812      	ldr	r2, [r2, #0]
 8001498:	f412 3f00 	tst.w	r2, #131072	@ 0x20000
 800149c:	d1e0      	bne.n	8001460 <HAL_RCC_ClockConfig+0x80>
        return HAL_ERROR;
 800149e:	2001      	movs	r0, #1
 80014a0:	e03b      	b.n	800151a <HAL_RCC_ClockConfig+0x13a>
      if (__HAL_RCC_GET_FLAG(RCC_FLAG_PLLRDY) == RESET)
 80014a2:	4a23      	ldr	r2, [pc, #140]	@ (8001530 <HAL_RCC_ClockConfig+0x150>)
 80014a4:	6812      	ldr	r2, [r2, #0]
 80014a6:	f012 7f00 	tst.w	r2, #33554432	@ 0x2000000
 80014aa:	d1d9      	bne.n	8001460 <HAL_RCC_ClockConfig+0x80>
        return HAL_ERROR;
 80014ac:	2001      	movs	r0, #1
 80014ae:	e034      	b.n	800151a <HAL_RCC_ClockConfig+0x13a>
  if (FLatency < __HAL_FLASH_GET_LATENCY())
 80014b0:	4b1e      	ldr	r3, [pc, #120]	@ (800152c <HAL_RCC_ClockConfig+0x14c>)
 80014b2:	681b      	ldr	r3, [r3, #0]
 80014b4:	f003 0307 	and.w	r3, r3, #7
 80014b8:	42ab      	cmp	r3, r5
 80014ba:	d907      	bls.n	80014cc <HAL_RCC_ClockConfig+0xec>
    __HAL_FLASH_SET_LATENCY(FLatency);
 80014bc:	b2ea      	uxtb	r2, r5
 80014be:	4b1b      	ldr	r3, [pc, #108]	@ (800152c <HAL_RCC_ClockConfig+0x14c>)
 80014c0:	701a      	strb	r2, [r3, #0]
    if (__HAL_FLASH_GET_LATENCY() != FLatency)
 80014c2:	681b      	ldr	r3, [r3, #0]
 80014c4:	f003 0307 	and.w	r3, r3, #7
 80014c8:	42ab      	cmp	r3, r5
 80014ca:	d12d      	bne.n	8001528 <HAL_RCC_ClockConfig+0x148>
  if (((RCC_ClkInitStruct->ClockType) & RCC_CLOCKTYPE_PCLK1) == RCC_CLOCKTYPE_PCLK1)
 80014cc:	6823      	ldr	r3, [r4, #0]
 80014ce:	f013 0f04 	tst.w	r3, #4
 80014d2:	d006      	beq.n	80014e2 <HAL_RCC_ClockConfig+0x102>
    MODIFY_REG(RCC->CFGR, RCC_CFGR_PPRE1, RCC_ClkInitStruct->APB1CLKDivider);
 80014d4:	4a16      	ldr	r2, [pc, #88]	@ (8001530 <HAL_RCC_ClockConfig+0x150>)
 80014d6:	6893      	ldr	r3, [r2, #8]
 80014d8:	f423 53e0 	bic.w	r3, r3, #7168	@ 0x1c00
 80014dc:	68e1      	ldr	r1, [r4, #12]
 80014de:	430b      	orrs	r3, r1
 80014e0:	6093      	str	r3, [r2, #8]
  if (((RCC_ClkInitStruct->ClockType) & RCC_CLOCKTYPE_PCLK2) == RCC_CLOCKTYPE_PCLK2)
 80014e2:	6823      	ldr	r3, [r4, #0]
 80014e4:	f013 0f08 	tst.w	r3, #8
 80014e8:	d007      	beq.n	80014fa <HAL_RCC_ClockConfig+0x11a>
    MODIFY_REG(RCC->CFGR, RCC_CFGR_PPRE2, ((RCC_ClkInitStruct->APB2CLKDivider) << 3U));
 80014ea:	4a11      	ldr	r2, [pc, #68]	@ (8001530 <HAL_RCC_ClockConfig+0x150>)
 80014ec:	6893      	ldr	r3, [r2, #8]
 80014ee:	f423 4360 	bic.w	r3, r3, #57344	@ 0xe000
 80014f2:	6921      	ldr	r1, [r4, #16]
 80014f4:	ea43 03c1 	orr.w	r3, r3, r1, lsl #3
 80014f8:	6093      	str	r3, [r2, #8]
  SystemCoreClock = HAL_RCC_GetSysClockFreq() >> AHBPrescTable[(RCC->CFGR & RCC_CFGR_HPRE) >> RCC_CFGR_HPRE_Pos];
 80014fa:	f7ff ff09 	bl	8001310 <HAL_RCC_GetSysClockFreq>
 80014fe:	4b0c      	ldr	r3, [pc, #48]	@ (8001530 <HAL_RCC_ClockConfig+0x150>)
 8001500:	689b      	ldr	r3, [r3, #8]
 8001502:	f3c3 1303 	ubfx	r3, r3, #4, #4
 8001506:	4a0b      	ldr	r2, [pc, #44]	@ (8001534 <HAL_RCC_ClockConfig+0x154>)
 8001508:	5cd3      	ldrb	r3, [r2, r3]
 800150a:	40d8      	lsrs	r0, r3
 800150c:	4b0a      	ldr	r3, [pc, #40]	@ (8001538 <HAL_RCC_ClockConfig+0x158>)
 800150e:	6018      	str	r0, [r3, #0]
  HAL_InitTick(uwTickPrio);
 8001510:	4b0a      	ldr	r3, [pc, #40]	@ (800153c <HAL_RCC_ClockConfig+0x15c>)
 8001512:	6818      	ldr	r0, [r3, #0]
 8001514:	f7ff fb1c 	bl	8000b50 <HAL_InitTick>
  return HAL_OK;
 8001518:	2000      	movs	r0, #0
}
 800151a:	bd70      	pop	{r4, r5, r6, pc}
    return HAL_ERROR;
 800151c:	2001      	movs	r0, #1
}
 800151e:	4770      	bx	lr
      return HAL_ERROR;
 8001520:	2001      	movs	r0, #1
 8001522:	e7fa      	b.n	800151a <HAL_RCC_ClockConfig+0x13a>
        return HAL_ERROR;
 8001524:	2001      	movs	r0, #1
 8001526:	e7f8      	b.n	800151a <HAL_RCC_ClockConfig+0x13a>
      return HAL_ERROR;
 8001528:	2001      	movs	r0, #1
 800152a:	e7f6      	b.n	800151a <HAL_RCC_ClockConfig+0x13a>
 800152c:	40023c00 	.word	0x40023c00
 8001530:	40023800 	.word	0x40023800
 8001534:	08007da0 	.word	0x08007da0
 8001538:	20000000 	.word	0x20000000
 800153c:	20000008 	.word	0x20000008

08001540 <HAL_RCC_GetHCLKFreq>:
  * @retval HCLK frequency
  */
uint32_t HAL_RCC_GetHCLKFreq(void)
{
  return SystemCoreClock;
}
 8001540:	4b01      	ldr	r3, [pc, #4]	@ (8001548 <HAL_RCC_GetHCLKFreq+0x8>)
 8001542:	6818      	ldr	r0, [r3, #0]
 8001544:	4770      	bx	lr
 8001546:	bf00      	nop
 8001548:	20000000 	.word	0x20000000

0800154c <HAL_RCC_GetPCLK1Freq>:
  * @note   Each time PCLK1 changes, this function must be called to update the
  *         right PCLK1 value. Otherwise, any configuration based on this function will be incorrect.
  * @retval PCLK1 frequency
  */
uint32_t HAL_RCC_GetPCLK1Freq(void)
{
 800154c:	b508      	push	{r3, lr}
  /* Get HCLK source and Compute PCLK1 frequency ---------------------------*/
  return (HAL_RCC_GetHCLKFreq() >> APBPrescTable[(RCC->CFGR & RCC_CFGR_PPRE1) >> RCC_CFGR_PPRE1_Pos]);
 800154e:	f7ff fff7 	bl	8001540 <HAL_RCC_GetHCLKFreq>
 8001552:	4b04      	ldr	r3, [pc, #16]	@ (8001564 <HAL_RCC_GetPCLK1Freq+0x18>)
 8001554:	689b      	ldr	r3, [r3, #8]
 8001556:	f3c3 2382 	ubfx	r3, r3, #10, #3
 800155a:	4a03      	ldr	r2, [pc, #12]	@ (8001568 <HAL_RCC_GetPCLK1Freq+0x1c>)
 800155c:	5cd3      	ldrb	r3, [r2, r3]
}
 800155e:	40d8      	lsrs	r0, r3
 8001560:	bd08      	pop	{r3, pc}
 8001562:	bf00      	nop
 8001564:	40023800 	.word	0x40023800
 8001568:	08007d98 	.word	0x08007d98

0800156c <HAL_RCC_GetPCLK2Freq>:
  * @note   Each time PCLK2 changes, this function must be called to update the
  *         right PCLK2 value. Otherwise, any configuration based on this function will be incorrect.
  * @retval PCLK2 frequency
  */
uint32_t HAL_RCC_GetPCLK2Freq(void)
{
 800156c:	b508      	push	{r3, lr}
  /* Get HCLK source and Compute PCLK2 frequency ---------------------------*/
  return (HAL_RCC_GetHCLKFreq() >> APBPrescTable[(RCC->CFGR & RCC_CFGR_PPRE2) >> RCC_CFGR_PPRE2_Pos]);
 800156e:	f7ff ffe7 	bl	8001540 <HAL_RCC_GetHCLKFreq>
 8001572:	4b04      	ldr	r3, [pc, #16]	@ (8001584 <HAL_RCC_GetPCLK2Freq+0x18>)
 8001574:	689b      	ldr	r3, [r3, #8]
 8001576:	f3c3 3342 	ubfx	r3, r3, #13, #3
 800157a:	4a03      	ldr	r2, [pc, #12]	@ (8001588 <HAL_RCC_GetPCLK2Freq+0x1c>)
 800157c:	5cd3      	ldrb	r3, [r2, r3]
}
 800157e:	40d8      	lsrs	r0, r3
 8001580:	bd08      	pop	{r3, pc}
 8001582:	bf00      	nop
 8001584:	40023800 	.word	0x40023800
 8001588:	08007d98 	.word	0x08007d98

0800158c <SPI_WaitFlagStateUntilTimeout>:
  * @param  Tickstart tick start value
  * @retval HAL status
  */
static HAL_StatusTypeDef SPI_WaitFlagStateUntilTimeout(SPI_HandleTypeDef *hspi, uint32_t Flag, FlagStatus State,
                                                       uint32_t Timeout, uint32_t Tickstart)
{
 800158c:	e92d 47f0 	stmdb	sp!, {r4, r5, r6, r7, r8, r9, sl, lr}
 8001590:	b082      	sub	sp, #8
 8001592:	4605      	mov	r5, r0
 8001594:	4688      	mov	r8, r1
 8001596:	4617      	mov	r7, r2
 8001598:	461e      	mov	r6, r3
  __IO uint32_t count;
  uint32_t tmp_timeout;
  uint32_t tmp_tickstart;

  /* Adjust Timeout value  in case of end of transfer */
  tmp_timeout   = Timeout - (HAL_GetTick() - Tickstart);
 800159a:	f7ff fb25 	bl	8000be8 <HAL_GetTick>
 800159e:	9b0a      	ldr	r3, [sp, #40]	@ 0x28
 80015a0:	1a1b      	subs	r3, r3, r0
 80015a2:	eb03 0906 	add.w	r9, r3, r6
  tmp_tickstart = HAL_GetTick();
 80015a6:	f7ff fb1f 	bl	8000be8 <HAL_GetTick>
 80015aa:	4682      	mov	sl, r0

  /* Calculate Timeout based on a software loop to avoid blocking issue if Systick is disabled */
  count = tmp_timeout * ((SystemCoreClock * 32U) >> 20U);
 80015ac:	4b28      	ldr	r3, [pc, #160]	@ (8001650 <SPI_WaitFlagStateUntilTimeout+0xc4>)
 80015ae:	681b      	ldr	r3, [r3, #0]
 80015b0:	f3c3 33cb 	ubfx	r3, r3, #15, #12
 80015b4:	fb09 f303 	mul.w	r3, r9, r3
 80015b8:	9301      	str	r3, [sp, #4]

  while ((__HAL_SPI_GET_FLAG(hspi, Flag) ? SET : RESET) != State)
 80015ba:	682b      	ldr	r3, [r5, #0]
 80015bc:	689c      	ldr	r4, [r3, #8]
 80015be:	ea38 0404 	bics.w	r4, r8, r4
 80015c2:	bf0c      	ite	eq
 80015c4:	2301      	moveq	r3, #1
 80015c6:	2300      	movne	r3, #0
 80015c8:	42bb      	cmp	r3, r7
 80015ca:	d03d      	beq.n	8001648 <SPI_WaitFlagStateUntilTimeout+0xbc>
  {
    if (Timeout != HAL_MAX_DELAY)
 80015cc:	f1b6 3fff 	cmp.w	r6, #4294967295	@ 0xffffffff
 80015d0:	d0f3      	beq.n	80015ba <SPI_WaitFlagStateUntilTimeout+0x2e>
    {
      if (((HAL_GetTick() - tmp_tickstart) >= tmp_timeout) || (tmp_timeout == 0U))
 80015d2:	f7ff fb09 	bl	8000be8 <HAL_GetTick>
 80015d6:	eba0 000a 	sub.w	r0, r0, sl
 80015da:	4548      	cmp	r0, r9
 80015dc:	d203      	bcs.n	80015e6 <SPI_WaitFlagStateUntilTimeout+0x5a>
        __HAL_UNLOCK(hspi);

        return HAL_TIMEOUT;
      }
      /* If Systick is disabled or not incremented, deactivate timeout to go in disable loop procedure */
      if (count == 0U)
 80015de:	9b01      	ldr	r3, [sp, #4]
 80015e0:	bb73      	cbnz	r3, 8001640 <SPI_WaitFlagStateUntilTimeout+0xb4>
      {
        tmp_timeout = 0U;
 80015e2:	4699      	mov	r9, r3
 80015e4:	e7e9      	b.n	80015ba <SPI_WaitFlagStateUntilTimeout+0x2e>
        __HAL_SPI_DISABLE_IT(hspi, (SPI_IT_TXE | SPI_IT_RXNE | SPI_IT_ERR));
 80015e6:	682a      	ldr	r2, [r5, #0]
 80015e8:	6853      	ldr	r3, [r2, #4]
 80015ea:	f023 03e0 	bic.w	r3, r3, #224	@ 0xe0
 80015ee:	6053      	str	r3, [r2, #4]
        if ((hspi->Init.Mode == SPI_MODE_MASTER) && ((hspi->Init.Direction == SPI_DIRECTION_1LINE)
 80015f0:	686b      	ldr	r3, [r5, #4]
 80015f2:	f5b3 7f82 	cmp.w	r3, #260	@ 0x104
 80015f6:	d00b      	beq.n	8001610 <SPI_WaitFlagStateUntilTimeout+0x84>
        if (hspi->Init.CRCCalculation == SPI_CRCCALCULATION_ENABLE)
 80015f8:	6aab      	ldr	r3, [r5, #40]	@ 0x28
 80015fa:	f5b3 5f00 	cmp.w	r3, #8192	@ 0x2000
 80015fe:	d014      	beq.n	800162a <SPI_WaitFlagStateUntilTimeout+0x9e>
        hspi->State = HAL_SPI_STATE_READY;
 8001600:	2301      	movs	r3, #1
 8001602:	f885 3051 	strb.w	r3, [r5, #81]	@ 0x51
        __HAL_UNLOCK(hspi);
 8001606:	2300      	movs	r3, #0
 8001608:	f885 3050 	strb.w	r3, [r5, #80]	@ 0x50
        return HAL_TIMEOUT;
 800160c:	2003      	movs	r0, #3
 800160e:	e01c      	b.n	800164a <SPI_WaitFlagStateUntilTimeout+0xbe>
        if ((hspi->Init.Mode == SPI_MODE_MASTER) && ((hspi->Init.Direction == SPI_DIRECTION_1LINE)
 8001610:	68ab      	ldr	r3, [r5, #8]
 8001612:	f5b3 4f00 	cmp.w	r3, #32768	@ 0x8000
 8001616:	d002      	beq.n	800161e <SPI_WaitFlagStateUntilTimeout+0x92>
                                                     || (hspi->Init.Direction == SPI_DIRECTION_2LINES_RXONLY)))
 8001618:	f5b3 6f80 	cmp.w	r3, #1024	@ 0x400
 800161c:	d1ec      	bne.n	80015f8 <SPI_WaitFlagStateUntilTimeout+0x6c>
          __HAL_SPI_DISABLE(hspi);
 800161e:	682a      	ldr	r2, [r5, #0]
 8001620:	6813      	ldr	r3, [r2, #0]
 8001622:	f023 0340 	bic.w	r3, r3, #64	@ 0x40
 8001626:	6013      	str	r3, [r2, #0]
 8001628:	e7e6      	b.n	80015f8 <SPI_WaitFlagStateUntilTimeout+0x6c>
          SPI_RESET_CRC(hspi);
 800162a:	682a      	ldr	r2, [r5, #0]
 800162c:	6813      	ldr	r3, [r2, #0]
 800162e:	f423 5300 	bic.w	r3, r3, #8192	@ 0x2000
 8001632:	6013      	str	r3, [r2, #0]
 8001634:	682a      	ldr	r2, [r5, #0]
 8001636:	6813      	ldr	r3, [r2, #0]
 8001638:	f443 5300 	orr.w	r3, r3, #8192	@ 0x2000
 800163c:	6013      	str	r3, [r2, #0]
 800163e:	e7df      	b.n	8001600 <SPI_WaitFlagStateUntilTimeout+0x74>
      }
      else
      {
        count--;
 8001640:	9b01      	ldr	r3, [sp, #4]
 8001642:	3b01      	subs	r3, #1
 8001644:	9301      	str	r3, [sp, #4]
 8001646:	e7b8      	b.n	80015ba <SPI_WaitFlagStateUntilTimeout+0x2e>
      }
    }
  }

  return HAL_OK;
 8001648:	2000      	movs	r0, #0
}
 800164a:	b002      	add	sp, #8
 800164c:	e8bd 87f0 	ldmia.w	sp!, {r4, r5, r6, r7, r8, r9, sl, pc}
 8001650:	20000000 	.word	0x20000000

08001654 <SPI_EndRxTxTransaction>:
  * @param  Timeout Timeout duration
  * @param  Tickstart tick start value
  * @retval HAL status
  */
static HAL_StatusTypeDef SPI_EndRxTxTransaction(SPI_HandleTypeDef *hspi, uint32_t Timeout, uint32_t Tickstart)
{
 8001654:	b570      	push	{r4, r5, r6, lr}
 8001656:	b084      	sub	sp, #16
 8001658:	4604      	mov	r4, r0
 800165a:	460d      	mov	r5, r1
 800165c:	4616      	mov	r6, r2
  __IO uint32_t count;

  /* Wait until TXE flag */
  if (SPI_WaitFlagStateUntilTimeout(hspi, SPI_FLAG_TXE, SET, Timeout, Tickstart) != HAL_OK)
 800165e:	9200      	str	r2, [sp, #0]
 8001660:	460b      	mov	r3, r1
 8001662:	2201      	movs	r2, #1
 8001664:	2102      	movs	r1, #2
 8001666:	f7ff ff91 	bl	800158c <SPI_WaitFlagStateUntilTimeout>
 800166a:	b9d0      	cbnz	r0, 80016a2 <SPI_EndRxTxTransaction+0x4e>
    SET_BIT(hspi->ErrorCode, HAL_SPI_ERROR_FLAG);
    return HAL_TIMEOUT;
  }

  /* Timeout in us */
  count = SPI_BSY_FLAG_WORKAROUND_TIMEOUT * (SystemCoreClock / 24U / 1000000U);
 800166c:	4b17      	ldr	r3, [pc, #92]	@ (80016cc <SPI_EndRxTxTransaction+0x78>)
 800166e:	681b      	ldr	r3, [r3, #0]
 8001670:	4a17      	ldr	r2, [pc, #92]	@ (80016d0 <SPI_EndRxTxTransaction+0x7c>)
 8001672:	fba2 2303 	umull	r2, r3, r2, r3
 8001676:	0d5b      	lsrs	r3, r3, #21
 8001678:	f44f 727a 	mov.w	r2, #1000	@ 0x3e8
 800167c:	fb02 f303 	mul.w	r3, r2, r3
 8001680:	9303      	str	r3, [sp, #12]
  /* Erratasheet: BSY bit may stay high at the end of a data transfer in Slave mode */
  if (hspi->Init.Mode == SPI_MODE_MASTER)
 8001682:	6863      	ldr	r3, [r4, #4]
 8001684:	f5b3 7f82 	cmp.w	r3, #260	@ 0x104
 8001688:	d011      	beq.n	80016ae <SPI_EndRxTxTransaction+0x5a>
    * User have to calculate the timeout value to fit with the time of 1 byte transfer.
    * This time is directly link with the SPI clock from Master device.
    */
    do
    {
      if (count == 0U)
 800168a:	9b03      	ldr	r3, [sp, #12]
 800168c:	b13b      	cbz	r3, 800169e <SPI_EndRxTxTransaction+0x4a>
      {
        break;
      }
      count--;
 800168e:	9b03      	ldr	r3, [sp, #12]
 8001690:	3b01      	subs	r3, #1
 8001692:	9303      	str	r3, [sp, #12]
    } while (__HAL_SPI_GET_FLAG(hspi, SPI_FLAG_BSY) != RESET);
 8001694:	6823      	ldr	r3, [r4, #0]
 8001696:	689b      	ldr	r3, [r3, #8]
 8001698:	f013 0f80 	tst.w	r3, #128	@ 0x80
 800169c:	d1f5      	bne.n	800168a <SPI_EndRxTxTransaction+0x36>
  }

  return HAL_OK;
}
 800169e:	b004      	add	sp, #16
 80016a0:	bd70      	pop	{r4, r5, r6, pc}
    SET_BIT(hspi->ErrorCode, HAL_SPI_ERROR_FLAG);
 80016a2:	6d63      	ldr	r3, [r4, #84]	@ 0x54
 80016a4:	f043 0320 	orr.w	r3, r3, #32
 80016a8:	6563      	str	r3, [r4, #84]	@ 0x54
    return HAL_TIMEOUT;
 80016aa:	2003      	movs	r0, #3
 80016ac:	e7f7      	b.n	800169e <SPI_EndRxTxTransaction+0x4a>
    if (SPI_WaitFlagStateUntilTimeout(hspi, SPI_FLAG_BSY, RESET, Timeout, Tickstart) != HAL_OK)
 80016ae:	9600      	str	r6, [sp, #0]
 80016b0:	462b      	mov	r3, r5
 80016b2:	2200      	movs	r2, #0
 80016b4:	2180      	movs	r1, #128	@ 0x80
 80016b6:	4620      	mov	r0, r4
 80016b8:	f7ff ff68 	bl	800158c <SPI_WaitFlagStateUntilTimeout>
 80016bc:	2800      	cmp	r0, #0
 80016be:	d0ee      	beq.n	800169e <SPI_EndRxTxTransaction+0x4a>
      SET_BIT(hspi->ErrorCode, HAL_SPI_ERROR_FLAG);
 80016c0:	6d63      	ldr	r3, [r4, #84]	@ 0x54
 80016c2:	f043 0320 	orr.w	r3, r3, #32
 80016c6:	6563      	str	r3, [r4, #84]	@ 0x54
      return HAL_TIMEOUT;
 80016c8:	2003      	movs	r0, #3
 80016ca:	e7e8      	b.n	800169e <SPI_EndRxTxTransaction+0x4a>
 80016cc:	20000000 	.word	0x20000000
 80016d0:	165e9f81 	.word	0x165e9f81

080016d4 <SPI_EndRxTransaction>:
{
 80016d4:	b510      	push	{r4, lr}
 80016d6:	b082      	sub	sp, #8
 80016d8:	4604      	mov	r4, r0
 80016da:	460b      	mov	r3, r1
  if ((hspi->Init.Mode == SPI_MODE_MASTER) && ((hspi->Init.Direction == SPI_DIRECTION_1LINE)
 80016dc:	6841      	ldr	r1, [r0, #4]
 80016de:	f5b1 7f82 	cmp.w	r1, #260	@ 0x104
 80016e2:	d014      	beq.n	800170e <SPI_EndRxTransaction+0x3a>
  if (hspi->Init.Mode == SPI_MODE_MASTER)
 80016e4:	6861      	ldr	r1, [r4, #4]
 80016e6:	f5b1 7f82 	cmp.w	r1, #260	@ 0x104
 80016ea:	d12a      	bne.n	8001742 <SPI_EndRxTransaction+0x6e>
    if (hspi->Init.Direction != SPI_DIRECTION_2LINES_RXONLY)
 80016ec:	68a1      	ldr	r1, [r4, #8]
 80016ee:	f5b1 6f80 	cmp.w	r1, #1024	@ 0x400
 80016f2:	d019      	beq.n	8001728 <SPI_EndRxTransaction+0x54>
      if (SPI_WaitFlagStateUntilTimeout(hspi, SPI_FLAG_BSY, RESET, Timeout, Tickstart) != HAL_OK)
 80016f4:	9200      	str	r2, [sp, #0]
 80016f6:	2200      	movs	r2, #0
 80016f8:	2180      	movs	r1, #128	@ 0x80
 80016fa:	4620      	mov	r0, r4
 80016fc:	f7ff ff46 	bl	800158c <SPI_WaitFlagStateUntilTimeout>
 8001700:	b330      	cbz	r0, 8001750 <SPI_EndRxTransaction+0x7c>
        SET_BIT(hspi->ErrorCode, HAL_SPI_ERROR_FLAG);
 8001702:	6d63      	ldr	r3, [r4, #84]	@ 0x54
 8001704:	f043 0320 	orr.w	r3, r3, #32
 8001708:	6563      	str	r3, [r4, #84]	@ 0x54
        return HAL_TIMEOUT;
 800170a:	2003      	movs	r0, #3
 800170c:	e020      	b.n	8001750 <SPI_EndRxTransaction+0x7c>
  if ((hspi->Init.Mode == SPI_MODE_MASTER) && ((hspi->Init.Direction == SPI_DIRECTION_1LINE)
 800170e:	6881      	ldr	r1, [r0, #8]
 8001710:	f5b1 4f00 	cmp.w	r1, #32768	@ 0x8000
 8001714:	d002      	beq.n	800171c <SPI_EndRxTransaction+0x48>
                                               || (hspi->Init.Direction == SPI_DIRECTION_2LINES_RXONLY)))
 8001716:	f5b1 6f80 	cmp.w	r1, #1024	@ 0x400
 800171a:	d1e3      	bne.n	80016e4 <SPI_EndRxTransaction+0x10>
    __HAL_SPI_DISABLE(hspi);
 800171c:	6820      	ldr	r0, [r4, #0]
 800171e:	6801      	ldr	r1, [r0, #0]
 8001720:	f021 0140 	bic.w	r1, r1, #64	@ 0x40
 8001724:	6001      	str	r1, [r0, #0]
 8001726:	e7dd      	b.n	80016e4 <SPI_EndRxTransaction+0x10>
      if (SPI_WaitFlagStateUntilTimeout(hspi, SPI_FLAG_RXNE, RESET, Timeout, Tickstart) != HAL_OK)
 8001728:	9200      	str	r2, [sp, #0]
 800172a:	2200      	movs	r2, #0
 800172c:	2101      	movs	r1, #1
 800172e:	4620      	mov	r0, r4
 8001730:	f7ff ff2c 	bl	800158c <SPI_WaitFlagStateUntilTimeout>
 8001734:	b160      	cbz	r0, 8001750 <SPI_EndRxTransaction+0x7c>
        SET_BIT(hspi->ErrorCode, HAL_SPI_ERROR_FLAG);
 8001736:	6d63      	ldr	r3, [r4, #84]	@ 0x54
 8001738:	f043 0320 	orr.w	r3, r3, #32
 800173c:	6563      	str	r3, [r4, #84]	@ 0x54
        return HAL_TIMEOUT;
 800173e:	2003      	movs	r0, #3
 8001740:	e006      	b.n	8001750 <SPI_EndRxTransaction+0x7c>
    if (SPI_WaitFlagStateUntilTimeout(hspi, SPI_FLAG_RXNE, RESET, Timeout, Tickstart) != HAL_OK)
 8001742:	9200      	str	r2, [sp, #0]
 8001744:	2200      	movs	r2, #0
 8001746:	2101      	movs	r1, #1
 8001748:	4620      	mov	r0, r4
 800174a:	f7ff ff1f 	bl	800158c <SPI_WaitFlagStateUntilTimeout>
 800174e:	b908      	cbnz	r0, 8001754 <SPI_EndRxTransaction+0x80>
}
 8001750:	b002      	add	sp, #8
 8001752:	bd10      	pop	{r4, pc}
      SET_BIT(hspi->ErrorCode, HAL_SPI_ERROR_FLAG);
 8001754:	6d63      	ldr	r3, [r4, #84]	@ 0x54
 8001756:	f043 0320 	orr.w	r3, r3, #32
 800175a:	6563      	str	r3, [r4, #84]	@ 0x54
      return HAL_TIMEOUT;
 800175c:	2003      	movs	r0, #3
 800175e:	e7f7      	b.n	8001750 <SPI_EndRxTransaction+0x7c>

08001760 <HAL_SPI_Init>:
  if (hspi == NULL)
 8001760:	2800      	cmp	r0, #0
 8001762:	d05a      	beq.n	800181a <HAL_SPI_Init+0xba>
{
 8001764:	b510      	push	{r4, lr}
 8001766:	4604      	mov	r4, r0
  if (hspi->Init.TIMode == SPI_TIMODE_DISABLE)
 8001768:	6a43      	ldr	r3, [r0, #36]	@ 0x24
 800176a:	b933      	cbnz	r3, 800177a <HAL_SPI_Init+0x1a>
    if (hspi->Init.Mode == SPI_MODE_MASTER)
 800176c:	6843      	ldr	r3, [r0, #4]
 800176e:	f5b3 7f82 	cmp.w	r3, #260	@ 0x104
 8001772:	d005      	beq.n	8001780 <HAL_SPI_Init+0x20>
      hspi->Init.BaudRatePrescaler = SPI_BAUDRATEPRESCALER_2;
 8001774:	2300      	movs	r3, #0
 8001776:	61c3      	str	r3, [r0, #28]
 8001778:	e002      	b.n	8001780 <HAL_SPI_Init+0x20>
    hspi->Init.CLKPolarity = SPI_POLARITY_LOW;
 800177a:	2300      	movs	r3, #0
 800177c:	6103      	str	r3, [r0, #16]
    hspi->Init.CLKPhase    = SPI_PHASE_1EDGE;
 800177e:	6143      	str	r3, [r0, #20]
  hspi->Init.CRCCalculation = SPI_CRCCALCULATION_DISABLE;
 8001780:	2300      	movs	r3, #0
 8001782:	62a3      	str	r3, [r4, #40]	@ 0x28
  if (hspi->State == HAL_SPI_STATE_RESET)
 8001784:	f894 3051 	ldrb.w	r3, [r4, #81]	@ 0x51
 8001788:	2b00      	cmp	r3, #0
 800178a:	d040      	beq.n	800180e <HAL_SPI_Init+0xae>
  hspi->State = HAL_SPI_STATE_BUSY;
 800178c:	2302      	movs	r3, #2
 800178e:	f884 3051 	strb.w	r3, [r4, #81]	@ 0x51
  __HAL_SPI_DISABLE(hspi);
 8001792:	6822      	ldr	r2, [r4, #0]
 8001794:	6813      	ldr	r3, [r2, #0]
 8001796:	f023 0340 	bic.w	r3, r3, #64	@ 0x40
 800179a:	6013      	str	r3, [r2, #0]
  WRITE_REG(hspi->Instance->CR1, ((hspi->Init.Mode & (SPI_CR1_MSTR | SPI_CR1_SSI)) |
 800179c:	6863      	ldr	r3, [r4, #4]
 800179e:	f403 7382 	and.w	r3, r3, #260	@ 0x104
 80017a2:	68a2      	ldr	r2, [r4, #8]
 80017a4:	f402 4204 	and.w	r2, r2, #33792	@ 0x8400
 80017a8:	4313      	orrs	r3, r2
 80017aa:	68e2      	ldr	r2, [r4, #12]
 80017ac:	f402 6200 	and.w	r2, r2, #2048	@ 0x800
 80017b0:	4313      	orrs	r3, r2
 80017b2:	6922      	ldr	r2, [r4, #16]
 80017b4:	f002 0202 	and.w	r2, r2, #2
 80017b8:	4313      	orrs	r3, r2
 80017ba:	6962      	ldr	r2, [r4, #20]
 80017bc:	f002 0201 	and.w	r2, r2, #1
 80017c0:	4313      	orrs	r3, r2
 80017c2:	69a2      	ldr	r2, [r4, #24]
 80017c4:	f402 7200 	and.w	r2, r2, #512	@ 0x200
 80017c8:	4313      	orrs	r3, r2
 80017ca:	69e2      	ldr	r2, [r4, #28]
 80017cc:	f002 0238 	and.w	r2, r2, #56	@ 0x38
 80017d0:	4313      	orrs	r3, r2
 80017d2:	6a22      	ldr	r2, [r4, #32]
 80017d4:	f002 0280 	and.w	r2, r2, #128	@ 0x80
 80017d8:	4313      	orrs	r3, r2
 80017da:	6aa2      	ldr	r2, [r4, #40]	@ 0x28
 80017dc:	f402 5200 	and.w	r2, r2, #8192	@ 0x2000
 80017e0:	6821      	ldr	r1, [r4, #0]
 80017e2:	4313      	orrs	r3, r2
 80017e4:	600b      	str	r3, [r1, #0]
  WRITE_REG(hspi->Instance->CR2, (((hspi->Init.NSS >> 16U) & SPI_CR2_SSOE) | (hspi->Init.TIMode & SPI_CR2_FRF)));
 80017e6:	8b63      	ldrh	r3, [r4, #26]
 80017e8:	f003 0304 	and.w	r3, r3, #4
 80017ec:	6a62      	ldr	r2, [r4, #36]	@ 0x24
 80017ee:	f002 0210 	and.w	r2, r2, #16
 80017f2:	6821      	ldr	r1, [r4, #0]
 80017f4:	4313      	orrs	r3, r2
 80017f6:	604b      	str	r3, [r1, #4]
  CLEAR_BIT(hspi->Instance->I2SCFGR, SPI_I2SCFGR_I2SMOD);
 80017f8:	6822      	ldr	r2, [r4, #0]
 80017fa:	69d3      	ldr	r3, [r2, #28]
 80017fc:	f423 6300 	bic.w	r3, r3, #2048	@ 0x800
 8001800:	61d3      	str	r3, [r2, #28]
  hspi->ErrorCode = HAL_SPI_ERROR_NONE;
 8001802:	2000      	movs	r0, #0
 8001804:	6560      	str	r0, [r4, #84]	@ 0x54
  hspi->State     = HAL_SPI_STATE_READY;
 8001806:	2301      	movs	r3, #1
 8001808:	f884 3051 	strb.w	r3, [r4, #81]	@ 0x51
}
 800180c:	bd10      	pop	{r4, pc}
    hspi->Lock = HAL_UNLOCKED;
 800180e:	f884 3050 	strb.w	r3, [r4, #80]	@ 0x50
    HAL_SPI_MspInit(hspi);
 8001812:	4620      	mov	r0, r4
 8001814:	f7ff f89e 	bl	8000954 <HAL_SPI_MspInit>
 8001818:	e7b8      	b.n	800178c <HAL_SPI_Init+0x2c>
    return HAL_ERROR;
 800181a:	2001      	movs	r0, #1
}
 800181c:	4770      	bx	lr

0800181e <HAL_SPI_Transmit>:
{
 800181e:	e92d 43f0 	stmdb	sp!, {r4, r5, r6, r7, r8, r9, lr}
 8001822:	b083      	sub	sp, #12
 8001824:	4604      	mov	r4, r0
 8001826:	4689      	mov	r9, r1
 8001828:	4690      	mov	r8, r2
 800182a:	461d      	mov	r5, r3
  tickstart = HAL_GetTick();
 800182c:	f7ff f9dc 	bl	8000be8 <HAL_GetTick>
  if (hspi->State != HAL_SPI_STATE_READY)
 8001830:	f894 3051 	ldrb.w	r3, [r4, #81]	@ 0x51
 8001834:	2b01      	cmp	r3, #1
 8001836:	f040 80cd 	bne.w	80019d4 <HAL_SPI_Transmit+0x1b6>
 800183a:	4606      	mov	r6, r0
 800183c:	b2df      	uxtb	r7, r3
  if ((pData == NULL) || (Size == 0U))
 800183e:	f1b9 0f00 	cmp.w	r9, #0
 8001842:	f000 80c8 	beq.w	80019d6 <HAL_SPI_Transmit+0x1b8>
 8001846:	f1b8 0f00 	cmp.w	r8, #0
 800184a:	f000 80c4 	beq.w	80019d6 <HAL_SPI_Transmit+0x1b8>
  __HAL_LOCK(hspi);
 800184e:	f894 3050 	ldrb.w	r3, [r4, #80]	@ 0x50
 8001852:	2b01      	cmp	r3, #1
 8001854:	f000 80c3 	beq.w	80019de <HAL_SPI_Transmit+0x1c0>
 8001858:	2301      	movs	r3, #1
 800185a:	f884 3050 	strb.w	r3, [r4, #80]	@ 0x50
  hspi->State       = HAL_SPI_STATE_BUSY_TX;
 800185e:	2303      	movs	r3, #3
 8001860:	f884 3051 	strb.w	r3, [r4, #81]	@ 0x51
  hspi->ErrorCode   = HAL_SPI_ERROR_NONE;
 8001864:	2300      	movs	r3, #0
 8001866:	6563      	str	r3, [r4, #84]	@ 0x54
  hspi->pTxBuffPtr  = (const uint8_t *)pData;
 8001868:	f8c4 9030 	str.w	r9, [r4, #48]	@ 0x30
  hspi->TxXferSize  = Size;
 800186c:	f8a4 8034 	strh.w	r8, [r4, #52]	@ 0x34
  hspi->TxXferCount = Size;
 8001870:	f8a4 8036 	strh.w	r8, [r4, #54]	@ 0x36
  hspi->pRxBuffPtr  = (uint8_t *)NULL;
 8001874:	63a3      	str	r3, [r4, #56]	@ 0x38
  hspi->RxXferSize  = 0U;
 8001876:	87a3      	strh	r3, [r4, #60]	@ 0x3c
  hspi->RxXferCount = 0U;
 8001878:	87e3      	strh	r3, [r4, #62]	@ 0x3e
  hspi->TxISR       = NULL;
 800187a:	6463      	str	r3, [r4, #68]	@ 0x44
  hspi->RxISR       = NULL;
 800187c:	6423      	str	r3, [r4, #64]	@ 0x40
  if (hspi->Init.Direction == SPI_DIRECTION_1LINE)
 800187e:	68a3      	ldr	r3, [r4, #8]
 8001880:	f5b3 4f00 	cmp.w	r3, #32768	@ 0x8000
 8001884:	d01e      	beq.n	80018c4 <HAL_SPI_Transmit+0xa6>
  if ((hspi->Instance->CR1 & SPI_CR1_SPE) != SPI_CR1_SPE)
 8001886:	6823      	ldr	r3, [r4, #0]
 8001888:	681a      	ldr	r2, [r3, #0]
 800188a:	f012 0f40 	tst.w	r2, #64	@ 0x40
 800188e:	d103      	bne.n	8001898 <HAL_SPI_Transmit+0x7a>
    __HAL_SPI_ENABLE(hspi);
 8001890:	681a      	ldr	r2, [r3, #0]
 8001892:	f042 0240 	orr.w	r2, r2, #64	@ 0x40
 8001896:	601a      	str	r2, [r3, #0]
  if (hspi->Init.DataSize == SPI_DATASIZE_16BIT)
 8001898:	68e3      	ldr	r3, [r4, #12]
 800189a:	f5b3 6f00 	cmp.w	r3, #2048	@ 0x800
 800189e:	d01c      	beq.n	80018da <HAL_SPI_Transmit+0xbc>
    if ((hspi->Init.Mode == SPI_MODE_SLAVE) || (initial_TxXferCount == 0x01U))
 80018a0:	6863      	ldr	r3, [r4, #4]
 80018a2:	b113      	cbz	r3, 80018aa <HAL_SPI_Transmit+0x8c>
 80018a4:	f1b8 0f01 	cmp.w	r8, #1
 80018a8:	d15f      	bne.n	800196a <HAL_SPI_Transmit+0x14c>
      *((__IO uint8_t *)&hspi->Instance->DR) = *((const uint8_t *)hspi->pTxBuffPtr);
 80018aa:	6b22      	ldr	r2, [r4, #48]	@ 0x30
 80018ac:	6823      	ldr	r3, [r4, #0]
 80018ae:	7812      	ldrb	r2, [r2, #0]
 80018b0:	731a      	strb	r2, [r3, #12]
      hspi->pTxBuffPtr += sizeof(uint8_t);
 80018b2:	6b23      	ldr	r3, [r4, #48]	@ 0x30
 80018b4:	3301      	adds	r3, #1
 80018b6:	6323      	str	r3, [r4, #48]	@ 0x30
      hspi->TxXferCount--;
 80018b8:	8ee3      	ldrh	r3, [r4, #54]	@ 0x36
 80018ba:	b29b      	uxth	r3, r3
 80018bc:	3b01      	subs	r3, #1
 80018be:	b29b      	uxth	r3, r3
 80018c0:	86e3      	strh	r3, [r4, #54]	@ 0x36
 80018c2:	e052      	b.n	800196a <HAL_SPI_Transmit+0x14c>
    __HAL_SPI_DISABLE(hspi);
 80018c4:	6822      	ldr	r2, [r4, #0]
 80018c6:	6813      	ldr	r3, [r2, #0]
 80018c8:	f023 0340 	bic.w	r3, r3, #64	@ 0x40
 80018cc:	6013      	str	r3, [r2, #0]
    SPI_1LINE_TX(hspi);
 80018ce:	6822      	ldr	r2, [r4, #0]
 80018d0:	6813      	ldr	r3, [r2, #0]
 80018d2:	f443 4380 	orr.w	r3, r3, #16384	@ 0x4000
 80018d6:	6013      	str	r3, [r2, #0]
 80018d8:	e7d5      	b.n	8001886 <HAL_SPI_Transmit+0x68>
    if ((hspi->Init.Mode == SPI_MODE_SLAVE) || (initial_TxXferCount == 0x01U))
 80018da:	6863      	ldr	r3, [r4, #4]
 80018dc:	b113      	cbz	r3, 80018e4 <HAL_SPI_Transmit+0xc6>
 80018de:	f1b8 0f01 	cmp.w	r8, #1
 80018e2:	d115      	bne.n	8001910 <HAL_SPI_Transmit+0xf2>
      hspi->Instance->DR = *((const uint16_t *)hspi->pTxBuffPtr);
 80018e4:	6b22      	ldr	r2, [r4, #48]	@ 0x30
 80018e6:	6823      	ldr	r3, [r4, #0]
 80018e8:	8812      	ldrh	r2, [r2, #0]
 80018ea:	60da      	str	r2, [r3, #12]
      hspi->pTxBuffPtr += sizeof(uint16_t);
 80018ec:	6b23      	ldr	r3, [r4, #48]	@ 0x30
 80018ee:	3302      	adds	r3, #2
 80018f0:	6323      	str	r3, [r4, #48]	@ 0x30
      hspi->TxXferCount--;
 80018f2:	8ee3      	ldrh	r3, [r4, #54]	@ 0x36
 80018f4:	b29b      	uxth	r3, r3
 80018f6:	3b01      	subs	r3, #1
 80018f8:	b29b      	uxth	r3, r3
 80018fa:	86e3      	strh	r3, [r4, #54]	@ 0x36
 80018fc:	e008      	b.n	8001910 <HAL_SPI_Transmit+0xf2>
        if ((((HAL_GetTick() - tickstart) >=  Timeout) && (Timeout != HAL_MAX_DELAY)) || (Timeout == 0U))
 80018fe:	f7ff f973 	bl	8000be8 <HAL_GetTick>
 8001902:	1b80      	subs	r0, r0, r6
 8001904:	42a8      	cmp	r0, r5
 8001906:	d302      	bcc.n	800190e <HAL_SPI_Transmit+0xf0>
 8001908:	f1b5 3fff 	cmp.w	r5, #4294967295	@ 0xffffffff
 800190c:	d115      	bne.n	800193a <HAL_SPI_Transmit+0x11c>
 800190e:	b1a5      	cbz	r5, 800193a <HAL_SPI_Transmit+0x11c>
    while (hspi->TxXferCount > 0U)
 8001910:	8ee3      	ldrh	r3, [r4, #54]	@ 0x36
 8001912:	b29b      	uxth	r3, r3
 8001914:	2b00      	cmp	r3, #0
 8001916:	d042      	beq.n	800199e <HAL_SPI_Transmit+0x180>
      if (__HAL_SPI_GET_FLAG(hspi, SPI_FLAG_TXE))
 8001918:	6823      	ldr	r3, [r4, #0]
 800191a:	689a      	ldr	r2, [r3, #8]
 800191c:	f012 0f02 	tst.w	r2, #2
 8001920:	d0ed      	beq.n	80018fe <HAL_SPI_Transmit+0xe0>
        hspi->Instance->DR = *((const uint16_t *)hspi->pTxBuffPtr);
 8001922:	6b22      	ldr	r2, [r4, #48]	@ 0x30
 8001924:	8812      	ldrh	r2, [r2, #0]
 8001926:	60da      	str	r2, [r3, #12]
        hspi->pTxBuffPtr += sizeof(uint16_t);
 8001928:	6b23      	ldr	r3, [r4, #48]	@ 0x30
 800192a:	3302      	adds	r3, #2
 800192c:	6323      	str	r3, [r4, #48]	@ 0x30
        hspi->TxXferCount--;
 800192e:	8ee3      	ldrh	r3, [r4, #54]	@ 0x36
 8001930:	b29b      	uxth	r3, r3
 8001932:	3b01      	subs	r3, #1
 8001934:	b29b      	uxth	r3, r3
 8001936:	86e3      	strh	r3, [r4, #54]	@ 0x36
 8001938:	e7ea      	b.n	8001910 <HAL_SPI_Transmit+0xf2>
          hspi->State = HAL_SPI_STATE_READY;
 800193a:	2301      	movs	r3, #1
 800193c:	f884 3051 	strb.w	r3, [r4, #81]	@ 0x51
          __HAL_UNLOCK(hspi);
 8001940:	2300      	movs	r3, #0
 8001942:	f884 3050 	strb.w	r3, [r4, #80]	@ 0x50
          return HAL_TIMEOUT;
 8001946:	2703      	movs	r7, #3
 8001948:	e045      	b.n	80019d6 <HAL_SPI_Transmit+0x1b8>
        *((__IO uint8_t *)&hspi->Instance->DR) = *((const uint8_t *)hspi->pTxBuffPtr);
 800194a:	6b22      	ldr	r2, [r4, #48]	@ 0x30
 800194c:	7812      	ldrb	r2, [r2, #0]
 800194e:	731a      	strb	r2, [r3, #12]
        hspi->pTxBuffPtr += sizeof(uint8_t);
 8001950:	6b23      	ldr	r3, [r4, #48]	@ 0x30
 8001952:	3301      	adds	r3, #1
 8001954:	6323      	str	r3, [r4, #48]	@ 0x30
        hspi->TxXferCount--;
 8001956:	f8b4 c036 	ldrh.w	ip, [r4, #54]	@ 0x36
 800195a:	fa1f fc8c 	uxth.w	ip, ip
 800195e:	f10c 3cff 	add.w	ip, ip, #4294967295	@ 0xffffffff
 8001962:	fa1f fc8c 	uxth.w	ip, ip
 8001966:	f8a4 c036 	strh.w	ip, [r4, #54]	@ 0x36
    while (hspi->TxXferCount > 0U)
 800196a:	8ee3      	ldrh	r3, [r4, #54]	@ 0x36
 800196c:	b29b      	uxth	r3, r3
 800196e:	b1b3      	cbz	r3, 800199e <HAL_SPI_Transmit+0x180>
      if (__HAL_SPI_GET_FLAG(hspi, SPI_FLAG_TXE))
 8001970:	6823      	ldr	r3, [r4, #0]
 8001972:	689a      	ldr	r2, [r3, #8]
 8001974:	f012 0f02 	tst.w	r2, #2
 8001978:	d1e7      	bne.n	800194a <HAL_SPI_Transmit+0x12c>
        if ((((HAL_GetTick() - tickstart) >=  Timeout) && (Timeout != HAL_MAX_DELAY)) || (Timeout == 0U))
 800197a:	f7ff f935 	bl	8000be8 <HAL_GetTick>
 800197e:	1b80      	subs	r0, r0, r6
 8001980:	42a8      	cmp	r0, r5
 8001982:	d302      	bcc.n	800198a <HAL_SPI_Transmit+0x16c>
 8001984:	f1b5 3fff 	cmp.w	r5, #4294967295	@ 0xffffffff
 8001988:	d101      	bne.n	800198e <HAL_SPI_Transmit+0x170>
 800198a:	2d00      	cmp	r5, #0
 800198c:	d1ed      	bne.n	800196a <HAL_SPI_Transmit+0x14c>
          hspi->State = HAL_SPI_STATE_READY;
 800198e:	2301      	movs	r3, #1
 8001990:	f884 3051 	strb.w	r3, [r4, #81]	@ 0x51
          __HAL_UNLOCK(hspi);
 8001994:	2300      	movs	r3, #0
 8001996:	f884 3050 	strb.w	r3, [r4, #80]	@ 0x50
          return HAL_TIMEOUT;
 800199a:	2703      	movs	r7, #3
 800199c:	e01b      	b.n	80019d6 <HAL_SPI_Transmit+0x1b8>
  if (SPI_EndRxTxTransaction(hspi, Timeout, tickstart) != HAL_OK)
 800199e:	4632      	mov	r2, r6
 80019a0:	4629      	mov	r1, r5
 80019a2:	4620      	mov	r0, r4
 80019a4:	f7ff fe56 	bl	8001654 <SPI_EndRxTxTransaction>
 80019a8:	b108      	cbz	r0, 80019ae <HAL_SPI_Transmit+0x190>
    hspi->ErrorCode = HAL_SPI_ERROR_FLAG;
 80019aa:	2320      	movs	r3, #32
 80019ac:	6563      	str	r3, [r4, #84]	@ 0x54
  if (hspi->Init.Direction == SPI_DIRECTION_2LINES)
 80019ae:	68a3      	ldr	r3, [r4, #8]
 80019b0:	b933      	cbnz	r3, 80019c0 <HAL_SPI_Transmit+0x1a2>
    __HAL_SPI_CLEAR_OVRFLAG(hspi);
 80019b2:	9301      	str	r3, [sp, #4]
 80019b4:	6823      	ldr	r3, [r4, #0]
 80019b6:	68da      	ldr	r2, [r3, #12]
 80019b8:	9201      	str	r2, [sp, #4]
 80019ba:	689b      	ldr	r3, [r3, #8]
 80019bc:	9301      	str	r3, [sp, #4]
 80019be:	9b01      	ldr	r3, [sp, #4]
  hspi->State = HAL_SPI_STATE_READY;
 80019c0:	2301      	movs	r3, #1
 80019c2:	f884 3051 	strb.w	r3, [r4, #81]	@ 0x51
  __HAL_UNLOCK(hspi);
 80019c6:	2300      	movs	r3, #0
 80019c8:	f884 3050 	strb.w	r3, [r4, #80]	@ 0x50
  if (hspi->ErrorCode != HAL_SPI_ERROR_NONE)
 80019cc:	6d63      	ldr	r3, [r4, #84]	@ 0x54
 80019ce:	b913      	cbnz	r3, 80019d6 <HAL_SPI_Transmit+0x1b8>
    return HAL_OK;
 80019d0:	2700      	movs	r7, #0
 80019d2:	e000      	b.n	80019d6 <HAL_SPI_Transmit+0x1b8>
    return HAL_BUSY;
 80019d4:	2702      	movs	r7, #2
}
 80019d6:	4638      	mov	r0, r7
 80019d8:	b003      	add	sp, #12
 80019da:	e8bd 83f0 	ldmia.w	sp!, {r4, r5, r6, r7, r8, r9, pc}
  __HAL_LOCK(hspi);
 80019de:	2702      	movs	r7, #2
 80019e0:	e7f9      	b.n	80019d6 <HAL_SPI_Transmit+0x1b8>

080019e2 <HAL_SPI_TransmitReceive>:
{
 80019e2:	e92d 43f0 	stmdb	sp!, {r4, r5, r6, r7, r8, r9, lr}
 80019e6:	b083      	sub	sp, #12
 80019e8:	4604      	mov	r4, r0
 80019ea:	4688      	mov	r8, r1
 80019ec:	4691      	mov	r9, r2
 80019ee:	461f      	mov	r7, r3
 80019f0:	9d0a      	ldr	r5, [sp, #40]	@ 0x28
  tickstart = HAL_GetTick();
 80019f2:	f7ff f8f9 	bl	8000be8 <HAL_GetTick>
 80019f6:	4606      	mov	r6, r0
  tmp_state           = hspi->State;
 80019f8:	f894 3051 	ldrb.w	r3, [r4, #81]	@ 0x51
  tmp_mode            = hspi->Init.Mode;
 80019fc:	6862      	ldr	r2, [r4, #4]
  if (!((tmp_state == HAL_SPI_STATE_READY) || \
 80019fe:	2b01      	cmp	r3, #1
 8001a00:	d00b      	beq.n	8001a1a <HAL_SPI_TransmitReceive+0x38>
 8001a02:	b2d9      	uxtb	r1, r3
 8001a04:	f5b2 7f82 	cmp.w	r2, #260	@ 0x104
 8001a08:	f040 8104 	bne.w	8001c14 <HAL_SPI_TransmitReceive+0x232>
        ((tmp_mode == SPI_MODE_MASTER) && (hspi->Init.Direction == SPI_DIRECTION_2LINES) &&
 8001a0c:	68a3      	ldr	r3, [r4, #8]
 8001a0e:	2b00      	cmp	r3, #0
 8001a10:	f040 8104 	bne.w	8001c1c <HAL_SPI_TransmitReceive+0x23a>
 8001a14:	2904      	cmp	r1, #4
 8001a16:	f040 8103 	bne.w	8001c20 <HAL_SPI_TransmitReceive+0x23e>
  if ((pTxData == NULL) || (pRxData == NULL) || (Size == 0U))
 8001a1a:	f1b8 0f00 	cmp.w	r8, #0
 8001a1e:	f000 8101 	beq.w	8001c24 <HAL_SPI_TransmitReceive+0x242>
 8001a22:	f1b9 0f00 	cmp.w	r9, #0
 8001a26:	f000 80ff 	beq.w	8001c28 <HAL_SPI_TransmitReceive+0x246>
 8001a2a:	2f00      	cmp	r7, #0
 8001a2c:	f000 80fe 	beq.w	8001c2c <HAL_SPI_TransmitReceive+0x24a>
  __HAL_LOCK(hspi);
 8001a30:	f894 3050 	ldrb.w	r3, [r4, #80]	@ 0x50
 8001a34:	2b01      	cmp	r3, #1
 8001a36:	f000 80fb 	beq.w	8001c30 <HAL_SPI_TransmitReceive+0x24e>
 8001a3a:	2301      	movs	r3, #1
 8001a3c:	f884 3050 	strb.w	r3, [r4, #80]	@ 0x50
  if (hspi->State != HAL_SPI_STATE_BUSY_RX)
 8001a40:	f894 3051 	ldrb.w	r3, [r4, #81]	@ 0x51
 8001a44:	2b04      	cmp	r3, #4
 8001a46:	d002      	beq.n	8001a4e <HAL_SPI_TransmitReceive+0x6c>
    hspi->State = HAL_SPI_STATE_BUSY_TX_RX;
 8001a48:	2305      	movs	r3, #5
 8001a4a:	f884 3051 	strb.w	r3, [r4, #81]	@ 0x51
  hspi->ErrorCode   = HAL_SPI_ERROR_NONE;
 8001a4e:	2300      	movs	r3, #0
 8001a50:	6563      	str	r3, [r4, #84]	@ 0x54
  hspi->pRxBuffPtr  = (uint8_t *)pRxData;
 8001a52:	f8c4 9038 	str.w	r9, [r4, #56]	@ 0x38
  hspi->RxXferCount = Size;
 8001a56:	87e7      	strh	r7, [r4, #62]	@ 0x3e
  hspi->RxXferSize  = Size;
 8001a58:	87a7      	strh	r7, [r4, #60]	@ 0x3c
  hspi->pTxBuffPtr  = (const uint8_t *)pTxData;
 8001a5a:	f8c4 8030 	str.w	r8, [r4, #48]	@ 0x30
  hspi->TxXferCount = Size;
 8001a5e:	86e7      	strh	r7, [r4, #54]	@ 0x36
  hspi->TxXferSize  = Size;
 8001a60:	86a7      	strh	r7, [r4, #52]	@ 0x34
  hspi->RxISR       = NULL;
 8001a62:	6423      	str	r3, [r4, #64]	@ 0x40
  hspi->TxISR       = NULL;
 8001a64:	6463      	str	r3, [r4, #68]	@ 0x44
  if ((hspi->Instance->CR1 & SPI_CR1_SPE) != SPI_CR1_SPE)
 8001a66:	6823      	ldr	r3, [r4, #0]
 8001a68:	681a      	ldr	r2, [r3, #0]
 8001a6a:	f012 0f40 	tst.w	r2, #64	@ 0x40
 8001a6e:	d103      	bne.n	8001a78 <HAL_SPI_TransmitReceive+0x96>
    __HAL_SPI_ENABLE(hspi);
 8001a70:	681a      	ldr	r2, [r3, #0]
 8001a72:	f042 0240 	orr.w	r2, r2, #64	@ 0x40
 8001a76:	601a      	str	r2, [r3, #0]
  if (hspi->Init.DataSize == SPI_DATASIZE_16BIT)
 8001a78:	68e3      	ldr	r3, [r4, #12]
 8001a7a:	f5b3 6f00 	cmp.w	r3, #2048	@ 0x800
 8001a7e:	d011      	beq.n	8001aa4 <HAL_SPI_TransmitReceive+0xc2>
    if ((hspi->Init.Mode == SPI_MODE_SLAVE) || (initial_TxXferCount == 0x01U))
 8001a80:	6863      	ldr	r3, [r4, #4]
 8001a82:	b10b      	cbz	r3, 8001a88 <HAL_SPI_TransmitReceive+0xa6>
 8001a84:	2f01      	cmp	r7, #1
 8001a86:	d10b      	bne.n	8001aa0 <HAL_SPI_TransmitReceive+0xbe>
      *((__IO uint8_t *)&hspi->Instance->DR) = *((const uint8_t *)hspi->pTxBuffPtr);
 8001a88:	6b22      	ldr	r2, [r4, #48]	@ 0x30
 8001a8a:	6823      	ldr	r3, [r4, #0]
 8001a8c:	7812      	ldrb	r2, [r2, #0]
 8001a8e:	731a      	strb	r2, [r3, #12]
      hspi->pTxBuffPtr += sizeof(uint8_t);
 8001a90:	6b23      	ldr	r3, [r4, #48]	@ 0x30
 8001a92:	3301      	adds	r3, #1
 8001a94:	6323      	str	r3, [r4, #48]	@ 0x30
      hspi->TxXferCount--;
 8001a96:	8ee3      	ldrh	r3, [r4, #54]	@ 0x36
 8001a98:	b29b      	uxth	r3, r3
 8001a9a:	3b01      	subs	r3, #1
 8001a9c:	b29b      	uxth	r3, r3
 8001a9e:	86e3      	strh	r3, [r4, #54]	@ 0x36
        txallowed = 1U;
 8001aa0:	2701      	movs	r7, #1
 8001aa2:	e071      	b.n	8001b88 <HAL_SPI_TransmitReceive+0x1a6>
    if ((hspi->Init.Mode == SPI_MODE_SLAVE) || (initial_TxXferCount == 0x01U))
 8001aa4:	6863      	ldr	r3, [r4, #4]
 8001aa6:	b10b      	cbz	r3, 8001aac <HAL_SPI_TransmitReceive+0xca>
 8001aa8:	2f01      	cmp	r7, #1
 8001aaa:	d10b      	bne.n	8001ac4 <HAL_SPI_TransmitReceive+0xe2>
      hspi->Instance->DR = *((const uint16_t *)hspi->pTxBuffPtr);
 8001aac:	6b22      	ldr	r2, [r4, #48]	@ 0x30
 8001aae:	6823      	ldr	r3, [r4, #0]
 8001ab0:	8812      	ldrh	r2, [r2, #0]
 8001ab2:	60da      	str	r2, [r3, #12]
      hspi->pTxBuffPtr += sizeof(uint16_t);
 8001ab4:	6b23      	ldr	r3, [r4, #48]	@ 0x30
 8001ab6:	3302      	adds	r3, #2
 8001ab8:	6323      	str	r3, [r4, #48]	@ 0x30
      hspi->TxXferCount--;
 8001aba:	8ee3      	ldrh	r3, [r4, #54]	@ 0x36
 8001abc:	b29b      	uxth	r3, r3
 8001abe:	3b01      	subs	r3, #1
 8001ac0:	b29b      	uxth	r3, r3
 8001ac2:	86e3      	strh	r3, [r4, #54]	@ 0x36
        txallowed = 1U;
 8001ac4:	2701      	movs	r7, #1
 8001ac6:	e01b      	b.n	8001b00 <HAL_SPI_TransmitReceive+0x11e>
      if ((__HAL_SPI_GET_FLAG(hspi, SPI_FLAG_RXNE)) && (hspi->RxXferCount > 0U))
 8001ac8:	6823      	ldr	r3, [r4, #0]
 8001aca:	689a      	ldr	r2, [r3, #8]
 8001acc:	f012 0f01 	tst.w	r2, #1
 8001ad0:	d00e      	beq.n	8001af0 <HAL_SPI_TransmitReceive+0x10e>
 8001ad2:	8fe2      	ldrh	r2, [r4, #62]	@ 0x3e
 8001ad4:	b292      	uxth	r2, r2
 8001ad6:	b15a      	cbz	r2, 8001af0 <HAL_SPI_TransmitReceive+0x10e>
        *((uint16_t *)hspi->pRxBuffPtr) = (uint16_t)hspi->Instance->DR;
 8001ad8:	68da      	ldr	r2, [r3, #12]
 8001ada:	6ba3      	ldr	r3, [r4, #56]	@ 0x38
 8001adc:	801a      	strh	r2, [r3, #0]
        hspi->pRxBuffPtr += sizeof(uint16_t);
 8001ade:	6ba3      	ldr	r3, [r4, #56]	@ 0x38
 8001ae0:	3302      	adds	r3, #2
 8001ae2:	63a3      	str	r3, [r4, #56]	@ 0x38
        hspi->RxXferCount--;
 8001ae4:	8fe3      	ldrh	r3, [r4, #62]	@ 0x3e
 8001ae6:	b29b      	uxth	r3, r3
 8001ae8:	3b01      	subs	r3, #1
 8001aea:	b29b      	uxth	r3, r3
 8001aec:	87e3      	strh	r3, [r4, #62]	@ 0x3e
        txallowed = 1U;
 8001aee:	2701      	movs	r7, #1
      if (((HAL_GetTick() - tickstart) >=  Timeout) && (Timeout != HAL_MAX_DELAY))
 8001af0:	f7ff f87a 	bl	8000be8 <HAL_GetTick>
 8001af4:	1b80      	subs	r0, r0, r6
 8001af6:	42a8      	cmp	r0, r5
 8001af8:	d302      	bcc.n	8001b00 <HAL_SPI_TransmitReceive+0x11e>
 8001afa:	f1b5 3fff 	cmp.w	r5, #4294967295	@ 0xffffffff
 8001afe:	d11e      	bne.n	8001b3e <HAL_SPI_TransmitReceive+0x15c>
    while ((hspi->TxXferCount > 0U) || (hspi->RxXferCount > 0U))
 8001b00:	8ee3      	ldrh	r3, [r4, #54]	@ 0x36
 8001b02:	b29b      	uxth	r3, r3
 8001b04:	b91b      	cbnz	r3, 8001b0e <HAL_SPI_TransmitReceive+0x12c>
 8001b06:	8fe3      	ldrh	r3, [r4, #62]	@ 0x3e
 8001b08:	b29b      	uxth	r3, r3
 8001b0a:	2b00      	cmp	r3, #0
 8001b0c:	d062      	beq.n	8001bd4 <HAL_SPI_TransmitReceive+0x1f2>
      if ((__HAL_SPI_GET_FLAG(hspi, SPI_FLAG_TXE)) && (hspi->TxXferCount > 0U) && (txallowed == 1U))
 8001b0e:	6823      	ldr	r3, [r4, #0]
 8001b10:	689a      	ldr	r2, [r3, #8]
 8001b12:	f012 0f02 	tst.w	r2, #2
 8001b16:	d0d7      	beq.n	8001ac8 <HAL_SPI_TransmitReceive+0xe6>
 8001b18:	8ee2      	ldrh	r2, [r4, #54]	@ 0x36
 8001b1a:	b292      	uxth	r2, r2
 8001b1c:	2a00      	cmp	r2, #0
 8001b1e:	d0d3      	beq.n	8001ac8 <HAL_SPI_TransmitReceive+0xe6>
 8001b20:	2f00      	cmp	r7, #0
 8001b22:	d0d1      	beq.n	8001ac8 <HAL_SPI_TransmitReceive+0xe6>
        hspi->Instance->DR = *((const uint16_t *)hspi->pTxBuffPtr);
 8001b24:	6b22      	ldr	r2, [r4, #48]	@ 0x30
 8001b26:	8812      	ldrh	r2, [r2, #0]
 8001b28:	60da      	str	r2, [r3, #12]
        hspi->pTxBuffPtr += sizeof(uint16_t);
 8001b2a:	6b23      	ldr	r3, [r4, #48]	@ 0x30
 8001b2c:	3302      	adds	r3, #2
 8001b2e:	6323      	str	r3, [r4, #48]	@ 0x30
        hspi->TxXferCount--;
 8001b30:	8ee3      	ldrh	r3, [r4, #54]	@ 0x36
 8001b32:	b29b      	uxth	r3, r3
 8001b34:	3b01      	subs	r3, #1
 8001b36:	b29b      	uxth	r3, r3
 8001b38:	86e3      	strh	r3, [r4, #54]	@ 0x36
        txallowed = 0U;
 8001b3a:	2700      	movs	r7, #0
 8001b3c:	e7c4      	b.n	8001ac8 <HAL_SPI_TransmitReceive+0xe6>
        hspi->State = HAL_SPI_STATE_READY;
 8001b3e:	2301      	movs	r3, #1
 8001b40:	f884 3051 	strb.w	r3, [r4, #81]	@ 0x51
        __HAL_UNLOCK(hspi);
 8001b44:	2300      	movs	r3, #0
 8001b46:	f884 3050 	strb.w	r3, [r4, #80]	@ 0x50
        return HAL_TIMEOUT;
 8001b4a:	2003      	movs	r0, #3
 8001b4c:	e063      	b.n	8001c16 <HAL_SPI_TransmitReceive+0x234>
      if ((__HAL_SPI_GET_FLAG(hspi, SPI_FLAG_RXNE)) && (hspi->RxXferCount > 0U))
 8001b4e:	6823      	ldr	r3, [r4, #0]
 8001b50:	689a      	ldr	r2, [r3, #8]
 8001b52:	f012 0f01 	tst.w	r2, #1
 8001b56:	d00e      	beq.n	8001b76 <HAL_SPI_TransmitReceive+0x194>
 8001b58:	8fe2      	ldrh	r2, [r4, #62]	@ 0x3e
 8001b5a:	b292      	uxth	r2, r2
 8001b5c:	b15a      	cbz	r2, 8001b76 <HAL_SPI_TransmitReceive+0x194>
        (*(uint8_t *)hspi->pRxBuffPtr) = hspi->Instance->DR;
 8001b5e:	68da      	ldr	r2, [r3, #12]
 8001b60:	6ba3      	ldr	r3, [r4, #56]	@ 0x38
 8001b62:	701a      	strb	r2, [r3, #0]
        hspi->pRxBuffPtr++;
 8001b64:	6ba3      	ldr	r3, [r4, #56]	@ 0x38
 8001b66:	3301      	adds	r3, #1
 8001b68:	63a3      	str	r3, [r4, #56]	@ 0x38
        hspi->RxXferCount--;
 8001b6a:	8fe3      	ldrh	r3, [r4, #62]	@ 0x3e
 8001b6c:	b29b      	uxth	r3, r3
 8001b6e:	3b01      	subs	r3, #1
 8001b70:	b29b      	uxth	r3, r3
 8001b72:	87e3      	strh	r3, [r4, #62]	@ 0x3e
        txallowed = 1U;
 8001b74:	2701      	movs	r7, #1
      if ((((HAL_GetTick() - tickstart) >=  Timeout) && ((Timeout != HAL_MAX_DELAY))) || (Timeout == 0U))
 8001b76:	f7ff f837 	bl	8000be8 <HAL_GetTick>
 8001b7a:	1b83      	subs	r3, r0, r6
 8001b7c:	42ab      	cmp	r3, r5
 8001b7e:	d302      	bcc.n	8001b86 <HAL_SPI_TransmitReceive+0x1a4>
 8001b80:	f1b5 3fff 	cmp.w	r5, #4294967295	@ 0xffffffff
 8001b84:	d11e      	bne.n	8001bc4 <HAL_SPI_TransmitReceive+0x1e2>
 8001b86:	b1ed      	cbz	r5, 8001bc4 <HAL_SPI_TransmitReceive+0x1e2>
    while ((hspi->TxXferCount > 0U) || (hspi->RxXferCount > 0U))
 8001b88:	8ee3      	ldrh	r3, [r4, #54]	@ 0x36
 8001b8a:	b29b      	uxth	r3, r3
 8001b8c:	b913      	cbnz	r3, 8001b94 <HAL_SPI_TransmitReceive+0x1b2>
 8001b8e:	8fe3      	ldrh	r3, [r4, #62]	@ 0x3e
 8001b90:	b29b      	uxth	r3, r3
 8001b92:	b1fb      	cbz	r3, 8001bd4 <HAL_SPI_TransmitReceive+0x1f2>
      if ((__HAL_SPI_GET_FLAG(hspi, SPI_FLAG_TXE)) && (hspi->TxXferCount > 0U) && (txallowed == 1U))
 8001b94:	6823      	ldr	r3, [r4, #0]
 8001b96:	689a      	ldr	r2, [r3, #8]
 8001b98:	f012 0f02 	tst.w	r2, #2
 8001b9c:	d0d7      	beq.n	8001b4e <HAL_SPI_TransmitReceive+0x16c>
 8001b9e:	8ee2      	ldrh	r2, [r4, #54]	@ 0x36
 8001ba0:	b292      	uxth	r2, r2
 8001ba2:	2a00      	cmp	r2, #0
 8001ba4:	d0d3      	beq.n	8001b4e <HAL_SPI_TransmitReceive+0x16c>
 8001ba6:	2f00      	cmp	r7, #0
 8001ba8:	d0d1      	beq.n	8001b4e <HAL_SPI_TransmitReceive+0x16c>
        *(__IO uint8_t *)&hspi->Instance->DR = *((const uint8_t *)hspi->pTxBuffPtr);
 8001baa:	6b22      	ldr	r2, [r4, #48]	@ 0x30
 8001bac:	7812      	ldrb	r2, [r2, #0]
 8001bae:	731a      	strb	r2, [r3, #12]
        hspi->pTxBuffPtr++;
 8001bb0:	6b23      	ldr	r3, [r4, #48]	@ 0x30
 8001bb2:	3301      	adds	r3, #1
 8001bb4:	6323      	str	r3, [r4, #48]	@ 0x30
        hspi->TxXferCount--;
 8001bb6:	8ee3      	ldrh	r3, [r4, #54]	@ 0x36
 8001bb8:	b29b      	uxth	r3, r3
 8001bba:	3b01      	subs	r3, #1
 8001bbc:	b29b      	uxth	r3, r3
 8001bbe:	86e3      	strh	r3, [r4, #54]	@ 0x36
        txallowed = 0U;
 8001bc0:	2700      	movs	r7, #0
 8001bc2:	e7c4      	b.n	8001b4e <HAL_SPI_TransmitReceive+0x16c>
        hspi->State = HAL_SPI_STATE_READY;
 8001bc4:	2301      	movs	r3, #1
 8001bc6:	f884 3051 	strb.w	r3, [r4, #81]	@ 0x51
        __HAL_UNLOCK(hspi);
 8001bca:	2300      	movs	r3, #0
 8001bcc:	f884 3050 	strb.w	r3, [r4, #80]	@ 0x50
        return HAL_TIMEOUT;
 8001bd0:	2003      	movs	r0, #3
 8001bd2:	e020      	b.n	8001c16 <HAL_SPI_TransmitReceive+0x234>
  if (SPI_EndRxTxTransaction(hspi, Timeout, tickstart) != HAL_OK)
 8001bd4:	4632      	mov	r2, r6
 8001bd6:	4629      	mov	r1, r5
 8001bd8:	4620      	mov	r0, r4
 8001bda:	f7ff fd3b 	bl	8001654 <SPI_EndRxTxTransaction>
 8001bde:	b990      	cbnz	r0, 8001c06 <HAL_SPI_TransmitReceive+0x224>
  if (hspi->Init.Direction == SPI_DIRECTION_2LINES)
 8001be0:	68a3      	ldr	r3, [r4, #8]
 8001be2:	b933      	cbnz	r3, 8001bf2 <HAL_SPI_TransmitReceive+0x210>
    __HAL_SPI_CLEAR_OVRFLAG(hspi);
 8001be4:	9301      	str	r3, [sp, #4]
 8001be6:	6823      	ldr	r3, [r4, #0]
 8001be8:	68da      	ldr	r2, [r3, #12]
 8001bea:	9201      	str	r2, [sp, #4]
 8001bec:	689b      	ldr	r3, [r3, #8]
 8001bee:	9301      	str	r3, [sp, #4]
 8001bf0:	9b01      	ldr	r3, [sp, #4]
  hspi->State = HAL_SPI_STATE_READY;
 8001bf2:	2301      	movs	r3, #1
 8001bf4:	f884 3051 	strb.w	r3, [r4, #81]	@ 0x51
  __HAL_UNLOCK(hspi);
 8001bf8:	2300      	movs	r3, #0
 8001bfa:	f884 3050 	strb.w	r3, [r4, #80]	@ 0x50
  if (hspi->ErrorCode != HAL_SPI_ERROR_NONE)
 8001bfe:	6d63      	ldr	r3, [r4, #84]	@ 0x54
 8001c00:	b14b      	cbz	r3, 8001c16 <HAL_SPI_TransmitReceive+0x234>
    return HAL_ERROR;
 8001c02:	2001      	movs	r0, #1
 8001c04:	e007      	b.n	8001c16 <HAL_SPI_TransmitReceive+0x234>
    hspi->ErrorCode = HAL_SPI_ERROR_FLAG;
 8001c06:	2320      	movs	r3, #32
 8001c08:	6563      	str	r3, [r4, #84]	@ 0x54
    __HAL_UNLOCK(hspi);
 8001c0a:	2300      	movs	r3, #0
 8001c0c:	f884 3050 	strb.w	r3, [r4, #80]	@ 0x50
    return HAL_ERROR;
 8001c10:	2001      	movs	r0, #1
 8001c12:	e000      	b.n	8001c16 <HAL_SPI_TransmitReceive+0x234>
    return HAL_BUSY;
 8001c14:	2002      	movs	r0, #2
}
 8001c16:	b003      	add	sp, #12
 8001c18:	e8bd 83f0 	ldmia.w	sp!, {r4, r5, r6, r7, r8, r9, pc}
    return HAL_BUSY;
 8001c1c:	2002      	movs	r0, #2
 8001c1e:	e7fa      	b.n	8001c16 <HAL_SPI_TransmitReceive+0x234>
 8001c20:	2002      	movs	r0, #2
 8001c22:	e7f8      	b.n	8001c16 <HAL_SPI_TransmitReceive+0x234>
    return HAL_ERROR;
 8001c24:	2001      	movs	r0, #1
 8001c26:	e7f6      	b.n	8001c16 <HAL_SPI_TransmitReceive+0x234>
 8001c28:	2001      	movs	r0, #1
 8001c2a:	e7f4      	b.n	8001c16 <HAL_SPI_TransmitReceive+0x234>
 8001c2c:	2001      	movs	r0, #1
 8001c2e:	e7f2      	b.n	8001c16 <HAL_SPI_TransmitReceive+0x234>
  __HAL_LOCK(hspi);
 8001c30:	2002      	movs	r0, #2
 8001c32:	e7f0      	b.n	8001c16 <HAL_SPI_TransmitReceive+0x234>

08001c34 <HAL_SPI_Receive>:
{
 8001c34:	e92d 43f0 	stmdb	sp!, {r4, r5, r6, r7, r8, r9, lr}
 8001c38:	b083      	sub	sp, #12
 8001c3a:	461d      	mov	r5, r3
  if (hspi->State != HAL_SPI_STATE_READY)
 8001c3c:	f890 3051 	ldrb.w	r3, [r0, #81]	@ 0x51
 8001c40:	2b01      	cmp	r3, #1
 8001c42:	f040 80b2 	bne.w	8001daa <HAL_SPI_Receive+0x176>
 8001c46:	4604      	mov	r4, r0
 8001c48:	4689      	mov	r9, r1
 8001c4a:	4690      	mov	r8, r2
 8001c4c:	b2df      	uxtb	r7, r3
  if ((pData == NULL) || (Size == 0U))
 8001c4e:	2900      	cmp	r1, #0
 8001c50:	f000 80ac 	beq.w	8001dac <HAL_SPI_Receive+0x178>
 8001c54:	2a00      	cmp	r2, #0
 8001c56:	f000 80a9 	beq.w	8001dac <HAL_SPI_Receive+0x178>
  if ((hspi->Init.Mode == SPI_MODE_MASTER) && (hspi->Init.Direction == SPI_DIRECTION_2LINES))
 8001c5a:	6843      	ldr	r3, [r0, #4]
 8001c5c:	f5b3 7f82 	cmp.w	r3, #260	@ 0x104
 8001c60:	d101      	bne.n	8001c66 <HAL_SPI_Receive+0x32>
 8001c62:	6883      	ldr	r3, [r0, #8]
 8001c64:	b353      	cbz	r3, 8001cbc <HAL_SPI_Receive+0x88>
  tickstart = HAL_GetTick();
 8001c66:	f7fe ffbf 	bl	8000be8 <HAL_GetTick>
 8001c6a:	4606      	mov	r6, r0
  __HAL_LOCK(hspi);
 8001c6c:	f894 3050 	ldrb.w	r3, [r4, #80]	@ 0x50
 8001c70:	2b01      	cmp	r3, #1
 8001c72:	f000 809f 	beq.w	8001db4 <HAL_SPI_Receive+0x180>
 8001c76:	2301      	movs	r3, #1
 8001c78:	f884 3050 	strb.w	r3, [r4, #80]	@ 0x50
  hspi->State       = HAL_SPI_STATE_BUSY_RX;
 8001c7c:	2304      	movs	r3, #4
 8001c7e:	f884 3051 	strb.w	r3, [r4, #81]	@ 0x51
  hspi->ErrorCode   = HAL_SPI_ERROR_NONE;
 8001c82:	2300      	movs	r3, #0
 8001c84:	6563      	str	r3, [r4, #84]	@ 0x54
  hspi->pRxBuffPtr  = (uint8_t *)pData;
 8001c86:	f8c4 9038 	str.w	r9, [r4, #56]	@ 0x38
  hspi->RxXferSize  = Size;
 8001c8a:	f8a4 803c 	strh.w	r8, [r4, #60]	@ 0x3c
  hspi->RxXferCount = Size;
 8001c8e:	f8a4 803e 	strh.w	r8, [r4, #62]	@ 0x3e
  hspi->pTxBuffPtr  = (uint8_t *)NULL;
 8001c92:	6323      	str	r3, [r4, #48]	@ 0x30
  hspi->TxXferSize  = 0U;
 8001c94:	86a3      	strh	r3, [r4, #52]	@ 0x34
  hspi->TxXferCount = 0U;
 8001c96:	86e3      	strh	r3, [r4, #54]	@ 0x36
  hspi->RxISR       = NULL;
 8001c98:	6423      	str	r3, [r4, #64]	@ 0x40
  hspi->TxISR       = NULL;
 8001c9a:	6463      	str	r3, [r4, #68]	@ 0x44
  if (hspi->Init.Direction == SPI_DIRECTION_1LINE)
 8001c9c:	68a3      	ldr	r3, [r4, #8]
 8001c9e:	f5b3 4f00 	cmp.w	r3, #32768	@ 0x8000
 8001ca2:	d015      	beq.n	8001cd0 <HAL_SPI_Receive+0x9c>
  if ((hspi->Instance->CR1 & SPI_CR1_SPE) != SPI_CR1_SPE)
 8001ca4:	6823      	ldr	r3, [r4, #0]
 8001ca6:	681a      	ldr	r2, [r3, #0]
 8001ca8:	f012 0f40 	tst.w	r2, #64	@ 0x40
 8001cac:	d103      	bne.n	8001cb6 <HAL_SPI_Receive+0x82>
    __HAL_SPI_ENABLE(hspi);
 8001cae:	681a      	ldr	r2, [r3, #0]
 8001cb0:	f042 0240 	orr.w	r2, r2, #64	@ 0x40
 8001cb4:	601a      	str	r2, [r3, #0]
  if (hspi->Init.DataSize == SPI_DATASIZE_8BIT)
 8001cb6:	68e3      	ldr	r3, [r4, #12]
 8001cb8:	b1f3      	cbz	r3, 8001cf8 <HAL_SPI_Receive+0xc4>
 8001cba:	e043      	b.n	8001d44 <HAL_SPI_Receive+0x110>
    hspi->State = HAL_SPI_STATE_BUSY_RX;
 8001cbc:	2304      	movs	r3, #4
 8001cbe:	f880 3051 	strb.w	r3, [r0, #81]	@ 0x51
    return HAL_SPI_TransmitReceive(hspi, pData, pData, Size, Timeout);
 8001cc2:	9500      	str	r5, [sp, #0]
 8001cc4:	4613      	mov	r3, r2
 8001cc6:	460a      	mov	r2, r1
 8001cc8:	f7ff fe8b 	bl	80019e2 <HAL_SPI_TransmitReceive>
 8001ccc:	4607      	mov	r7, r0
 8001cce:	e06d      	b.n	8001dac <HAL_SPI_Receive+0x178>
    __HAL_SPI_DISABLE(hspi);
 8001cd0:	6822      	ldr	r2, [r4, #0]
 8001cd2:	6813      	ldr	r3, [r2, #0]
 8001cd4:	f023 0340 	bic.w	r3, r3, #64	@ 0x40
 8001cd8:	6013      	str	r3, [r2, #0]
    SPI_1LINE_RX(hspi);
 8001cda:	6822      	ldr	r2, [r4, #0]
 8001cdc:	6813      	ldr	r3, [r2, #0]
 8001cde:	f423 4380 	bic.w	r3, r3, #16384	@ 0x4000
 8001ce2:	6013      	str	r3, [r2, #0]
 8001ce4:	e7de      	b.n	8001ca4 <HAL_SPI_Receive+0x70>
        if ((((HAL_GetTick() - tickstart) >=  Timeout) && (Timeout != HAL_MAX_DELAY)) || (Timeout == 0U))
 8001ce6:	f7fe ff7f 	bl	8000be8 <HAL_GetTick>
 8001cea:	1b80      	subs	r0, r0, r6
 8001cec:	42a8      	cmp	r0, r5
 8001cee:	d302      	bcc.n	8001cf6 <HAL_SPI_Receive+0xc2>
 8001cf0:	f1b5 3fff 	cmp.w	r5, #4294967295	@ 0xffffffff
 8001cf4:	d115      	bne.n	8001d22 <HAL_SPI_Receive+0xee>
 8001cf6:	b1a5      	cbz	r5, 8001d22 <HAL_SPI_Receive+0xee>
    while (hspi->RxXferCount > 0U)
 8001cf8:	8fe3      	ldrh	r3, [r4, #62]	@ 0x3e
 8001cfa:	b29b      	uxth	r3, r3
 8001cfc:	2b00      	cmp	r3, #0
 8001cfe:	d042      	beq.n	8001d86 <HAL_SPI_Receive+0x152>
      if (__HAL_SPI_GET_FLAG(hspi, SPI_FLAG_RXNE))
 8001d00:	6823      	ldr	r3, [r4, #0]
 8001d02:	689a      	ldr	r2, [r3, #8]
 8001d04:	f012 0f01 	tst.w	r2, #1
 8001d08:	d0ed      	beq.n	8001ce6 <HAL_SPI_Receive+0xb2>
        (* (uint8_t *)hspi->pRxBuffPtr) = *(__IO uint8_t *)&hspi->Instance->DR;
 8001d0a:	6ba2      	ldr	r2, [r4, #56]	@ 0x38
 8001d0c:	7b1b      	ldrb	r3, [r3, #12]
 8001d0e:	7013      	strb	r3, [r2, #0]
        hspi->pRxBuffPtr += sizeof(uint8_t);
 8001d10:	6ba3      	ldr	r3, [r4, #56]	@ 0x38
 8001d12:	3301      	adds	r3, #1
 8001d14:	63a3      	str	r3, [r4, #56]	@ 0x38
        hspi->RxXferCount--;
 8001d16:	8fe3      	ldrh	r3, [r4, #62]	@ 0x3e
 8001d18:	b29b      	uxth	r3, r3
 8001d1a:	3b01      	subs	r3, #1
 8001d1c:	b29b      	uxth	r3, r3
 8001d1e:	87e3      	strh	r3, [r4, #62]	@ 0x3e
 8001d20:	e7ea      	b.n	8001cf8 <HAL_SPI_Receive+0xc4>
          hspi->State = HAL_SPI_STATE_READY;
 8001d22:	2301      	movs	r3, #1
 8001d24:	f884 3051 	strb.w	r3, [r4, #81]	@ 0x51
          __HAL_UNLOCK(hspi);
 8001d28:	2300      	movs	r3, #0
 8001d2a:	f884 3050 	strb.w	r3, [r4, #80]	@ 0x50
          return HAL_TIMEOUT;
 8001d2e:	2703      	movs	r7, #3
 8001d30:	e03c      	b.n	8001dac <HAL_SPI_Receive+0x178>
        if ((((HAL_GetTick() - tickstart) >=  Timeout) && (Timeout != HAL_MAX_DELAY)) || (Timeout == 0U))
 8001d32:	f7fe ff59 	bl	8000be8 <HAL_GetTick>
 8001d36:	1b80      	subs	r0, r0, r6
 8001d38:	42a8      	cmp	r0, r5
 8001d3a:	d302      	bcc.n	8001d42 <HAL_SPI_Receive+0x10e>
 8001d3c:	f1b5 3fff 	cmp.w	r5, #4294967295	@ 0xffffffff
 8001d40:	d119      	bne.n	8001d76 <HAL_SPI_Receive+0x142>
 8001d42:	b1c5      	cbz	r5, 8001d76 <HAL_SPI_Receive+0x142>
    while (hspi->RxXferCount > 0U)
 8001d44:	8fe3      	ldrh	r3, [r4, #62]	@ 0x3e
 8001d46:	b29b      	uxth	r3, r3
 8001d48:	b1eb      	cbz	r3, 8001d86 <HAL_SPI_Receive+0x152>
      if (__HAL_SPI_GET_FLAG(hspi, SPI_FLAG_RXNE))
 8001d4a:	6823      	ldr	r3, [r4, #0]
 8001d4c:	689a      	ldr	r2, [r3, #8]
 8001d4e:	f012 0f01 	tst.w	r2, #1
 8001d52:	d0ee      	beq.n	8001d32 <HAL_SPI_Receive+0xfe>
        *((uint16_t *)hspi->pRxBuffPtr) = (uint16_t)hspi->Instance->DR;
 8001d54:	68da      	ldr	r2, [r3, #12]
 8001d56:	6ba3      	ldr	r3, [r4, #56]	@ 0x38
 8001d58:	801a      	strh	r2, [r3, #0]
        hspi->pRxBuffPtr += sizeof(uint16_t);
 8001d5a:	6ba3      	ldr	r3, [r4, #56]	@ 0x38
 8001d5c:	3302      	adds	r3, #2
 8001d5e:	63a3      	str	r3, [r4, #56]	@ 0x38
        hspi->RxXferCount--;
 8001d60:	f8b4 c03e 	ldrh.w	ip, [r4, #62]	@ 0x3e
 8001d64:	fa1f fc8c 	uxth.w	ip, ip
 8001d68:	f10c 3cff 	add.w	ip, ip, #4294967295	@ 0xffffffff
 8001d6c:	fa1f fc8c 	uxth.w	ip, ip
 8001d70:	f8a4 c03e 	strh.w	ip, [r4, #62]	@ 0x3e
 8001d74:	e7e6      	b.n	8001d44 <HAL_SPI_Receive+0x110>
          hspi->State = HAL_SPI_STATE_READY;
 8001d76:	2301      	movs	r3, #1
 8001d78:	f884 3051 	strb.w	r3, [r4, #81]	@ 0x51
          __HAL_UNLOCK(hspi);
 8001d7c:	2300      	movs	r3, #0
 8001d7e:	f884 3050 	strb.w	r3, [r4, #80]	@ 0x50
          return HAL_TIMEOUT;
 8001d82:	2703      	movs	r7, #3
 8001d84:	e012      	b.n	8001dac <HAL_SPI_Receive+0x178>
  if (SPI_EndRxTransaction(hspi, Timeout, tickstart) != HAL_OK)
 8001d86:	4632      	mov	r2, r6
 8001d88:	4629      	mov	r1, r5
 8001d8a:	4620      	mov	r0, r4
 8001d8c:	f7ff fca2 	bl	80016d4 <SPI_EndRxTransaction>
 8001d90:	b108      	cbz	r0, 8001d96 <HAL_SPI_Receive+0x162>
    hspi->ErrorCode = HAL_SPI_ERROR_FLAG;
 8001d92:	2320      	movs	r3, #32
 8001d94:	6563      	str	r3, [r4, #84]	@ 0x54
  hspi->State = HAL_SPI_STATE_READY;
 8001d96:	2301      	movs	r3, #1
 8001d98:	f884 3051 	strb.w	r3, [r4, #81]	@ 0x51
  __HAL_UNLOCK(hspi);
 8001d9c:	2300      	movs	r3, #0
 8001d9e:	f884 3050 	strb.w	r3, [r4, #80]	@ 0x50
  if (hspi->ErrorCode != HAL_SPI_ERROR_NONE)
 8001da2:	6d63      	ldr	r3, [r4, #84]	@ 0x54
 8001da4:	b913      	cbnz	r3, 8001dac <HAL_SPI_Receive+0x178>
    return HAL_OK;
 8001da6:	2700      	movs	r7, #0
 8001da8:	e000      	b.n	8001dac <HAL_SPI_Receive+0x178>
    return HAL_BUSY;
 8001daa:	2702      	movs	r7, #2
}
 8001dac:	4638      	mov	r0, r7
 8001dae:	b003      	add	sp, #12
 8001db0:	e8bd 83f0 	ldmia.w	sp!, {r4, r5, r6, r7, r8, r9, pc}
  __HAL_LOCK(hspi);
 8001db4:	2702      	movs	r7, #2
 8001db6:	e7f9      	b.n	8001dac <HAL_SPI_Receive+0x178>

08001db8 <UART_EndRxTransfer>:
  * @retval None
  */
static void UART_EndRxTransfer(UART_HandleTypeDef *huart)
{
  /* Disable RXNE, PE and ERR (Frame error, noise error, overrun error) interrupts */
  ATOMIC_CLEAR_BIT(huart->Instance->CR1, (USART_CR1_RXNEIE | USART_CR1_PEIE));
 8001db8:	6802      	ldr	r2, [r0, #0]
   __ASM volatile ("ldrex %0, %1" : "=r" (result) : "Q" (*addr) );
 8001dba:	f102 030c 	add.w	r3, r2, #12
 8001dbe:	e853 3f00 	ldrex	r3, [r3]
 8001dc2:	f423 7390 	bic.w	r3, r3, #288	@ 0x120
   __ASM volatile ("strex %0, %2, %1" : "=&r" (result), "=Q" (*addr) : "r" (value) );
 8001dc6:	320c      	adds	r2, #12
 8001dc8:	e842 3100 	strex	r1, r3, [r2]
 8001dcc:	2900      	cmp	r1, #0
 8001dce:	d1f3      	bne.n	8001db8 <UART_EndRxTransfer>
  ATOMIC_CLEAR_BIT(huart->Instance->CR3, USART_CR3_EIE);
 8001dd0:	6802      	ldr	r2, [r0, #0]
   __ASM volatile ("ldrex %0, %1" : "=r" (result) : "Q" (*addr) );
 8001dd2:	f102 0314 	add.w	r3, r2, #20
 8001dd6:	e853 3f00 	ldrex	r3, [r3]
 8001dda:	f023 0301 	bic.w	r3, r3, #1
   __ASM volatile ("strex %0, %2, %1" : "=&r" (result), "=Q" (*addr) : "r" (value) );
 8001dde:	3214      	adds	r2, #20
 8001de0:	e842 3100 	strex	r1, r3, [r2]
 8001de4:	2900      	cmp	r1, #0
 8001de6:	d1f3      	bne.n	8001dd0 <UART_EndRxTransfer+0x18>

  /* In case of reception waiting for IDLE event, disable also the IDLE IE interrupt source */
  if (huart->ReceptionType == HAL_UART_RECEPTION_TOIDLE)
 8001de8:	6b03      	ldr	r3, [r0, #48]	@ 0x30
 8001dea:	2b01      	cmp	r3, #1
 8001dec:	d005      	beq.n	8001dfa <UART_EndRxTransfer+0x42>
  {
    ATOMIC_CLEAR_BIT(huart->Instance->CR1, USART_CR1_IDLEIE);
  }

  /* At end of Rx process, restore huart->RxState to Ready */
  huart->RxState = HAL_UART_STATE_READY;
 8001dee:	2320      	movs	r3, #32
 8001df0:	f880 3042 	strb.w	r3, [r0, #66]	@ 0x42
  huart->ReceptionType = HAL_UART_RECEPTION_STANDARD;
 8001df4:	2300      	movs	r3, #0
 8001df6:	6303      	str	r3, [r0, #48]	@ 0x30
}
 8001df8:	4770      	bx	lr
    ATOMIC_CLEAR_BIT(huart->Instance->CR1, USART_CR1_IDLEIE);
 8001dfa:	6802      	ldr	r2, [r0, #0]
   __ASM volatile ("ldrex %0, %1" : "=r" (result) : "Q" (*addr) );
 8001dfc:	f102 030c 	add.w	r3, r2, #12
 8001e00:	e853 3f00 	ldrex	r3, [r3]
 8001e04:	f023 0310 	bic.w	r3, r3, #16
   __ASM volatile ("strex %0, %2, %1" : "=&r" (result), "=Q" (*addr) : "r" (value) );
 8001e08:	320c      	adds	r2, #12
 8001e0a:	e842 3100 	strex	r1, r3, [r2]
 8001e0e:	2900      	cmp	r1, #0
 8001e10:	d1f3      	bne.n	8001dfa <UART_EndRxTransfer+0x42>
 8001e12:	e7ec      	b.n	8001dee <UART_EndRxTransfer+0x36>

08001e14 <UART_SetConfig>:
  * @param  huart  Pointer to a UART_HandleTypeDef structure that contains
  *                the configuration information for the specified UART module.
  * @retval None
  */
static void UART_SetConfig(UART_HandleTypeDef *huart)
{
 8001e14:	b510      	push	{r4, lr}
 8001e16:	4604      	mov	r4, r0
  assert_param(IS_UART_MODE(huart->Init.Mode));

  /*-------------------------- USART CR2 Configuration -----------------------*/
  /* Configure the UART Stop Bits: Set STOP[13:12] bits
     according to huart->Init.StopBits value */
  MODIFY_REG(huart->Instance->CR2, USART_CR2_STOP, huart->Init.StopBits);
 8001e18:	6802      	ldr	r2, [r0, #0]
 8001e1a:	6913      	ldr	r3, [r2, #16]
 8001e1c:	f423 5340 	bic.w	r3, r3, #12288	@ 0x3000
 8001e20:	68c1      	ldr	r1, [r0, #12]
 8001e22:	430b      	orrs	r3, r1
 8001e24:	6113      	str	r3, [r2, #16]
     Set the M bits according to huart->Init.WordLength value
     Set PCE and PS bits according to huart->Init.Parity value
     Set TE and RE bits according to huart->Init.Mode value
     Set OVER8 bit according to huart->Init.OverSampling value */

  tmpreg = (uint32_t)huart->Init.WordLength | huart->Init.Parity | huart->Init.Mode | huart->Init.OverSampling;
 8001e26:	6883      	ldr	r3, [r0, #8]
 8001e28:	6902      	ldr	r2, [r0, #16]
 8001e2a:	431a      	orrs	r2, r3
 8001e2c:	6943      	ldr	r3, [r0, #20]
 8001e2e:	431a      	orrs	r2, r3
 8001e30:	69c3      	ldr	r3, [r0, #28]
 8001e32:	431a      	orrs	r2, r3
  MODIFY_REG(huart->Instance->CR1,
 8001e34:	6801      	ldr	r1, [r0, #0]
 8001e36:	68cb      	ldr	r3, [r1, #12]
 8001e38:	f423 4316 	bic.w	r3, r3, #38400	@ 0x9600
 8001e3c:	f023 030c 	bic.w	r3, r3, #12
 8001e40:	4313      	orrs	r3, r2
 8001e42:	60cb      	str	r3, [r1, #12]
             (uint32_t)(USART_CR1_M | USART_CR1_PCE | USART_CR1_PS | USART_CR1_TE | USART_CR1_RE | USART_CR1_OVER8),
             tmpreg);

  /*-------------------------- USART CR3 Configuration -----------------------*/
  /* Configure the UART HFC: Set CTSE and RTSE bits according to huart->Init.HwFlowCtl value */
  MODIFY_REG(huart->Instance->CR3, (USART_CR3_RTSE | USART_CR3_CTSE), huart->Init.HwFlowCtl);
 8001e44:	6802      	ldr	r2, [r0, #0]
 8001e46:	6953      	ldr	r3, [r2, #20]
 8001e48:	f423 7340 	bic.w	r3, r3, #768	@ 0x300
 8001e4c:	6981      	ldr	r1, [r0, #24]
 8001e4e:	430b      	orrs	r3, r1
 8001e50:	6153      	str	r3, [r2, #20]
    if ((huart->Instance == USART1) || (huart->Instance == USART6) || (huart->Instance == UART9) || (huart->Instance == UART10))
    {
      pclk = HAL_RCC_GetPCLK2Freq();
    }
#elif defined(USART6)
    if ((huart->Instance == USART1) || (huart->Instance == USART6))
 8001e52:	6803      	ldr	r3, [r0, #0]
 8001e54:	4a31      	ldr	r2, [pc, #196]	@ (8001f1c <UART_SetConfig+0x108>)
 8001e56:	4293      	cmp	r3, r2
 8001e58:	d006      	beq.n	8001e68 <UART_SetConfig+0x54>
 8001e5a:	f502 6280 	add.w	r2, r2, #1024	@ 0x400
 8001e5e:	4293      	cmp	r3, r2
 8001e60:	d002      	beq.n	8001e68 <UART_SetConfig+0x54>
      pclk = HAL_RCC_GetPCLK2Freq();
    }
#endif /* USART6 */
    else
    {
      pclk = HAL_RCC_GetPCLK1Freq();
 8001e62:	f7ff fb73 	bl	800154c <HAL_RCC_GetPCLK1Freq>
 8001e66:	e001      	b.n	8001e6c <UART_SetConfig+0x58>
      pclk = HAL_RCC_GetPCLK2Freq();
 8001e68:	f7ff fb80 	bl	800156c <HAL_RCC_GetPCLK2Freq>
    }
  /*-------------------------- USART BRR Configuration ---------------------*/
  if (huart->Init.OverSampling == UART_OVERSAMPLING_8)
 8001e6c:	69e3      	ldr	r3, [r4, #28]
 8001e6e:	f5b3 4f00 	cmp.w	r3, #32768	@ 0x8000
 8001e72:	d029      	beq.n	8001ec8 <UART_SetConfig+0xb4>
  {
    huart->Instance->BRR = UART_BRR_SAMPLING8(pclk, huart->Init.BaudRate);
  }
  else
  {
    huart->Instance->BRR = UART_BRR_SAMPLING16(pclk, huart->Init.BaudRate);
 8001e74:	2100      	movs	r1, #0
 8001e76:	1803      	adds	r3, r0, r0
 8001e78:	4149      	adcs	r1, r1
 8001e7a:	181b      	adds	r3, r3, r0
 8001e7c:	f141 0100 	adc.w	r1, r1, #0
 8001e80:	00c9      	lsls	r1, r1, #3
 8001e82:	ea41 7153 	orr.w	r1, r1, r3, lsr #29
 8001e86:	00db      	lsls	r3, r3, #3
 8001e88:	1818      	adds	r0, r3, r0
 8001e8a:	6863      	ldr	r3, [r4, #4]
 8001e8c:	ea4f 0283 	mov.w	r2, r3, lsl #2
 8001e90:	ea4f 7393 	mov.w	r3, r3, lsr #30
 8001e94:	f141 0100 	adc.w	r1, r1, #0
 8001e98:	f7fe f9ea 	bl	8000270 <__aeabi_uldivmod>
 8001e9c:	4a20      	ldr	r2, [pc, #128]	@ (8001f20 <UART_SetConfig+0x10c>)
 8001e9e:	fba2 3100 	umull	r3, r1, r2, r0
 8001ea2:	0949      	lsrs	r1, r1, #5
 8001ea4:	2364      	movs	r3, #100	@ 0x64
 8001ea6:	fb03 0311 	mls	r3, r3, r1, r0
 8001eaa:	011b      	lsls	r3, r3, #4
 8001eac:	3332      	adds	r3, #50	@ 0x32
 8001eae:	fba2 2303 	umull	r2, r3, r2, r3
 8001eb2:	095b      	lsrs	r3, r3, #5
 8001eb4:	f003 02f0 	and.w	r2, r3, #240	@ 0xf0
 8001eb8:	eb02 1201 	add.w	r2, r2, r1, lsl #4
 8001ebc:	f003 030f 	and.w	r3, r3, #15
 8001ec0:	6821      	ldr	r1, [r4, #0]
 8001ec2:	4413      	add	r3, r2
 8001ec4:	608b      	str	r3, [r1, #8]
  }
}
 8001ec6:	bd10      	pop	{r4, pc}
    huart->Instance->BRR = UART_BRR_SAMPLING8(pclk, huart->Init.BaudRate);
 8001ec8:	2300      	movs	r3, #0
 8001eca:	1802      	adds	r2, r0, r0
 8001ecc:	eb43 0103 	adc.w	r1, r3, r3
 8001ed0:	1812      	adds	r2, r2, r0
 8001ed2:	f141 0100 	adc.w	r1, r1, #0
 8001ed6:	00c9      	lsls	r1, r1, #3
 8001ed8:	ea41 7152 	orr.w	r1, r1, r2, lsr #29
 8001edc:	00d2      	lsls	r2, r2, #3
 8001ede:	1810      	adds	r0, r2, r0
 8001ee0:	f141 0100 	adc.w	r1, r1, #0
 8001ee4:	6862      	ldr	r2, [r4, #4]
 8001ee6:	1892      	adds	r2, r2, r2
 8001ee8:	415b      	adcs	r3, r3
 8001eea:	f7fe f9c1 	bl	8000270 <__aeabi_uldivmod>
 8001eee:	4a0c      	ldr	r2, [pc, #48]	@ (8001f20 <UART_SetConfig+0x10c>)
 8001ef0:	fba2 3100 	umull	r3, r1, r2, r0
 8001ef4:	0949      	lsrs	r1, r1, #5
 8001ef6:	2364      	movs	r3, #100	@ 0x64
 8001ef8:	fb03 0311 	mls	r3, r3, r1, r0
 8001efc:	00db      	lsls	r3, r3, #3
 8001efe:	3332      	adds	r3, #50	@ 0x32
 8001f00:	fba2 2303 	umull	r2, r3, r2, r3
 8001f04:	095b      	lsrs	r3, r3, #5
 8001f06:	005a      	lsls	r2, r3, #1
 8001f08:	f402 72f8 	and.w	r2, r2, #496	@ 0x1f0
 8001f0c:	eb02 1201 	add.w	r2, r2, r1, lsl #4
 8001f10:	f003 0307 	and.w	r3, r3, #7
 8001f14:	6821      	ldr	r1, [r4, #0]
 8001f16:	4413      	add	r3, r2
 8001f18:	608b      	str	r3, [r1, #8]
 8001f1a:	e7d4      	b.n	8001ec6 <UART_SetConfig+0xb2>
 8001f1c:	40011000 	.word	0x40011000
 8001f20:	51eb851f 	.word	0x51eb851f

08001f24 <UART_WaitOnFlagUntilTimeout>:
{
 8001f24:	e92d 43f0 	stmdb	sp!, {r4, r5, r6, r7, r8, r9, lr}
 8001f28:	b083      	sub	sp, #12
 8001f2a:	4605      	mov	r5, r0
 8001f2c:	460e      	mov	r6, r1
 8001f2e:	4617      	mov	r7, r2
 8001f30:	4699      	mov	r9, r3
 8001f32:	f8dd 8028 	ldr.w	r8, [sp, #40]	@ 0x28
  while ((__HAL_UART_GET_FLAG(huart, Flag) ? SET : RESET) == Status)
 8001f36:	682b      	ldr	r3, [r5, #0]
 8001f38:	681c      	ldr	r4, [r3, #0]
 8001f3a:	ea36 0404 	bics.w	r4, r6, r4
 8001f3e:	bf0c      	ite	eq
 8001f40:	2401      	moveq	r4, #1
 8001f42:	2400      	movne	r4, #0
 8001f44:	42bc      	cmp	r4, r7
 8001f46:	d128      	bne.n	8001f9a <UART_WaitOnFlagUntilTimeout+0x76>
    if (Timeout != HAL_MAX_DELAY)
 8001f48:	f1b8 3fff 	cmp.w	r8, #4294967295	@ 0xffffffff
 8001f4c:	d0f3      	beq.n	8001f36 <UART_WaitOnFlagUntilTimeout+0x12>
      if (((HAL_GetTick() - Tickstart) > Timeout) || (Timeout == 0U))
 8001f4e:	f7fe fe4b 	bl	8000be8 <HAL_GetTick>
 8001f52:	eba0 0009 	sub.w	r0, r0, r9
 8001f56:	4540      	cmp	r0, r8
 8001f58:	d823      	bhi.n	8001fa2 <UART_WaitOnFlagUntilTimeout+0x7e>
 8001f5a:	f1b8 0f00 	cmp.w	r8, #0
 8001f5e:	d022      	beq.n	8001fa6 <UART_WaitOnFlagUntilTimeout+0x82>
      if ((READ_BIT(huart->Instance->CR1, USART_CR1_RE) != 0U) && (Flag != UART_FLAG_TXE) && (Flag != UART_FLAG_TC))
 8001f60:	682b      	ldr	r3, [r5, #0]
 8001f62:	68da      	ldr	r2, [r3, #12]
 8001f64:	f012 0f04 	tst.w	r2, #4
 8001f68:	d0e5      	beq.n	8001f36 <UART_WaitOnFlagUntilTimeout+0x12>
 8001f6a:	2e80      	cmp	r6, #128	@ 0x80
 8001f6c:	d0e3      	beq.n	8001f36 <UART_WaitOnFlagUntilTimeout+0x12>
 8001f6e:	2e40      	cmp	r6, #64	@ 0x40
 8001f70:	d0e1      	beq.n	8001f36 <UART_WaitOnFlagUntilTimeout+0x12>
        if (__HAL_UART_GET_FLAG(huart, UART_FLAG_ORE) == SET)
 8001f72:	681a      	ldr	r2, [r3, #0]
 8001f74:	f012 0f08 	tst.w	r2, #8
 8001f78:	d0dd      	beq.n	8001f36 <UART_WaitOnFlagUntilTimeout+0x12>
          __HAL_UART_CLEAR_OREFLAG(huart);
 8001f7a:	2400      	movs	r4, #0
 8001f7c:	9401      	str	r4, [sp, #4]
 8001f7e:	681a      	ldr	r2, [r3, #0]
 8001f80:	9201      	str	r2, [sp, #4]
 8001f82:	685b      	ldr	r3, [r3, #4]
 8001f84:	9301      	str	r3, [sp, #4]
 8001f86:	9b01      	ldr	r3, [sp, #4]
          UART_EndRxTransfer(huart);
 8001f88:	4628      	mov	r0, r5
 8001f8a:	f7ff ff15 	bl	8001db8 <UART_EndRxTransfer>
          huart->ErrorCode = HAL_UART_ERROR_ORE;
 8001f8e:	2308      	movs	r3, #8
 8001f90:	646b      	str	r3, [r5, #68]	@ 0x44
          __HAL_UNLOCK(huart);
 8001f92:	f885 4040 	strb.w	r4, [r5, #64]	@ 0x40
          return HAL_ERROR;
 8001f96:	2001      	movs	r0, #1
 8001f98:	e000      	b.n	8001f9c <UART_WaitOnFlagUntilTimeout+0x78>
  return HAL_OK;
 8001f9a:	2000      	movs	r0, #0
}
 8001f9c:	b003      	add	sp, #12
 8001f9e:	e8bd 83f0 	ldmia.w	sp!, {r4, r5, r6, r7, r8, r9, pc}
        return HAL_TIMEOUT;
 8001fa2:	2003      	movs	r0, #3
 8001fa4:	e7fa      	b.n	8001f9c <UART_WaitOnFlagUntilTimeout+0x78>
 8001fa6:	2003      	movs	r0, #3
 8001fa8:	e7f8      	b.n	8001f9c <UART_WaitOnFlagUntilTimeout+0x78>

08001faa <HAL_UART_Init>:
  if (huart == NULL)
 8001faa:	b360      	cbz	r0, 8002006 <HAL_UART_Init+0x5c>
{
 8001fac:	b510      	push	{r4, lr}
 8001fae:	4604      	mov	r4, r0
  if (huart->gState == HAL_UART_STATE_RESET)
 8001fb0:	f890 3041 	ldrb.w	r3, [r0, #65]	@ 0x41
 8001fb4:	b313      	cbz	r3, 8001ffc <HAL_UART_Init+0x52>
  huart->gState = HAL_UART_STATE_BUSY;
 8001fb6:	2324      	movs	r3, #36	@ 0x24
 8001fb8:	f884 3041 	strb.w	r3, [r4, #65]	@ 0x41
  __HAL_UART_DISABLE(huart);
 8001fbc:	6822      	ldr	r2, [r4, #0]
 8001fbe:	68d3      	ldr	r3, [r2, #12]
 8001fc0:	f423 5300 	bic.w	r3, r3, #8192	@ 0x2000
 8001fc4:	60d3      	str	r3, [r2, #12]
  UART_SetConfig(huart);
 8001fc6:	4620      	mov	r0, r4
 8001fc8:	f7ff ff24 	bl	8001e14 <UART_SetConfig>
  CLEAR_BIT(huart->Instance->CR2, (USART_CR2_LINEN | USART_CR2_CLKEN));
 8001fcc:	6822      	ldr	r2, [r4, #0]
 8001fce:	6913      	ldr	r3, [r2, #16]
 8001fd0:	f423 4390 	bic.w	r3, r3, #18432	@ 0x4800
 8001fd4:	6113      	str	r3, [r2, #16]
  CLEAR_BIT(huart->Instance->CR3, (USART_CR3_SCEN | USART_CR3_HDSEL | USART_CR3_IREN));
 8001fd6:	6822      	ldr	r2, [r4, #0]
 8001fd8:	6953      	ldr	r3, [r2, #20]
 8001fda:	f023 032a 	bic.w	r3, r3, #42	@ 0x2a
 8001fde:	6153      	str	r3, [r2, #20]
  __HAL_UART_ENABLE(huart);
 8001fe0:	6822      	ldr	r2, [r4, #0]
 8001fe2:	68d3      	ldr	r3, [r2, #12]
 8001fe4:	f443 5300 	orr.w	r3, r3, #8192	@ 0x2000
 8001fe8:	60d3      	str	r3, [r2, #12]
  huart->ErrorCode = HAL_UART_ERROR_NONE;
 8001fea:	2000      	movs	r0, #0
 8001fec:	6460      	str	r0, [r4, #68]	@ 0x44
  huart->gState = HAL_UART_STATE_READY;
 8001fee:	2320      	movs	r3, #32
 8001ff0:	f884 3041 	strb.w	r3, [r4, #65]	@ 0x41
  huart->RxState = HAL_UART_STATE_READY;
 8001ff4:	f884 3042 	strb.w	r3, [r4, #66]	@ 0x42
  huart->RxEventType = HAL_UART_RXEVENT_TC;
 8001ff8:	6360      	str	r0, [r4, #52]	@ 0x34
}
 8001ffa:	bd10      	pop	{r4, pc}
    huart->Lock = HAL_UNLOCKED;
 8001ffc:	f880 3040 	strb.w	r3, [r0, #64]	@ 0x40
    HAL_UART_MspInit(huart);
 8002000:	f7fe fcde 	bl	80009c0 <HAL_UART_MspInit>
 8002004:	e7d7      	b.n	8001fb6 <HAL_UART_Init+0xc>
    return HAL_ERROR;
 8002006:	2001      	movs	r0, #1
}
 8002008:	4770      	bx	lr

0800200a <HAL_UART_Transmit>:
{
 800200a:	e92d 41f0 	stmdb	sp!, {r4, r5, r6, r7, r8, lr}
 800200e:	b082      	sub	sp, #8
 8002010:	461e      	mov	r6, r3
  if (huart->gState == HAL_UART_STATE_READY)
 8002012:	f890 3041 	ldrb.w	r3, [r0, #65]	@ 0x41
 8002016:	2b20      	cmp	r3, #32
 8002018:	d156      	bne.n	80020c8 <HAL_UART_Transmit+0xbe>
 800201a:	4604      	mov	r4, r0
 800201c:	460d      	mov	r5, r1
 800201e:	4690      	mov	r8, r2
    if ((pData == NULL) || (Size == 0U))
 8002020:	2900      	cmp	r1, #0
 8002022:	d055      	beq.n	80020d0 <HAL_UART_Transmit+0xc6>
 8002024:	b90a      	cbnz	r2, 800202a <HAL_UART_Transmit+0x20>
      return  HAL_ERROR;
 8002026:	2001      	movs	r0, #1
 8002028:	e04f      	b.n	80020ca <HAL_UART_Transmit+0xc0>
    huart->ErrorCode = HAL_UART_ERROR_NONE;
 800202a:	2300      	movs	r3, #0
 800202c:	6443      	str	r3, [r0, #68]	@ 0x44
    huart->gState = HAL_UART_STATE_BUSY_TX;
 800202e:	2321      	movs	r3, #33	@ 0x21
 8002030:	f880 3041 	strb.w	r3, [r0, #65]	@ 0x41
    tickstart = HAL_GetTick();
 8002034:	f7fe fdd8 	bl	8000be8 <HAL_GetTick>
 8002038:	4607      	mov	r7, r0
    huart->TxXferSize = Size;
 800203a:	f8a4 8024 	strh.w	r8, [r4, #36]	@ 0x24
    huart->TxXferCount = Size;
 800203e:	f8a4 8026 	strh.w	r8, [r4, #38]	@ 0x26
    if ((huart->Init.WordLength == UART_WORDLENGTH_9B) && (huart->Init.Parity == UART_PARITY_NONE))
 8002042:	68a3      	ldr	r3, [r4, #8]
 8002044:	f5b3 5f80 	cmp.w	r3, #4096	@ 0x1000
 8002048:	d002      	beq.n	8002050 <HAL_UART_Transmit+0x46>
      pdata16bits = NULL;
 800204a:	f04f 0800 	mov.w	r8, #0
 800204e:	e014      	b.n	800207a <HAL_UART_Transmit+0x70>
    if ((huart->Init.WordLength == UART_WORDLENGTH_9B) && (huart->Init.Parity == UART_PARITY_NONE))
 8002050:	6923      	ldr	r3, [r4, #16]
 8002052:	b32b      	cbz	r3, 80020a0 <HAL_UART_Transmit+0x96>
      pdata16bits = NULL;
 8002054:	f04f 0800 	mov.w	r8, #0
 8002058:	e00f      	b.n	800207a <HAL_UART_Transmit+0x70>
        huart->gState = HAL_UART_STATE_READY;
 800205a:	2320      	movs	r3, #32
 800205c:	f884 3041 	strb.w	r3, [r4, #65]	@ 0x41
        return HAL_TIMEOUT;
 8002060:	2003      	movs	r0, #3
 8002062:	e032      	b.n	80020ca <HAL_UART_Transmit+0xc0>
        huart->Instance->DR = (uint16_t)(*pdata16bits & 0x01FFU);
 8002064:	f838 3b02 	ldrh.w	r3, [r8], #2
 8002068:	6822      	ldr	r2, [r4, #0]
 800206a:	f3c3 0308 	ubfx	r3, r3, #0, #9
 800206e:	6053      	str	r3, [r2, #4]
      huart->TxXferCount--;
 8002070:	8ce2      	ldrh	r2, [r4, #38]	@ 0x26
 8002072:	b292      	uxth	r2, r2
 8002074:	3a01      	subs	r2, #1
 8002076:	b292      	uxth	r2, r2
 8002078:	84e2      	strh	r2, [r4, #38]	@ 0x26
    while (huart->TxXferCount > 0U)
 800207a:	8ce3      	ldrh	r3, [r4, #38]	@ 0x26
 800207c:	b29b      	uxth	r3, r3
 800207e:	b193      	cbz	r3, 80020a6 <HAL_UART_Transmit+0x9c>
      if (UART_WaitOnFlagUntilTimeout(huart, UART_FLAG_TXE, RESET, tickstart, Timeout) != HAL_OK)
 8002080:	9600      	str	r6, [sp, #0]
 8002082:	463b      	mov	r3, r7
 8002084:	2200      	movs	r2, #0
 8002086:	2180      	movs	r1, #128	@ 0x80
 8002088:	4620      	mov	r0, r4
 800208a:	f7ff ff4b 	bl	8001f24 <UART_WaitOnFlagUntilTimeout>
 800208e:	2800      	cmp	r0, #0
 8002090:	d1e3      	bne.n	800205a <HAL_UART_Transmit+0x50>
      if (pdata8bits == NULL)
 8002092:	2d00      	cmp	r5, #0
 8002094:	d0e6      	beq.n	8002064 <HAL_UART_Transmit+0x5a>
        huart->Instance->DR = (uint8_t)(*pdata8bits & 0xFFU);
 8002096:	f815 2b01 	ldrb.w	r2, [r5], #1
 800209a:	6823      	ldr	r3, [r4, #0]
 800209c:	605a      	str	r2, [r3, #4]
        pdata8bits++;
 800209e:	e7e7      	b.n	8002070 <HAL_UART_Transmit+0x66>
      pdata16bits = (const uint16_t *) pData;
 80020a0:	46a8      	mov	r8, r5
      pdata8bits  = NULL;
 80020a2:	2500      	movs	r5, #0
 80020a4:	e7e9      	b.n	800207a <HAL_UART_Transmit+0x70>
    if (UART_WaitOnFlagUntilTimeout(huart, UART_FLAG_TC, RESET, tickstart, Timeout) != HAL_OK)
 80020a6:	9600      	str	r6, [sp, #0]
 80020a8:	463b      	mov	r3, r7
 80020aa:	2200      	movs	r2, #0
 80020ac:	2140      	movs	r1, #64	@ 0x40
 80020ae:	4620      	mov	r0, r4
 80020b0:	f7ff ff38 	bl	8001f24 <UART_WaitOnFlagUntilTimeout>
 80020b4:	b918      	cbnz	r0, 80020be <HAL_UART_Transmit+0xb4>
    huart->gState = HAL_UART_STATE_READY;
 80020b6:	2320      	movs	r3, #32
 80020b8:	f884 3041 	strb.w	r3, [r4, #65]	@ 0x41
    return HAL_OK;
 80020bc:	e005      	b.n	80020ca <HAL_UART_Transmit+0xc0>
      huart->gState = HAL_UART_STATE_READY;
 80020be:	2320      	movs	r3, #32
 80020c0:	f884 3041 	strb.w	r3, [r4, #65]	@ 0x41
      return HAL_TIMEOUT;
 80020c4:	2003      	movs	r0, #3
 80020c6:	e000      	b.n	80020ca <HAL_UART_Transmit+0xc0>
    return HAL_BUSY;
 80020c8:	2002      	movs	r0, #2
}
 80020ca:	b002      	add	sp, #8
 80020cc:	e8bd 81f0 	ldmia.w	sp!, {r4, r5, r6, r7, r8, pc}
      return  HAL_ERROR;
 80020d0:	2001      	movs	r0, #1
 80020d2:	e7fa      	b.n	80020ca <HAL_UART_Transmit+0xc0>

080020d4 <lfs_pair_issync>:
}

static inline bool lfs_pair_issync(
        const lfs_block_t paira[2],
        const lfs_block_t pairb[2]) {
    return (paira[0] == pairb[0] && paira[1] == pairb[1]) ||
 80020d4:	6803      	ldr	r3, [r0, #0]
 80020d6:	680a      	ldr	r2, [r1, #0]
 80020d8:	4293      	cmp	r3, r2
 80020da:	d004      	beq.n	80020e6 <lfs_pair_issync+0x12>
           (paira[0] == pairb[1] && paira[1] == pairb[0]);
 80020dc:	6849      	ldr	r1, [r1, #4]
    return (paira[0] == pairb[0] && paira[1] == pairb[1]) ||
 80020de:	428b      	cmp	r3, r1
 80020e0:	d015      	beq.n	800210e <lfs_pair_issync+0x3a>
 80020e2:	2000      	movs	r0, #0
 80020e4:	4770      	bx	lr
        const lfs_block_t pairb[2]) {
 80020e6:	b430      	push	{r4, r5}
    return (paira[0] == pairb[0] && paira[1] == pairb[1]) ||
 80020e8:	6844      	ldr	r4, [r0, #4]
 80020ea:	684d      	ldr	r5, [r1, #4]
 80020ec:	42ac      	cmp	r4, r5
 80020ee:	d00a      	beq.n	8002106 <lfs_pair_issync+0x32>
           (paira[0] == pairb[1] && paira[1] == pairb[0]);
 80020f0:	6849      	ldr	r1, [r1, #4]
    return (paira[0] == pairb[0] && paira[1] == pairb[1]) ||
 80020f2:	428b      	cmp	r3, r1
 80020f4:	d002      	beq.n	80020fc <lfs_pair_issync+0x28>
 80020f6:	2000      	movs	r0, #0
}
 80020f8:	bc30      	pop	{r4, r5}
 80020fa:	4770      	bx	lr
           (paira[0] == pairb[1] && paira[1] == pairb[0]);
 80020fc:	6843      	ldr	r3, [r0, #4]
 80020fe:	429a      	cmp	r2, r3
 8002100:	d003      	beq.n	800210a <lfs_pair_issync+0x36>
    return (paira[0] == pairb[0] && paira[1] == pairb[1]) ||
 8002102:	2000      	movs	r0, #0
 8002104:	e7f8      	b.n	80020f8 <lfs_pair_issync+0x24>
 8002106:	2001      	movs	r0, #1
 8002108:	e7f6      	b.n	80020f8 <lfs_pair_issync+0x24>
 800210a:	2001      	movs	r0, #1
 800210c:	e7f4      	b.n	80020f8 <lfs_pair_issync+0x24>
           (paira[0] == pairb[1] && paira[1] == pairb[0]);
 800210e:	6843      	ldr	r3, [r0, #4]
 8002110:	429a      	cmp	r2, r3
 8002112:	d001      	beq.n	8002118 <lfs_pair_issync+0x44>
    return (paira[0] == pairb[0] && paira[1] == pairb[1]) ||
 8002114:	2000      	movs	r0, #0
 8002116:	4770      	bx	lr
 8002118:	2001      	movs	r0, #1
}
 800211a:	4770      	bx	lr

0800211c <lfs_gstate_hasmovehere>:
    return lfs_tag_size(a->tag) >> 9;
}

static inline bool lfs_gstate_hasmovehere(const lfs_gstate_t *a,
        const lfs_block_t *pair) {
    return lfs_tag_type1(a->tag) && lfs_pair_cmp(a->pair, pair) == 0;
 800211c:	6803      	ldr	r3, [r0, #0]
    return (tag & 0x70000000) >> 20;
 800211e:	0d1b      	lsrs	r3, r3, #20
    return lfs_tag_type1(a->tag) && lfs_pair_cmp(a->pair, pair) == 0;
 8002120:	f413 6fe0 	tst.w	r3, #1792	@ 0x700
 8002124:	d00f      	beq.n	8002146 <lfs_gstate_hasmovehere+0x2a>
    return !(paira[0] == pairb[0] || paira[1] == pairb[1] ||
 8002126:	6843      	ldr	r3, [r0, #4]
 8002128:	680a      	ldr	r2, [r1, #0]
 800212a:	4293      	cmp	r3, r2
 800212c:	d00d      	beq.n	800214a <lfs_gstate_hasmovehere+0x2e>
 800212e:	6880      	ldr	r0, [r0, #8]
 8002130:	6849      	ldr	r1, [r1, #4]
 8002132:	4288      	cmp	r0, r1
 8002134:	d00b      	beq.n	800214e <lfs_gstate_hasmovehere+0x32>
 8002136:	428b      	cmp	r3, r1
 8002138:	d00b      	beq.n	8002152 <lfs_gstate_hasmovehere+0x36>
 800213a:	4282      	cmp	r2, r0
 800213c:	d001      	beq.n	8002142 <lfs_gstate_hasmovehere+0x26>
    return lfs_tag_type1(a->tag) && lfs_pair_cmp(a->pair, pair) == 0;
 800213e:	2000      	movs	r0, #0
}
 8002140:	4770      	bx	lr
    return lfs_tag_type1(a->tag) && lfs_pair_cmp(a->pair, pair) == 0;
 8002142:	2001      	movs	r0, #1
 8002144:	4770      	bx	lr
 8002146:	2000      	movs	r0, #0
 8002148:	4770      	bx	lr
 800214a:	2001      	movs	r0, #1
 800214c:	4770      	bx	lr
 800214e:	2001      	movs	r0, #1
 8002150:	4770      	bx	lr
 8002152:	2001      	movs	r0, #1
 8002154:	4770      	bx	lr
	...

08002158 <lfs_fs_disk_version>:
    } else
#endif
    {
        return LFS_DISK_VERSION;
    }
}
 8002158:	4800      	ldr	r0, [pc, #0]	@ (800215c <lfs_fs_disk_version+0x4>)
 800215a:	4770      	bx	lr
 800215c:	00020001 	.word	0x00020001

08002160 <lfs_fs_disk_version_major>:

static uint16_t lfs_fs_disk_version_major(lfs_t *lfs) {
 8002160:	b508      	push	{r3, lr}
    return 0xffff & (lfs_fs_disk_version(lfs) >> 16);
 8002162:	f7ff fff9 	bl	8002158 <lfs_fs_disk_version>

}
 8002166:	0c00      	lsrs	r0, r0, #16
 8002168:	bd08      	pop	{r3, pc}

0800216a <lfs_fs_disk_version_minor>:

static uint16_t lfs_fs_disk_version_minor(lfs_t *lfs) {
 800216a:	b508      	push	{r3, lr}
    return 0xffff & (lfs_fs_disk_version(lfs) >> 0);
 800216c:	f7ff fff4 	bl	8002158 <lfs_fs_disk_version>
}
 8002170:	b280      	uxth	r0, r0
 8002172:	bd08      	pop	{r3, pc}

08002174 <lfs_alloc_ckpoint>:
// allocations should call this when all allocated blocks are committed to
// the filesystem
//
// after a checkpoint, the block allocator may realloc any untracked blocks
static void lfs_alloc_ckpoint(lfs_t *lfs) {
    lfs->lookahead.ckpoint = lfs->block_count;
 8002174:	6ec3      	ldr	r3, [r0, #108]	@ 0x6c
 8002176:	6603      	str	r3, [r0, #96]	@ 0x60
}
 8002178:	4770      	bx	lr

0800217a <lfs_alloc_drop>:

// drop the lookahead buffer, this is done during mounting and failed
// traversals in order to avoid invalid lookahead state
static void lfs_alloc_drop(lfs_t *lfs) {
 800217a:	b508      	push	{r3, lr}
    lfs->lookahead.size = 0;
 800217c:	2200      	movs	r2, #0
 800217e:	6582      	str	r2, [r0, #88]	@ 0x58
    lfs->lookahead.next = 0;
 8002180:	65c2      	str	r2, [r0, #92]	@ 0x5c
    lfs_alloc_ckpoint(lfs);
 8002182:	f7ff fff7 	bl	8002174 <lfs_alloc_ckpoint>
}
 8002186:	bd08      	pop	{r3, pc}

08002188 <lfs_alloc_lookahead>:

#ifndef LFS_READONLY
static int lfs_alloc_lookahead(void *p, lfs_block_t block) {
    lfs_t *lfs = (lfs_t*)p;
    lfs_block_t off = ((block - lfs->lookahead.start)
 8002188:	6d43      	ldr	r3, [r0, #84]	@ 0x54
 800218a:	1ac9      	subs	r1, r1, r3
            + lfs->block_count) % lfs->block_count;
 800218c:	6ec3      	ldr	r3, [r0, #108]	@ 0x6c
 800218e:	4419      	add	r1, r3
    lfs_block_t off = ((block - lfs->lookahead.start)
 8002190:	fbb1 f2f3 	udiv	r2, r1, r3
 8002194:	fb03 1112 	mls	r1, r3, r2, r1

    if (off < lfs->lookahead.size) {
 8002198:	6d83      	ldr	r3, [r0, #88]	@ 0x58
 800219a:	428b      	cmp	r3, r1
 800219c:	d90d      	bls.n	80021ba <lfs_alloc_lookahead+0x32>
static int lfs_alloc_lookahead(void *p, lfs_block_t block) {
 800219e:	b410      	push	{r4}
        lfs->lookahead.buffer[off / 8] |= 1U << (off % 8);
 80021a0:	6e44      	ldr	r4, [r0, #100]	@ 0x64
 80021a2:	08c8      	lsrs	r0, r1, #3
 80021a4:	5c23      	ldrb	r3, [r4, r0]
 80021a6:	f001 0107 	and.w	r1, r1, #7
 80021aa:	2201      	movs	r2, #1
 80021ac:	408a      	lsls	r2, r1
 80021ae:	4313      	orrs	r3, r2
 80021b0:	5423      	strb	r3, [r4, r0]
    }

    return 0;
}
 80021b2:	2000      	movs	r0, #0
 80021b4:	f85d 4b04 	ldr.w	r4, [sp], #4
 80021b8:	4770      	bx	lr
 80021ba:	2000      	movs	r0, #0
 80021bc:	4770      	bx	lr
	...

080021c0 <lfs_dir_traverse_filter>:
    return 0;
}

#ifndef LFS_READONLY
static int lfs_dir_traverse_filter(void *p,
        lfs_tag_t tag, const void *buffer) {
 80021c0:	b410      	push	{r4}
    (void)buffer;

    // which mask depends on unique bit in tag structure
    uint32_t mask = (tag & LFS_MKTAG(0x100, 0, 0))
            ? LFS_MKTAG(0x7ff, 0x3ff, 0)
            : LFS_MKTAG(0x700, 0x3ff, 0);
 80021c2:	f011 5f80 	tst.w	r1, #268435456	@ 0x10000000
 80021c6:	d01c      	beq.n	8002202 <lfs_dir_traverse_filter+0x42>
 80021c8:	4a19      	ldr	r2, [pc, #100]	@ (8002230 <lfs_dir_traverse_filter+0x70>)

    // check for redundancy
    if ((mask & tag) == (mask & *filtertag) ||
 80021ca:	6803      	ldr	r3, [r0, #0]
 80021cc:	ea83 0401 	eor.w	r4, r3, r1
 80021d0:	4214      	tst	r4, r2
 80021d2:	d018      	beq.n	8002206 <lfs_dir_traverse_filter+0x46>
    return ((int32_t)(tag << 22) >> 22) == -1;
 80021d4:	f343 0209 	sbfx	r2, r3, #0, #10
    if ((mask & tag) == (mask & *filtertag) ||
 80021d8:	f1b2 3fff 	cmp.w	r2, #4294967295	@ 0xffffffff
 80021dc:	d013      	beq.n	8002206 <lfs_dir_traverse_filter+0x46>
            lfs_tag_isdelete(*filtertag) ||
            (LFS_MKTAG(0x7ff, 0x3ff, 0) & tag) == (
 80021de:	4c14      	ldr	r4, [pc, #80]	@ (8002230 <lfs_dir_traverse_filter+0x70>)
 80021e0:	400c      	ands	r4, r1
                LFS_MKTAG(LFS_TYPE_DELETE, 0, 0) |
                    (LFS_MKTAG(0, 0x3ff, 0) & *filtertag))) {
 80021e2:	4a14      	ldr	r2, [pc, #80]	@ (8002234 <lfs_dir_traverse_filter+0x74>)
 80021e4:	401a      	ands	r2, r3
                LFS_MKTAG(LFS_TYPE_DELETE, 0, 0) |
 80021e6:	f042 429f 	orr.w	r2, r2, #1333788672	@ 0x4f800000
 80021ea:	f442 02e0 	orr.w	r2, r2, #7340032	@ 0x700000
            lfs_tag_isdelete(*filtertag) ||
 80021ee:	4294      	cmp	r4, r2
 80021f0:	d009      	beq.n	8002206 <lfs_dir_traverse_filter+0x46>
    return (tag & 0x70000000) >> 20;
 80021f2:	0d0a      	lsrs	r2, r1, #20
 80021f4:	f402 64e0 	and.w	r4, r2, #1792	@ 0x700
        *filtertag = LFS_MKTAG(LFS_FROM_NOOP, 0, 0);
        return true;
    }

    // check if we need to adjust for created/deleted tags
    if (lfs_tag_type1(tag) == LFS_TYPE_SPLICE &&
 80021f8:	f5b4 6f80 	cmp.w	r4, #1024	@ 0x400
 80021fc:	d009      	beq.n	8002212 <lfs_dir_traverse_filter+0x52>
            lfs_tag_id(tag) <= lfs_tag_id(*filtertag)) {
        *filtertag += LFS_MKTAG(0, lfs_tag_splice(tag), 0);
    }

    return false;
 80021fe:	2000      	movs	r0, #0
 8002200:	e004      	b.n	800220c <lfs_dir_traverse_filter+0x4c>
            : LFS_MKTAG(0x700, 0x3ff, 0);
 8002202:	4a0d      	ldr	r2, [pc, #52]	@ (8002238 <lfs_dir_traverse_filter+0x78>)
 8002204:	e7e1      	b.n	80021ca <lfs_dir_traverse_filter+0xa>
        *filtertag = LFS_MKTAG(LFS_FROM_NOOP, 0, 0);
 8002206:	2300      	movs	r3, #0
 8002208:	6003      	str	r3, [r0, #0]
        return true;
 800220a:	2001      	movs	r0, #1
}
 800220c:	f85d 4b04 	ldr.w	r4, [sp], #4
 8002210:	4770      	bx	lr
    return (tag & 0x000ffc00) >> 10;
 8002212:	f3c1 2189 	ubfx	r1, r1, #10, #10
 8002216:	f3c3 2489 	ubfx	r4, r3, #10, #10
    if (lfs_tag_type1(tag) == LFS_TYPE_SPLICE &&
 800221a:	428c      	cmp	r4, r1
 800221c:	d305      	bcc.n	800222a <lfs_dir_traverse_filter+0x6a>
    return (int8_t)lfs_tag_chunk(tag);
 800221e:	b252      	sxtb	r2, r2
        *filtertag += LFS_MKTAG(0, lfs_tag_splice(tag), 0);
 8002220:	eb03 2382 	add.w	r3, r3, r2, lsl #10
 8002224:	6003      	str	r3, [r0, #0]
    return false;
 8002226:	2000      	movs	r0, #0
 8002228:	e7f0      	b.n	800220c <lfs_dir_traverse_filter+0x4c>
 800222a:	2000      	movs	r0, #0
 800222c:	e7ee      	b.n	800220c <lfs_dir_traverse_filter+0x4c>
 800222e:	bf00      	nop
 8002230:	7ffffc00 	.word	0x7ffffc00
 8002234:	000ffc00 	.word	0x000ffc00
 8002238:	700ffc00 	.word	0x700ffc00

0800223c <lfs_dir_commit_size>:
    return ((int32_t)(tag << 22) >> 22) == -1;
 800223c:	f341 0309 	sbfx	r3, r1, #0, #10
    return sizeof(tag) + lfs_tag_size(tag + lfs_tag_isdelete(tag));
 8002240:	f1b3 3fff 	cmp.w	r3, #4294967295	@ 0xffffffff
 8002244:	bf08      	it	eq
 8002246:	3101      	addeq	r1, #1
    return tag & 0x000003ff;
 8002248:	f3c1 0109 	ubfx	r1, r1, #0, #10
    return sizeof(tag) + lfs_tag_size(tag + lfs_tag_isdelete(tag));
 800224c:	3104      	adds	r1, #4
#ifndef LFS_READONLY
static int lfs_dir_commit_size(void *p, lfs_tag_t tag, const void *buffer) {
    lfs_size_t *size = p;
    (void)buffer;

    *size += lfs_tag_dsize(tag);
 800224e:	6803      	ldr	r3, [r0, #0]
 8002250:	440b      	add	r3, r1
 8002252:	6003      	str	r3, [r0, #0]
    return 0;
}
 8002254:	2000      	movs	r0, #0
 8002256:	4770      	bx	lr

08002258 <lfs_dir_needsrelocation>:
    // this is how littlefs wear-levels at the metadata-pair level. Note that we
    // actually use (block_cycles+1)|1, this is to avoid two corner cases:
    // 1. block_cycles = 1, which would prevent relocations from terminating
    // 2. block_cycles = 2n, which, due to aliasing, would only ever relocate
    //    one metadata block in the pair, effectively making this useless
    return (lfs->cfg->block_cycles > 0
 8002258:	6e83      	ldr	r3, [r0, #104]	@ 0x68
 800225a:	6a5b      	ldr	r3, [r3, #36]	@ 0x24
            && ((dir->rev + 1) % ((lfs->cfg->block_cycles+1)|1) == 0));
 800225c:	2b00      	cmp	r3, #0
 800225e:	dd0b      	ble.n	8002278 <lfs_dir_needsrelocation+0x20>
 8002260:	688a      	ldr	r2, [r1, #8]
 8002262:	3201      	adds	r2, #1
 8002264:	3301      	adds	r3, #1
 8002266:	f043 0301 	orr.w	r3, r3, #1
 800226a:	fbb2 f1f3 	udiv	r1, r2, r3
 800226e:	fb03 2211 	mls	r2, r3, r1, r2
 8002272:	b11a      	cbz	r2, 800227c <lfs_dir_needsrelocation+0x24>
 8002274:	2000      	movs	r0, #0
 8002276:	4770      	bx	lr
 8002278:	2000      	movs	r0, #0
 800227a:	4770      	bx	lr
 800227c:	2001      	movs	r0, #1
}
 800227e:	4770      	bx	lr

08002280 <lfs_fs_prepsuperblock>:
    return LFS_ERR_NOENT;
}
#endif

static void lfs_fs_prepsuperblock(lfs_t *lfs, bool needssuperblock) {
    lfs->gstate.tag = (lfs->gstate.tag & ~LFS_MKTAG(0, 0, 0x200))
 8002280:	6b03      	ldr	r3, [r0, #48]	@ 0x30
 8002282:	f423 7300 	bic.w	r3, r3, #512	@ 0x200
            | (uint32_t)needssuperblock << 9;
 8002286:	ea43 2341 	orr.w	r3, r3, r1, lsl #9
    lfs->gstate.tag = (lfs->gstate.tag & ~LFS_MKTAG(0, 0, 0x200))
 800228a:	6303      	str	r3, [r0, #48]	@ 0x30
}
 800228c:	4770      	bx	lr

0800228e <lfs_fs_prepmove>:
#endif

#ifndef LFS_READONLY
static void lfs_fs_prepmove(lfs_t *lfs,
        uint16_t id, const lfs_block_t pair[2]) {
    lfs->gstate.tag = ((lfs->gstate.tag & ~LFS_MKTAG(0x7ff, 0x3ff, 0)) |
 800228e:	6b03      	ldr	r3, [r0, #48]	@ 0x30
 8002290:	f36f 239e 	bfc	r3, #10, #21
            ((id != 0x3ff) ? LFS_MKTAG(LFS_TYPE_DELETE, id, 0) : 0));
 8002294:	f240 3cff 	movw	ip, #1023	@ 0x3ff
 8002298:	4561      	cmp	r1, ip
 800229a:	d011      	beq.n	80022c0 <lfs_fs_prepmove+0x32>
 800229c:	ea4f 2c81 	mov.w	ip, r1, lsl #10
 80022a0:	f04c 4c9f 	orr.w	ip, ip, #1333788672	@ 0x4f800000
 80022a4:	f44c 0ce0 	orr.w	ip, ip, #7340032	@ 0x700000
    lfs->gstate.tag = ((lfs->gstate.tag & ~LFS_MKTAG(0x7ff, 0x3ff, 0)) |
 80022a8:	ea43 030c 	orr.w	r3, r3, ip
 80022ac:	6303      	str	r3, [r0, #48]	@ 0x30
    lfs->gstate.pair[0] = (id != 0x3ff) ? pair[0] : 0;
 80022ae:	f240 33ff 	movw	r3, #1023	@ 0x3ff
 80022b2:	4299      	cmp	r1, r3
 80022b4:	d007      	beq.n	80022c6 <lfs_fs_prepmove+0x38>
 80022b6:	6813      	ldr	r3, [r2, #0]
 80022b8:	6343      	str	r3, [r0, #52]	@ 0x34
    lfs->gstate.pair[1] = (id != 0x3ff) ? pair[1] : 0;
 80022ba:	6853      	ldr	r3, [r2, #4]
 80022bc:	6383      	str	r3, [r0, #56]	@ 0x38
}
 80022be:	4770      	bx	lr
            ((id != 0x3ff) ? LFS_MKTAG(LFS_TYPE_DELETE, id, 0) : 0));
 80022c0:	f04f 0c00 	mov.w	ip, #0
 80022c4:	e7f0      	b.n	80022a8 <lfs_fs_prepmove+0x1a>
    lfs->gstate.pair[0] = (id != 0x3ff) ? pair[0] : 0;
 80022c6:	2300      	movs	r3, #0
 80022c8:	6343      	str	r3, [r0, #52]	@ 0x34
    lfs->gstate.pair[1] = (id != 0x3ff) ? pair[1] : 0;
 80022ca:	e7f7      	b.n	80022bc <lfs_fs_prepmove+0x2e>

080022cc <lfs_fs_size_count>:
#endif

static int lfs_fs_size_count(void *p, lfs_block_t block) {
    (void)block;
    lfs_size_t *size = p;
    *size += 1;
 80022cc:	6803      	ldr	r3, [r0, #0]
 80022ce:	3301      	adds	r3, #1
 80022d0:	6003      	str	r3, [r0, #0]
    return 0;
}
 80022d2:	2000      	movs	r0, #0
 80022d4:	4770      	bx	lr
	...

080022d8 <lfs_bd_erase>:
static int lfs_bd_erase(lfs_t *lfs, lfs_block_t block) {
 80022d8:	b508      	push	{r3, lr}
    LFS_ASSERT(block < lfs->block_count);
 80022da:	6ec3      	ldr	r3, [r0, #108]	@ 0x6c
 80022dc:	428b      	cmp	r3, r1
 80022de:	d905      	bls.n	80022ec <lfs_bd_erase+0x14>
    int err = lfs->cfg->erase(lfs->cfg, block);
 80022e0:	6e80      	ldr	r0, [r0, #104]	@ 0x68
 80022e2:	68c3      	ldr	r3, [r0, #12]
 80022e4:	4798      	blx	r3
    LFS_ASSERT(err <= 0);
 80022e6:	2800      	cmp	r0, #0
 80022e8:	dc07      	bgt.n	80022fa <lfs_bd_erase+0x22>
}
 80022ea:	bd08      	pop	{r3, pc}
    LFS_ASSERT(block < lfs->block_count);
 80022ec:	4b06      	ldr	r3, [pc, #24]	@ (8002308 <lfs_bd_erase+0x30>)
 80022ee:	4a07      	ldr	r2, [pc, #28]	@ (800230c <lfs_bd_erase+0x34>)
 80022f0:	f240 1115 	movw	r1, #277	@ 0x115
 80022f4:	4806      	ldr	r0, [pc, #24]	@ (8002310 <lfs_bd_erase+0x38>)
 80022f6:	f003 fdcd 	bl	8005e94 <__assert_func>
    LFS_ASSERT(err <= 0);
 80022fa:	4b06      	ldr	r3, [pc, #24]	@ (8002314 <lfs_bd_erase+0x3c>)
 80022fc:	4a03      	ldr	r2, [pc, #12]	@ (800230c <lfs_bd_erase+0x34>)
 80022fe:	f240 1117 	movw	r1, #279	@ 0x117
 8002302:	4803      	ldr	r0, [pc, #12]	@ (8002310 <lfs_bd_erase+0x38>)
 8002304:	f003 fdc6 	bl	8005e94 <__assert_func>
 8002308:	080071f8 	.word	0x080071f8
 800230c:	08007e40 	.word	0x08007e40
 8002310:	080070fc 	.word	0x080070fc
 8002314:	08007110 	.word	0x08007110

08002318 <lfs_fs_preporphans>:
static int lfs_fs_preporphans(lfs_t *lfs, int8_t orphans) {
 8002318:	b508      	push	{r3, lr}
    LFS_ASSERT(lfs_tag_size(lfs->gstate.tag) > 0x000 || orphans >= 0);
 800231a:	6b03      	ldr	r3, [r0, #48]	@ 0x30
    return tag & 0x000003ff;
 800231c:	f3c3 0209 	ubfx	r2, r3, #0, #10
    LFS_ASSERT(lfs_tag_size(lfs->gstate.tag) > 0x000 || orphans >= 0);
 8002320:	b90a      	cbnz	r2, 8002326 <lfs_fs_preporphans+0xe>
 8002322:	2900      	cmp	r1, #0
 8002324:	db12      	blt.n	800234c <lfs_fs_preporphans+0x34>
    LFS_ASSERT(lfs_tag_size(lfs->gstate.tag) < 0x1ff || orphans <= 0);
 8002326:	f5b2 7fff 	cmp.w	r2, #510	@ 0x1fe
 800232a:	d901      	bls.n	8002330 <lfs_fs_preporphans+0x18>
 800232c:	2900      	cmp	r1, #0
 800232e:	dc14      	bgt.n	800235a <lfs_fs_preporphans+0x42>
    lfs->gstate.tag += orphans;
 8002330:	4419      	add	r1, r3
 8002332:	6301      	str	r1, [r0, #48]	@ 0x30
    lfs->gstate.tag = ((lfs->gstate.tag & ~LFS_MKTAG(0x800, 0, 0)) |
 8002334:	f021 4300 	bic.w	r3, r1, #2147483648	@ 0x80000000
    return tag & 0x000003ff;
 8002338:	f3c1 0109 	ubfx	r1, r1, #0, #10
    return lfs_tag_size(a->tag);
 800233c:	3900      	subs	r1, #0
 800233e:	bf18      	it	ne
 8002340:	2101      	movne	r1, #1
    lfs->gstate.tag = ((lfs->gstate.tag & ~LFS_MKTAG(0x800, 0, 0)) |
 8002342:	ea43 73c1 	orr.w	r3, r3, r1, lsl #31
 8002346:	6303      	str	r3, [r0, #48]	@ 0x30
}
 8002348:	2000      	movs	r0, #0
 800234a:	bd08      	pop	{r3, pc}
    LFS_ASSERT(lfs_tag_size(lfs->gstate.tag) > 0x000 || orphans >= 0);
 800234c:	4b06      	ldr	r3, [pc, #24]	@ (8002368 <lfs_fs_preporphans+0x50>)
 800234e:	4a07      	ldr	r2, [pc, #28]	@ (800236c <lfs_fs_preporphans+0x54>)
 8002350:	f241 3128 	movw	r1, #4904	@ 0x1328
 8002354:	4806      	ldr	r0, [pc, #24]	@ (8002370 <lfs_fs_preporphans+0x58>)
 8002356:	f003 fd9d 	bl	8005e94 <__assert_func>
    LFS_ASSERT(lfs_tag_size(lfs->gstate.tag) < 0x1ff || orphans <= 0);
 800235a:	4b06      	ldr	r3, [pc, #24]	@ (8002374 <lfs_fs_preporphans+0x5c>)
 800235c:	4a03      	ldr	r2, [pc, #12]	@ (800236c <lfs_fs_preporphans+0x54>)
 800235e:	f241 3129 	movw	r1, #4905	@ 0x1329
 8002362:	4803      	ldr	r0, [pc, #12]	@ (8002370 <lfs_fs_preporphans+0x58>)
 8002364:	f003 fd96 	bl	8005e94 <__assert_func>
 8002368:	0800711c 	.word	0x0800711c
 800236c:	08007dfc 	.word	0x08007dfc
 8002370:	080070fc 	.word	0x080070fc
 8002374:	08007154 	.word	0x08007154

08002378 <lfs_cache_zero>:
static inline void lfs_cache_zero(lfs_t *lfs, lfs_cache_t *pcache) {
 8002378:	b510      	push	{r4, lr}
 800237a:	460c      	mov	r4, r1
    memset(pcache->buffer, 0xff, lfs->cfg->cache_size);
 800237c:	6e83      	ldr	r3, [r0, #104]	@ 0x68
 800237e:	6a9a      	ldr	r2, [r3, #40]	@ 0x28
 8002380:	21ff      	movs	r1, #255	@ 0xff
 8002382:	68e0      	ldr	r0, [r4, #12]
 8002384:	f004 f88e 	bl	80064a4 <memset>
    pcache->block = LFS_BLOCK_NULL;
 8002388:	f04f 33ff 	mov.w	r3, #4294967295	@ 0xffffffff
 800238c:	6023      	str	r3, [r4, #0]
}
 800238e:	bd10      	pop	{r4, pc}

08002390 <lfs_tortoise_detectcycles>:
    const lfs_mdir_t *dir, struct lfs_tortoise_t *tortoise) {
 8002390:	b538      	push	{r3, r4, r5, lr}
 8002392:	4605      	mov	r5, r0
 8002394:	460c      	mov	r4, r1
    if (lfs_pair_issync(dir->tail, tortoise->pair)) {
 8002396:	3018      	adds	r0, #24
 8002398:	f7ff fe9c 	bl	80020d4 <lfs_pair_issync>
 800239c:	b940      	cbnz	r0, 80023b0 <lfs_tortoise_detectcycles+0x20>
    if (tortoise->i == tortoise->period) {
 800239e:	68a2      	ldr	r2, [r4, #8]
 80023a0:	68e3      	ldr	r3, [r4, #12]
 80023a2:	429a      	cmp	r2, r3
 80023a4:	d00e      	beq.n	80023c4 <lfs_tortoise_detectcycles+0x34>
    tortoise->i += 1;
 80023a6:	68a3      	ldr	r3, [r4, #8]
 80023a8:	3301      	adds	r3, #1
 80023aa:	60a3      	str	r3, [r4, #8]
    return LFS_ERR_OK;
 80023ac:	2000      	movs	r0, #0
}
 80023ae:	bd38      	pop	{r3, r4, r5, pc}
        LFS_WARN("Cycle detected in tail list");
 80023b0:	4b09      	ldr	r3, [pc, #36]	@ (80023d8 <lfs_tortoise_detectcycles+0x48>)
 80023b2:	f241 127c 	movw	r2, #4476	@ 0x117c
 80023b6:	4909      	ldr	r1, [pc, #36]	@ (80023dc <lfs_tortoise_detectcycles+0x4c>)
 80023b8:	4809      	ldr	r0, [pc, #36]	@ (80023e0 <lfs_tortoise_detectcycles+0x50>)
 80023ba:	f003 ff1d 	bl	80061f8 <iprintf>
        return LFS_ERR_CORRUPT;
 80023be:	f06f 0053 	mvn.w	r0, #83	@ 0x53
 80023c2:	e7f4      	b.n	80023ae <lfs_tortoise_detectcycles+0x1e>
        tortoise->pair[0] = dir->tail[0];
 80023c4:	69aa      	ldr	r2, [r5, #24]
 80023c6:	6022      	str	r2, [r4, #0]
        tortoise->pair[1] = dir->tail[1];
 80023c8:	69ea      	ldr	r2, [r5, #28]
 80023ca:	6062      	str	r2, [r4, #4]
        tortoise->i = 0;
 80023cc:	2200      	movs	r2, #0
 80023ce:	60a2      	str	r2, [r4, #8]
        tortoise->period *= 2;
 80023d0:	005b      	lsls	r3, r3, #1
 80023d2:	60e3      	str	r3, [r4, #12]
 80023d4:	e7e7      	b.n	80023a6 <lfs_tortoise_detectcycles+0x16>
 80023d6:	bf00      	nop
 80023d8:	0800708c 	.word	0x0800708c
 80023dc:	080070fc 	.word	0x080070fc
 80023e0:	0800718c 	.word	0x0800718c

080023e4 <lfs_ctz_index>:
static int lfs_ctz_index(lfs_t *lfs, lfs_off_t *off) {
 80023e4:	b5f8      	push	{r3, r4, r5, r6, r7, lr}
    lfs_off_t size = *off;
 80023e6:	680d      	ldr	r5, [r1, #0]
    lfs_off_t b = lfs->cfg->block_size - 2*4;
 80023e8:	6e83      	ldr	r3, [r0, #104]	@ 0x68
 80023ea:	69df      	ldr	r7, [r3, #28]
 80023ec:	3f08      	subs	r7, #8
    lfs_off_t i = size / b;
 80023ee:	fbb5 f0f7 	udiv	r0, r5, r7
    if (i == 0) {
 80023f2:	42bd      	cmp	r5, r7
 80023f4:	d312      	bcc.n	800241c <lfs_ctz_index+0x38>
 80023f6:	460e      	mov	r6, r1
}

// Count the number of binary ones in a
static inline uint32_t lfs_popc(uint32_t a) {
#if !defined(LFS_NO_INTRINSICS) && (defined(__GNUC__) || defined(__CC_ARM))
    return __builtin_popcount(a);
 80023f8:	3801      	subs	r0, #1
 80023fa:	f7fd ff51 	bl	80002a0 <__popcountsi2>
    i = (size - 4*(lfs_popc(i-1)+2)) / b;
 80023fe:	1c84      	adds	r4, r0, #2
 8002400:	eba5 0484 	sub.w	r4, r5, r4, lsl #2
 8002404:	fbb4 f4f7 	udiv	r4, r4, r7
    *off = size - b*i - 4*lfs_popc(i);
 8002408:	fb04 5517 	mls	r5, r4, r7, r5
 800240c:	4620      	mov	r0, r4
 800240e:	f7fd ff47 	bl	80002a0 <__popcountsi2>
 8002412:	eba5 0580 	sub.w	r5, r5, r0, lsl #2
 8002416:	6035      	str	r5, [r6, #0]
    return i;
 8002418:	4620      	mov	r0, r4
}
 800241a:	bdf8      	pop	{r3, r4, r5, r6, r7, pc}
        return 0;
 800241c:	2000      	movs	r0, #0
 800241e:	e7fc      	b.n	800241a <lfs_ctz_index+0x36>

08002420 <lfs_bd_read>:
        void *buffer, lfs_size_t size) {
 8002420:	e92d 4ff0 	stmdb	sp!, {r4, r5, r6, r7, r8, r9, sl, fp, lr}
 8002424:	b087      	sub	sp, #28
 8002426:	4614      	mov	r4, r2
 8002428:	469b      	mov	fp, r3
 800242a:	9f10      	ldr	r7, [sp, #64]	@ 0x40
 800242c:	9d11      	ldr	r5, [sp, #68]	@ 0x44
 800242e:	f8dd a04c 	ldr.w	sl, [sp, #76]	@ 0x4c
    if (off+size > lfs->cfg->block_size
 8002432:	eb05 020a 	add.w	r2, r5, sl
 8002436:	6e83      	ldr	r3, [r0, #104]	@ 0x68
 8002438:	69db      	ldr	r3, [r3, #28]
 800243a:	429a      	cmp	r2, r3
 800243c:	f200 80d2 	bhi.w	80025e4 <lfs_bd_read+0x1c4>
 8002440:	4689      	mov	r9, r1
            || (lfs->block_count && block >= lfs->block_count)) {
 8002442:	6ec3      	ldr	r3, [r0, #108]	@ 0x6c
 8002444:	2b00      	cmp	r3, #0
 8002446:	f000 80c9 	beq.w	80025dc <lfs_bd_read+0x1bc>
 800244a:	42bb      	cmp	r3, r7
 800244c:	f240 80cd 	bls.w	80025ea <lfs_bd_read+0x1ca>
 8002450:	9003      	str	r0, [sp, #12]
 8002452:	e085      	b.n	8002560 <lfs_bd_read+0x140>
                off < pcache->off + pcache->size) {
 8002454:	f8d9 3004 	ldr.w	r3, [r9, #4]
 8002458:	f8d9 2008 	ldr.w	r2, [r9, #8]
 800245c:	1899      	adds	r1, r3, r2
        if (pcache && block == pcache->block &&
 800245e:	42a9      	cmp	r1, r5
 8002460:	d91e      	bls.n	80024a0 <lfs_bd_read+0x80>
            if (off >= pcache->off) {
 8002462:	42ab      	cmp	r3, r5
 8002464:	d905      	bls.n	8002472 <lfs_bd_read+0x52>
            diff = lfs_min(diff, pcache->off-off);
 8002466:	1b5b      	subs	r3, r3, r5
    return (a < b) ? a : b;
 8002468:	4553      	cmp	r3, sl
 800246a:	bf28      	it	cs
 800246c:	4653      	movcs	r3, sl
 800246e:	4698      	mov	r8, r3
 8002470:	e082      	b.n	8002578 <lfs_bd_read+0x158>
                diff = lfs_min(diff, pcache->size - (off-pcache->off));
 8002472:	1b59      	subs	r1, r3, r5
 8002474:	eb02 0801 	add.w	r8, r2, r1
 8002478:	45d0      	cmp	r8, sl
 800247a:	bf28      	it	cs
 800247c:	46d0      	movcs	r8, sl
                memcpy(data, &pcache->buffer[off-pcache->off], diff);
 800247e:	f8d9 100c 	ldr.w	r1, [r9, #12]
 8002482:	1aeb      	subs	r3, r5, r3
 8002484:	4642      	mov	r2, r8
 8002486:	4419      	add	r1, r3
 8002488:	9812      	ldr	r0, [sp, #72]	@ 0x48
 800248a:	f004 f896 	bl	80065ba <memcpy>
                data += diff;
 800248e:	9b12      	ldr	r3, [sp, #72]	@ 0x48
 8002490:	4443      	add	r3, r8
 8002492:	9312      	str	r3, [sp, #72]	@ 0x48
                off += diff;
 8002494:	4445      	add	r5, r8
                size -= diff;
 8002496:	ebaa 0a08 	sub.w	sl, sl, r8
                continue;
 800249a:	e061      	b.n	8002560 <lfs_bd_read+0x140>
        lfs_size_t diff = size;
 800249c:	46d0      	mov	r8, sl
 800249e:	e06b      	b.n	8002578 <lfs_bd_read+0x158>
 80024a0:	46d0      	mov	r8, sl
 80024a2:	e069      	b.n	8002578 <lfs_bd_read+0x158>
                off < rcache->off + rcache->size) {
 80024a4:	6863      	ldr	r3, [r4, #4]
 80024a6:	68a2      	ldr	r2, [r4, #8]
 80024a8:	1899      	adds	r1, r3, r2
        if (block == rcache->block &&
 80024aa:	42a9      	cmp	r1, r5
 80024ac:	d967      	bls.n	800257e <lfs_bd_read+0x15e>
            if (off >= rcache->off) {
 80024ae:	42ab      	cmp	r3, r5
 80024b0:	d904      	bls.n	80024bc <lfs_bd_read+0x9c>
            diff = lfs_min(diff, rcache->off-off);
 80024b2:	1b5b      	subs	r3, r3, r5
 80024b4:	4598      	cmp	r8, r3
 80024b6:	bf28      	it	cs
 80024b8:	4698      	movcs	r8, r3
 80024ba:	e060      	b.n	800257e <lfs_bd_read+0x15e>
                diff = lfs_min(diff, rcache->size - (off-rcache->off));
 80024bc:	1b59      	subs	r1, r3, r5
 80024be:	440a      	add	r2, r1
 80024c0:	4590      	cmp	r8, r2
 80024c2:	bf28      	it	cs
 80024c4:	4690      	movcs	r8, r2
                memcpy(data, &rcache->buffer[off-rcache->off], diff);
 80024c6:	68e1      	ldr	r1, [r4, #12]
 80024c8:	1aeb      	subs	r3, r5, r3
 80024ca:	4642      	mov	r2, r8
 80024cc:	4419      	add	r1, r3
 80024ce:	9812      	ldr	r0, [sp, #72]	@ 0x48
 80024d0:	f004 f873 	bl	80065ba <memcpy>
                data += diff;
 80024d4:	9b12      	ldr	r3, [sp, #72]	@ 0x48
 80024d6:	4443      	add	r3, r8
 80024d8:	9312      	str	r3, [sp, #72]	@ 0x48
                off += diff;
 80024da:	4445      	add	r5, r8
                size -= diff;
 80024dc:	ebaa 0a08 	sub.w	sl, sl, r8
                continue;
 80024e0:	e03e      	b.n	8002560 <lfs_bd_read+0x140>
            LFS_ASSERT(err <= 0);
 80024e2:	4b43      	ldr	r3, [pc, #268]	@ (80025f0 <lfs_bd_read+0x1d0>)
 80024e4:	4a43      	ldr	r2, [pc, #268]	@ (80025f4 <lfs_bd_read+0x1d4>)
 80024e6:	2160      	movs	r1, #96	@ 0x60
 80024e8:	4843      	ldr	r0, [pc, #268]	@ (80025f8 <lfs_bd_read+0x1d8>)
 80024ea:	f003 fcd3 	bl	8005e94 <__assert_func>
            data += diff;
 80024ee:	9b12      	ldr	r3, [sp, #72]	@ 0x48
 80024f0:	9a05      	ldr	r2, [sp, #20]
 80024f2:	4413      	add	r3, r2
 80024f4:	9312      	str	r3, [sp, #72]	@ 0x48
            off += diff;
 80024f6:	4415      	add	r5, r2
            size -= diff;
 80024f8:	9b04      	ldr	r3, [sp, #16]
 80024fa:	eba3 0308 	sub.w	r3, r3, r8
 80024fe:	449a      	add	sl, r3
            continue;
 8002500:	e02e      	b.n	8002560 <lfs_bd_read+0x140>
        LFS_ASSERT(!lfs->block_count || block < lfs->block_count);
 8002502:	9b03      	ldr	r3, [sp, #12]
 8002504:	6edb      	ldr	r3, [r3, #108]	@ 0x6c
 8002506:	b10b      	cbz	r3, 800250c <lfs_bd_read+0xec>
 8002508:	42bb      	cmp	r3, r7
 800250a:	d95b      	bls.n	80025c4 <lfs_bd_read+0x1a4>
        rcache->block = block;
 800250c:	6027      	str	r7, [r4, #0]
        rcache->off = lfs_aligndown(off, lfs->cfg->read_size);
 800250e:	9e03      	ldr	r6, [sp, #12]
 8002510:	6eb3      	ldr	r3, [r6, #104]	@ 0x68
 8002512:	695b      	ldr	r3, [r3, #20]
    return a - (a % alignment);
 8002514:	fbb5 f2f3 	udiv	r2, r5, r3
 8002518:	fb03 f202 	mul.w	r2, r3, r2
 800251c:	6062      	str	r2, [r4, #4]
                    lfs_alignup(off+hint, lfs->cfg->read_size),
 800251e:	eb05 030b 	add.w	r3, r5, fp
 8002522:	6eb1      	ldr	r1, [r6, #104]	@ 0x68
 8002524:	6948      	ldr	r0, [r1, #20]
    return lfs_aligndown(a + alignment-1, alignment);
 8002526:	4403      	add	r3, r0
 8002528:	3b01      	subs	r3, #1
    return a - (a % alignment);
 800252a:	fbb3 f3f0 	udiv	r3, r3, r0
 800252e:	fb00 f303 	mul.w	r3, r0, r3
                    lfs->cfg->block_size)
 8002532:	69c8      	ldr	r0, [r1, #28]
                - rcache->off,
 8002534:	4298      	cmp	r0, r3
 8002536:	bf94      	ite	ls
 8002538:	ebc2 0c00 	rsbls	ip, r2, r0
 800253c:	ebc2 0c03 	rsbhi	ip, r2, r3
                lfs->cfg->cache_size);
 8002540:	6a8b      	ldr	r3, [r1, #40]	@ 0x28
    return (a < b) ? a : b;
 8002542:	4563      	cmp	r3, ip
 8002544:	bf28      	it	cs
 8002546:	4663      	movcs	r3, ip
        rcache->size = lfs_min(
 8002548:	60a3      	str	r3, [r4, #8]
        int err = lfs->cfg->read(lfs->cfg, rcache->block,
 800254a:	6eb0      	ldr	r0, [r6, #104]	@ 0x68
 800254c:	f8d0 8004 	ldr.w	r8, [r0, #4]
 8002550:	9300      	str	r3, [sp, #0]
 8002552:	68e3      	ldr	r3, [r4, #12]
 8002554:	4639      	mov	r1, r7
 8002556:	47c0      	blx	r8
        LFS_ASSERT(err <= 0);
 8002558:	2800      	cmp	r0, #0
 800255a:	dc39      	bgt.n	80025d0 <lfs_bd_read+0x1b0>
        if (err) {
 800255c:	2800      	cmp	r0, #0
 800255e:	d12e      	bne.n	80025be <lfs_bd_read+0x19e>
    while (size > 0) {
 8002560:	f1ba 0f00 	cmp.w	sl, #0
 8002564:	d03c      	beq.n	80025e0 <lfs_bd_read+0x1c0>
        if (pcache && block == pcache->block &&
 8002566:	f1b9 0f00 	cmp.w	r9, #0
 800256a:	d097      	beq.n	800249c <lfs_bd_read+0x7c>
 800256c:	f8d9 3000 	ldr.w	r3, [r9]
 8002570:	42bb      	cmp	r3, r7
 8002572:	f43f af6f 	beq.w	8002454 <lfs_bd_read+0x34>
        lfs_size_t diff = size;
 8002576:	46d0      	mov	r8, sl
        if (block == rcache->block &&
 8002578:	6823      	ldr	r3, [r4, #0]
 800257a:	42bb      	cmp	r3, r7
 800257c:	d092      	beq.n	80024a4 <lfs_bd_read+0x84>
        if (size >= hint && off % lfs->cfg->read_size == 0 &&
 800257e:	45da      	cmp	sl, fp
 8002580:	d3bf      	bcc.n	8002502 <lfs_bd_read+0xe2>
 8002582:	9b03      	ldr	r3, [sp, #12]
 8002584:	6e98      	ldr	r0, [r3, #104]	@ 0x68
 8002586:	6942      	ldr	r2, [r0, #20]
 8002588:	fbb5 f3f2 	udiv	r3, r5, r2
 800258c:	fb02 5313 	mls	r3, r2, r3, r5
 8002590:	2b00      	cmp	r3, #0
 8002592:	d1b6      	bne.n	8002502 <lfs_bd_read+0xe2>
 8002594:	4552      	cmp	r2, sl
 8002596:	d8b4      	bhi.n	8002502 <lfs_bd_read+0xe2>
    return a - (a % alignment);
 8002598:	fbb8 f3f2 	udiv	r3, r8, r2
 800259c:	fb02 f303 	mul.w	r3, r2, r3
 80025a0:	9305      	str	r3, [sp, #20]
 80025a2:	eba8 0203 	sub.w	r2, r8, r3
 80025a6:	9204      	str	r2, [sp, #16]
            int err = lfs->cfg->read(lfs->cfg, block, off, data, diff);
 80025a8:	6842      	ldr	r2, [r0, #4]
 80025aa:	4616      	mov	r6, r2
 80025ac:	9300      	str	r3, [sp, #0]
 80025ae:	9b12      	ldr	r3, [sp, #72]	@ 0x48
 80025b0:	462a      	mov	r2, r5
 80025b2:	4639      	mov	r1, r7
 80025b4:	47b0      	blx	r6
            LFS_ASSERT(err <= 0);
 80025b6:	2800      	cmp	r0, #0
 80025b8:	dc93      	bgt.n	80024e2 <lfs_bd_read+0xc2>
            if (err) {
 80025ba:	2800      	cmp	r0, #0
 80025bc:	d097      	beq.n	80024ee <lfs_bd_read+0xce>
}
 80025be:	b007      	add	sp, #28
 80025c0:	e8bd 8ff0 	ldmia.w	sp!, {r4, r5, r6, r7, r8, r9, sl, fp, pc}
        LFS_ASSERT(!lfs->block_count || block < lfs->block_count);
 80025c4:	4b0d      	ldr	r3, [pc, #52]	@ (80025fc <lfs_bd_read+0x1dc>)
 80025c6:	4a0b      	ldr	r2, [pc, #44]	@ (80025f4 <lfs_bd_read+0x1d4>)
 80025c8:	216c      	movs	r1, #108	@ 0x6c
 80025ca:	480b      	ldr	r0, [pc, #44]	@ (80025f8 <lfs_bd_read+0x1d8>)
 80025cc:	f003 fc62 	bl	8005e94 <__assert_func>
        LFS_ASSERT(err <= 0);
 80025d0:	4b07      	ldr	r3, [pc, #28]	@ (80025f0 <lfs_bd_read+0x1d0>)
 80025d2:	4a08      	ldr	r2, [pc, #32]	@ (80025f4 <lfs_bd_read+0x1d4>)
 80025d4:	2177      	movs	r1, #119	@ 0x77
 80025d6:	4808      	ldr	r0, [pc, #32]	@ (80025f8 <lfs_bd_read+0x1d8>)
 80025d8:	f003 fc5c 	bl	8005e94 <__assert_func>
 80025dc:	9003      	str	r0, [sp, #12]
 80025de:	e7bf      	b.n	8002560 <lfs_bd_read+0x140>
    return 0;
 80025e0:	2000      	movs	r0, #0
 80025e2:	e7ec      	b.n	80025be <lfs_bd_read+0x19e>
        return LFS_ERR_CORRUPT;
 80025e4:	f06f 0053 	mvn.w	r0, #83	@ 0x53
 80025e8:	e7e9      	b.n	80025be <lfs_bd_read+0x19e>
 80025ea:	f06f 0053 	mvn.w	r0, #83	@ 0x53
 80025ee:	e7e6      	b.n	80025be <lfs_bd_read+0x19e>
 80025f0:	08007110 	.word	0x08007110
 80025f4:	08007e68 	.word	0x08007e68
 80025f8:	080070fc 	.word	0x080070fc
 80025fc:	080071b8 	.word	0x080071b8

08002600 <lfs_dir_getslice>:
        lfs_off_t goff, void *gbuffer, lfs_size_t gsize) {
 8002600:	e92d 4ff0 	stmdb	sp!, {r4, r5, r6, r7, r8, r9, sl, fp, lr}
 8002604:	b087      	sub	sp, #28
 8002606:	4606      	mov	r6, r0
 8002608:	468b      	mov	fp, r1
 800260a:	4617      	mov	r7, r2
 800260c:	469a      	mov	sl, r3
    lfs_off_t off = dir->off;
 800260e:	68cd      	ldr	r5, [r1, #12]
    lfs_tag_t ntag = dir->etag;
 8002610:	690b      	ldr	r3, [r1, #16]
 8002612:	9305      	str	r3, [sp, #20]
    if (lfs_gstate_hasmovehere(&lfs->gdisk, dir->pair) &&
 8002614:	303c      	adds	r0, #60	@ 0x3c
 8002616:	f7ff fd81 	bl	800211c <lfs_gstate_hasmovehere>
 800261a:	2800      	cmp	r0, #0
 800261c:	f000 809f 	beq.w	800275e <lfs_dir_getslice+0x15e>
    return (tag & 0x000ffc00) >> 10;
 8002620:	f3c7 2389 	ubfx	r3, r7, #10, #10
    if (lfs_gstate_hasmovehere(&lfs->gdisk, dir->pair) &&
 8002624:	2b00      	cmp	r3, #0
 8002626:	f000 809d 	beq.w	8002764 <lfs_dir_getslice+0x164>
        if (lfs_tag_id(lfs->gdisk.tag) == lfs_tag_id(gtag)) {
 800262a:	6bf3      	ldr	r3, [r6, #60]	@ 0x3c
    return (tag & 0x000ffc00) >> 10;
 800262c:	f3c3 238f 	ubfx	r3, r3, #10, #16
 8002630:	f3ca 228f 	ubfx	r2, sl, #10, #16
        if (lfs_tag_id(lfs->gdisk.tag) == lfs_tag_id(gtag)) {
 8002634:	ea83 0102 	eor.w	r1, r3, r2
 8002638:	f3c1 0109 	ubfx	r1, r1, #0, #10
 800263c:	2900      	cmp	r1, #0
 800263e:	f000 809c 	beq.w	800277a <lfs_dir_getslice+0x17a>
    return (tag & 0x000ffc00) >> 10;
 8002642:	f3c3 0309 	ubfx	r3, r3, #0, #10
 8002646:	f3c2 0209 	ubfx	r2, r2, #0, #10
        } else if (lfs_tag_id(lfs->gdisk.tag) < lfs_tag_id(gtag)) {
 800264a:	4293      	cmp	r3, r2
 800264c:	f0c0 808d 	bcc.w	800276a <lfs_dir_getslice+0x16a>
    lfs_stag_t gdiff = 0;
 8002650:	f04f 0900 	mov.w	r9, #0
 8002654:	e00b      	b.n	800266e <lfs_dir_getslice+0x6e>
        LFS_ASSERT(err <= 0);
 8002656:	4b4d      	ldr	r3, [pc, #308]	@ (800278c <lfs_dir_getslice+0x18c>)
 8002658:	4a4d      	ldr	r2, [pc, #308]	@ (8002790 <lfs_dir_getslice+0x190>)
 800265a:	f240 21e7 	movw	r1, #743	@ 0x2e7
 800265e:	484d      	ldr	r0, [pc, #308]	@ (8002794 <lfs_dir_getslice+0x194>)
 8002660:	f003 fc18 	bl	8005e94 <__assert_func>
        if ((gmask & tag) == (gmask & (gtag - gdiff))) {
 8002664:	ebaa 0309 	sub.w	r3, sl, r9
 8002668:	4063      	eors	r3, r4
 800266a:	423b      	tst	r3, r7
 800266c:	d04a      	beq.n	8002704 <lfs_dir_getslice+0x104>
    while (off >= sizeof(lfs_tag_t) + lfs_tag_dsize(ntag)) {
 800266e:	9c05      	ldr	r4, [sp, #20]
    return ((int32_t)(tag << 22) >> 22) == -1;
 8002670:	f344 0809 	sbfx	r8, r4, #0, #10
    return sizeof(tag) + lfs_tag_size(tag + lfs_tag_isdelete(tag));
 8002674:	f1b8 3fff 	cmp.w	r8, #4294967295	@ 0xffffffff
 8002678:	bf14      	ite	ne
 800267a:	4623      	movne	r3, r4
 800267c:	1c63      	addeq	r3, r4, #1
    return tag & 0x000003ff;
 800267e:	f3c3 0309 	ubfx	r3, r3, #0, #10
    while (off >= sizeof(lfs_tag_t) + lfs_tag_dsize(ntag)) {
 8002682:	f103 0208 	add.w	r2, r3, #8
 8002686:	42aa      	cmp	r2, r5
 8002688:	d872      	bhi.n	8002770 <lfs_dir_getslice+0x170>
    return sizeof(tag) + lfs_tag_size(tag + lfs_tag_isdelete(tag));
 800268a:	3304      	adds	r3, #4
        off -= lfs_tag_dsize(ntag);
 800268c:	1aed      	subs	r5, r5, r3
                dir->pair[0], off, &ntag, sizeof(ntag));
 800268e:	f8db 2000 	ldr.w	r2, [fp]
        int err = lfs_bd_read(lfs,
 8002692:	2304      	movs	r3, #4
 8002694:	9303      	str	r3, [sp, #12]
 8002696:	a905      	add	r1, sp, #20
 8002698:	9102      	str	r1, [sp, #8]
 800269a:	9501      	str	r5, [sp, #4]
 800269c:	9200      	str	r2, [sp, #0]
 800269e:	4632      	mov	r2, r6
 80026a0:	2100      	movs	r1, #0
 80026a2:	4630      	mov	r0, r6
 80026a4:	f7ff febc 	bl	8002420 <lfs_bd_read>
        LFS_ASSERT(err <= 0);
 80026a8:	2800      	cmp	r0, #0
 80026aa:	dcd4      	bgt.n	8002656 <lfs_dir_getslice+0x56>
        if (err) {
 80026ac:	2800      	cmp	r0, #0
 80026ae:	d161      	bne.n	8002774 <lfs_dir_getslice+0x174>
        ntag = (lfs_frombe32(ntag) ^ tag) & 0x7fffffff;
 80026b0:	9b05      	ldr	r3, [sp, #20]
static inline uint32_t lfs_frombe32(uint32_t a) {
#if !defined(LFS_NO_INTRINSICS) && ( \
    (defined(  BYTE_ORDER  ) && defined(  ORDER_LITTLE_ENDIAN  ) &&   BYTE_ORDER   ==   ORDER_LITTLE_ENDIAN  ) || \
    (defined(__BYTE_ORDER  ) && defined(__ORDER_LITTLE_ENDIAN  ) && __BYTE_ORDER   == __ORDER_LITTLE_ENDIAN  ) || \
    (defined(__BYTE_ORDER__) && defined(__ORDER_LITTLE_ENDIAN__) && __BYTE_ORDER__ == __ORDER_LITTLE_ENDIAN__))
    return __builtin_bswap32(a);
 80026b2:	ba1b      	rev	r3, r3
 80026b4:	4063      	eors	r3, r4
 80026b6:	f023 4300 	bic.w	r3, r3, #2147483648	@ 0x80000000
 80026ba:	9305      	str	r3, [sp, #20]
    return (tag & 0x000ffc00) >> 10;
 80026bc:	f3c7 2389 	ubfx	r3, r7, #10, #10
        if (lfs_tag_id(gmask) != 0 &&
 80026c0:	2b00      	cmp	r3, #0
 80026c2:	d0cf      	beq.n	8002664 <lfs_dir_getslice+0x64>
    return (tag & 0x70000000) >> 20;
 80026c4:	0d23      	lsrs	r3, r4, #20
 80026c6:	f403 62e0 	and.w	r2, r3, #1792	@ 0x700
        if (lfs_tag_id(gmask) != 0 &&
 80026ca:	f5b2 6f80 	cmp.w	r2, #1024	@ 0x400
 80026ce:	d1c9      	bne.n	8002664 <lfs_dir_getslice+0x64>
    return (tag & 0x000ffc00) >> 10;
 80026d0:	f3c4 2189 	ubfx	r1, r4, #10, #10
                lfs_tag_id(tag) <= lfs_tag_id(gtag - gdiff)) {
 80026d4:	ebaa 0209 	sub.w	r2, sl, r9
    return (tag & 0x000ffc00) >> 10;
 80026d8:	f3c2 2089 	ubfx	r0, r2, #10, #10
                lfs_tag_type1(tag) == LFS_TYPE_SPLICE &&
 80026dc:	4288      	cmp	r0, r1
 80026de:	d3c1      	bcc.n	8002664 <lfs_dir_getslice+0x64>
                    (LFS_MKTAG(0, 0x3ff, 0) & (gtag - gdiff)))) {
 80026e0:	f022 427f 	bic.w	r2, r2, #4278190080	@ 0xff000000
 80026e4:	f422 0270 	bic.w	r2, r2, #15728640	@ 0xf00000
 80026e8:	f422 727f 	bic.w	r2, r2, #1020	@ 0x3fc
 80026ec:	f022 0203 	bic.w	r2, r2, #3
            if (tag == (LFS_MKTAG(LFS_TYPE_CREATE, 0, 0) |
 80026f0:	f042 4280 	orr.w	r2, r2, #1073741824	@ 0x40000000
 80026f4:	f442 1280 	orr.w	r2, r2, #1048576	@ 0x100000
 80026f8:	42a2      	cmp	r2, r4
 80026fa:	d041      	beq.n	8002780 <lfs_dir_getslice+0x180>
    return (int8_t)lfs_tag_chunk(tag);
 80026fc:	b25b      	sxtb	r3, r3
            gdiff += LFS_MKTAG(0, lfs_tag_splice(tag), 0);
 80026fe:	eb09 2983 	add.w	r9, r9, r3, lsl #10
 8002702:	e7af      	b.n	8002664 <lfs_dir_getslice+0x64>
            if (lfs_tag_isdelete(tag)) {
 8002704:	f1b8 3fff 	cmp.w	r8, #4294967295	@ 0xffffffff
 8002708:	d03d      	beq.n	8002786 <lfs_dir_getslice+0x186>
    return tag & 0x000003ff;
 800270a:	f3c4 0709 	ubfx	r7, r4, #0, #10
    return (a < b) ? a : b;
 800270e:	9b12      	ldr	r3, [sp, #72]	@ 0x48
 8002710:	429f      	cmp	r7, r3
 8002712:	bf28      	it	cs
 8002714:	461f      	movcs	r7, r3
                    dir->pair[0], off+sizeof(tag)+goff, gbuffer, diff);
 8002716:	f8db 2000 	ldr.w	r2, [fp]
 800271a:	9b10      	ldr	r3, [sp, #64]	@ 0x40
 800271c:	442b      	add	r3, r5
 800271e:	3304      	adds	r3, #4
            err = lfs_bd_read(lfs,
 8002720:	9703      	str	r7, [sp, #12]
 8002722:	9911      	ldr	r1, [sp, #68]	@ 0x44
 8002724:	9102      	str	r1, [sp, #8]
 8002726:	9301      	str	r3, [sp, #4]
 8002728:	9200      	str	r2, [sp, #0]
 800272a:	463b      	mov	r3, r7
 800272c:	4632      	mov	r2, r6
 800272e:	2100      	movs	r1, #0
 8002730:	4630      	mov	r0, r6
 8002732:	f7ff fe75 	bl	8002420 <lfs_bd_read>
            LFS_ASSERT(err <= 0);
 8002736:	2800      	cmp	r0, #0
 8002738:	dc0a      	bgt.n	8002750 <lfs_dir_getslice+0x150>
            if (err) {
 800273a:	b9d8      	cbnz	r0, 8002774 <lfs_dir_getslice+0x174>
            memset((uint8_t*)gbuffer + diff, 0, gsize - diff);
 800273c:	9b12      	ldr	r3, [sp, #72]	@ 0x48
 800273e:	1bda      	subs	r2, r3, r7
 8002740:	2100      	movs	r1, #0
 8002742:	9b11      	ldr	r3, [sp, #68]	@ 0x44
 8002744:	19d8      	adds	r0, r3, r7
 8002746:	f003 fead 	bl	80064a4 <memset>
            return tag + gdiff;
 800274a:	eb09 0004 	add.w	r0, r9, r4
 800274e:	e011      	b.n	8002774 <lfs_dir_getslice+0x174>
            LFS_ASSERT(err <= 0);
 8002750:	4b0e      	ldr	r3, [pc, #56]	@ (800278c <lfs_dir_getslice+0x18c>)
 8002752:	4a0f      	ldr	r2, [pc, #60]	@ (8002790 <lfs_dir_getslice+0x190>)
 8002754:	f44f 7141 	mov.w	r1, #772	@ 0x304
 8002758:	480e      	ldr	r0, [pc, #56]	@ (8002794 <lfs_dir_getslice+0x194>)
 800275a:	f003 fb9b 	bl	8005e94 <__assert_func>
    lfs_stag_t gdiff = 0;
 800275e:	f04f 0900 	mov.w	r9, #0
 8002762:	e784      	b.n	800266e <lfs_dir_getslice+0x6e>
 8002764:	f04f 0900 	mov.w	r9, #0
 8002768:	e781      	b.n	800266e <lfs_dir_getslice+0x6e>
            gdiff -= LFS_MKTAG(0, 1, 0);
 800276a:	f8df 902c 	ldr.w	r9, [pc, #44]	@ 8002798 <lfs_dir_getslice+0x198>
 800276e:	e77e      	b.n	800266e <lfs_dir_getslice+0x6e>
    return LFS_ERR_NOENT;
 8002770:	f06f 0001 	mvn.w	r0, #1
}
 8002774:	b007      	add	sp, #28
 8002776:	e8bd 8ff0 	ldmia.w	sp!, {r4, r5, r6, r7, r8, r9, sl, fp, pc}
            return LFS_ERR_NOENT;
 800277a:	f06f 0001 	mvn.w	r0, #1
 800277e:	e7f9      	b.n	8002774 <lfs_dir_getslice+0x174>
                return LFS_ERR_NOENT;
 8002780:	f06f 0001 	mvn.w	r0, #1
 8002784:	e7f6      	b.n	8002774 <lfs_dir_getslice+0x174>
                return LFS_ERR_NOENT;
 8002786:	f06f 0001 	mvn.w	r0, #1
 800278a:	e7f3      	b.n	8002774 <lfs_dir_getslice+0x174>
 800278c:	08007110 	.word	0x08007110
 8002790:	08007e74 	.word	0x08007e74
 8002794:	080070fc 	.word	0x080070fc
 8002798:	fffffc00 	.word	0xfffffc00

0800279c <lfs_dir_get>:
        lfs_tag_t gmask, lfs_tag_t gtag, void *buffer) {
 800279c:	b510      	push	{r4, lr}
 800279e:	b084      	sub	sp, #16
    return tag & 0x000003ff;
 80027a0:	f3c3 0409 	ubfx	r4, r3, #0, #10
    return lfs_dir_getslice(lfs, dir,
 80027a4:	9402      	str	r4, [sp, #8]
 80027a6:	9c06      	ldr	r4, [sp, #24]
 80027a8:	9401      	str	r4, [sp, #4]
 80027aa:	2400      	movs	r4, #0
 80027ac:	9400      	str	r4, [sp, #0]
 80027ae:	f7ff ff27 	bl	8002600 <lfs_dir_getslice>
}
 80027b2:	b004      	add	sp, #16
 80027b4:	bd10      	pop	{r4, pc}
	...

080027b8 <lfs_dir_getgstate>:
        lfs_gstate_t *gstate) {
 80027b8:	b510      	push	{r4, lr}
 80027ba:	b086      	sub	sp, #24
 80027bc:	4614      	mov	r4, r2
    lfs_stag_t res = lfs_dir_get(lfs, dir, LFS_MKTAG(0x7ff, 0, 0),
 80027be:	ab03      	add	r3, sp, #12
 80027c0:	9300      	str	r3, [sp, #0]
 80027c2:	4b0d      	ldr	r3, [pc, #52]	@ (80027f8 <lfs_dir_getgstate+0x40>)
 80027c4:	4a0d      	ldr	r2, [pc, #52]	@ (80027fc <lfs_dir_getgstate+0x44>)
 80027c6:	f7ff ffe9 	bl	800279c <lfs_dir_get>
    if (res < 0 && res != LFS_ERR_NOENT) {
 80027ca:	2800      	cmp	r0, #0
 80027cc:	db0e      	blt.n	80027ec <lfs_dir_getgstate+0x34>
    a->tag ^= b->tag;
 80027ce:	6823      	ldr	r3, [r4, #0]
 80027d0:	9a03      	ldr	r2, [sp, #12]
 80027d2:	4053      	eors	r3, r2
 80027d4:	6023      	str	r3, [r4, #0]
    a->pair[0] ^= b->pair[0];
 80027d6:	6863      	ldr	r3, [r4, #4]
 80027d8:	9a04      	ldr	r2, [sp, #16]
 80027da:	4053      	eors	r3, r2
 80027dc:	6063      	str	r3, [r4, #4]
    a->pair[1] ^= b->pair[1];
 80027de:	68a3      	ldr	r3, [r4, #8]
 80027e0:	9a05      	ldr	r2, [sp, #20]
 80027e2:	4053      	eors	r3, r2
 80027e4:	60a3      	str	r3, [r4, #8]
    return 0;
 80027e6:	2000      	movs	r0, #0
}
 80027e8:	b006      	add	sp, #24
 80027ea:	bd10      	pop	{r4, pc}
    if (res < 0 && res != LFS_ERR_NOENT) {
 80027ec:	f110 0f02 	cmn.w	r0, #2
 80027f0:	d1fa      	bne.n	80027e8 <lfs_dir_getgstate+0x30>
    return 0;
 80027f2:	2000      	movs	r0, #0
 80027f4:	e7f8      	b.n	80027e8 <lfs_dir_getgstate+0x30>
 80027f6:	bf00      	nop
 80027f8:	7ff0000c 	.word	0x7ff0000c
 80027fc:	7ff00000 	.word	0x7ff00000

08002800 <lfs_ctz_traverse>:
        int (*cb)(void*, lfs_block_t), void *data) {
 8002800:	e92d 4ff0 	stmdb	sp!, {r4, r5, r6, r7, r8, r9, sl, fp, lr}
 8002804:	b089      	sub	sp, #36	@ 0x24
 8002806:	461c      	mov	r4, r3
 8002808:	9b12      	ldr	r3, [sp, #72]	@ 0x48
 800280a:	9e13      	ldr	r6, [sp, #76]	@ 0x4c
 800280c:	9f14      	ldr	r7, [sp, #80]	@ 0x50
    if (size == 0) {
 800280e:	b923      	cbnz	r3, 800281a <lfs_ctz_traverse+0x1a>
        return 0;
 8002810:	2300      	movs	r3, #0
}
 8002812:	4618      	mov	r0, r3
 8002814:	b009      	add	sp, #36	@ 0x24
 8002816:	e8bd 8ff0 	ldmia.w	sp!, {r4, r5, r6, r7, r8, r9, sl, fp, pc}
 800281a:	4680      	mov	r8, r0
 800281c:	4689      	mov	r9, r1
 800281e:	4692      	mov	sl, r2
    lfs_off_t index = lfs_ctz_index(lfs, &(lfs_off_t){size-1});
 8002820:	3b01      	subs	r3, #1
 8002822:	9307      	str	r3, [sp, #28]
 8002824:	a907      	add	r1, sp, #28
 8002826:	f7ff fddd 	bl	80023e4 <lfs_ctz_index>
 800282a:	4605      	mov	r5, r0
        int err = cb(data, head);
 800282c:	4621      	mov	r1, r4
 800282e:	4638      	mov	r0, r7
 8002830:	47b0      	blx	r6
        if (err) {
 8002832:	4603      	mov	r3, r0
 8002834:	2800      	cmp	r0, #0
 8002836:	d1ec      	bne.n	8002812 <lfs_ctz_traverse+0x12>
        if (index == 0) {
 8002838:	2d00      	cmp	r5, #0
 800283a:	d0ea      	beq.n	8002812 <lfs_ctz_traverse+0x12>
        int count = 2 - (index & 1);
 800283c:	f005 0b01 	and.w	fp, r5, #1
 8002840:	f1cb 0302 	rsb	r3, fp, #2
                pcache, rcache, count*sizeof(head),
 8002844:	009b      	lsls	r3, r3, #2
        err = lfs_bd_read(lfs,
 8002846:	9303      	str	r3, [sp, #12]
 8002848:	aa05      	add	r2, sp, #20
 800284a:	9202      	str	r2, [sp, #8]
 800284c:	2200      	movs	r2, #0
 800284e:	9201      	str	r2, [sp, #4]
 8002850:	9400      	str	r4, [sp, #0]
 8002852:	4652      	mov	r2, sl
 8002854:	4649      	mov	r1, r9
 8002856:	4640      	mov	r0, r8
 8002858:	f7ff fde2 	bl	8002420 <lfs_bd_read>
        if (err) {
 800285c:	4604      	mov	r4, r0
 800285e:	b9c8      	cbnz	r0, 8002894 <lfs_ctz_traverse+0x94>
        for (int i = 0; i < count-1; i++) {
 8002860:	43eb      	mvns	r3, r5
 8002862:	f003 0301 	and.w	r3, r3, #1
 8002866:	42a3      	cmp	r3, r4
 8002868:	dd0b      	ble.n	8002882 <lfs_ctz_traverse+0x82>
            err = cb(data, heads[i]);
 800286a:	ab08      	add	r3, sp, #32
 800286c:	eb03 0384 	add.w	r3, r3, r4, lsl #2
 8002870:	f853 1c0c 	ldr.w	r1, [r3, #-12]
 8002874:	4638      	mov	r0, r7
 8002876:	47b0      	blx	r6
            if (err) {
 8002878:	4603      	mov	r3, r0
 800287a:	2800      	cmp	r0, #0
 800287c:	d1c9      	bne.n	8002812 <lfs_ctz_traverse+0x12>
        for (int i = 0; i < count-1; i++) {
 800287e:	3401      	adds	r4, #1
 8002880:	e7ee      	b.n	8002860 <lfs_ctz_traverse+0x60>
        head = heads[count-1];
 8002882:	aa08      	add	r2, sp, #32
 8002884:	eb02 0383 	add.w	r3, r2, r3, lsl #2
 8002888:	f853 4c0c 	ldr.w	r4, [r3, #-12]
        index -= count;
 800288c:	f1ab 0b02 	sub.w	fp, fp, #2
 8002890:	445d      	add	r5, fp
    while (true) {
 8002892:	e7cb      	b.n	800282c <lfs_ctz_traverse+0x2c>
            return err;
 8002894:	4603      	mov	r3, r0
 8002896:	e7bc      	b.n	8002812 <lfs_ctz_traverse+0x12>

08002898 <lfs_fs_parent_match>:
        lfs_tag_t tag, const void *buffer) {
 8002898:	b530      	push	{r4, r5, lr}
 800289a:	b087      	sub	sp, #28
 800289c:	4604      	mov	r4, r0
    lfs_t *lfs = find->lfs;
 800289e:	6800      	ldr	r0, [r0, #0]
            &lfs->pcache, &lfs->rcache, lfs->cfg->block_size,
 80028a0:	6e83      	ldr	r3, [r0, #104]	@ 0x68
 80028a2:	69db      	ldr	r3, [r3, #28]
            disk->block, disk->off, &child, sizeof(child));
 80028a4:	6811      	ldr	r1, [r2, #0]
 80028a6:	6852      	ldr	r2, [r2, #4]
    int err = lfs_bd_read(lfs,
 80028a8:	2508      	movs	r5, #8
 80028aa:	9503      	str	r5, [sp, #12]
 80028ac:	ad04      	add	r5, sp, #16
 80028ae:	9502      	str	r5, [sp, #8]
 80028b0:	9201      	str	r2, [sp, #4]
 80028b2:	9100      	str	r1, [sp, #0]
 80028b4:	4602      	mov	r2, r0
 80028b6:	f100 0110 	add.w	r1, r0, #16
 80028ba:	f7ff fdb1 	bl	8002420 <lfs_bd_read>
    if (err) {
 80028be:	4603      	mov	r3, r0
 80028c0:	b970      	cbnz	r0, 80028e0 <lfs_fs_parent_match+0x48>
    return !(paira[0] == pairb[0] || paira[1] == pairb[1] ||
 80028c2:	9a04      	ldr	r2, [sp, #16]
 80028c4:	6861      	ldr	r1, [r4, #4]
 80028c6:	4291      	cmp	r1, r2
 80028c8:	d008      	beq.n	80028dc <lfs_fs_parent_match+0x44>
 80028ca:	9d05      	ldr	r5, [sp, #20]
 80028cc:	68a0      	ldr	r0, [r4, #8]
 80028ce:	4285      	cmp	r5, r0
 80028d0:	d004      	beq.n	80028dc <lfs_fs_parent_match+0x44>
 80028d2:	4282      	cmp	r2, r0
 80028d4:	d002      	beq.n	80028dc <lfs_fs_parent_match+0x44>
 80028d6:	42a9      	cmp	r1, r5
 80028d8:	d000      	beq.n	80028dc <lfs_fs_parent_match+0x44>
 80028da:	2301      	movs	r3, #1
    return (lfs_pair_cmp(child, find->pair) == 0) ? LFS_CMP_EQ : LFS_CMP_LT;
 80028dc:	f3c3 0300 	ubfx	r3, r3, #0, #1
}
 80028e0:	4618      	mov	r0, r3
 80028e2:	b007      	add	sp, #28
 80028e4:	bd30      	pop	{r4, r5, pc}
	...

080028e8 <lfs_dir_traverse>:
        int (*cb)(void *data, lfs_tag_t tag, const void *buffer), void *data) {
 80028e8:	e92d 4ff0 	stmdb	sp!, {r4, r5, r6, r7, r8, r9, sl, fp, lr}
 80028ec:	b0af      	sub	sp, #188	@ 0xbc
 80028ee:	9007      	str	r0, [sp, #28]
 80028f0:	460e      	mov	r6, r1
 80028f2:	4617      	mov	r7, r2
 80028f4:	461c      	mov	r4, r3
 80028f6:	f8dd 80e0 	ldr.w	r8, [sp, #224]	@ 0xe0
 80028fa:	f8dd b0e4 	ldr.w	fp, [sp, #228]	@ 0xe4
 80028fe:	f8dd a0e8 	ldr.w	sl, [sp, #232]	@ 0xe8
 8002902:	f8bd 30f0 	ldrh.w	r3, [sp, #240]	@ 0xf0
 8002906:	9304      	str	r3, [sp, #16]
 8002908:	f8bd 30f4 	ldrh.w	r3, [sp, #244]	@ 0xf4
 800290c:	9305      	str	r3, [sp, #20]
 800290e:	f9bd 30f8 	ldrsh.w	r3, [sp, #248]	@ 0xf8
 8002912:	9306      	str	r3, [sp, #24]
    struct lfs_diskoff disk = {0};
 8002914:	2500      	movs	r5, #0
 8002916:	950d      	str	r5, [sp, #52]	@ 0x34
 8002918:	950e      	str	r5, [sp, #56]	@ 0x38
    return ((int32_t)(tag << 22) >> 22) == -1;
 800291a:	f344 0309 	sbfx	r3, r4, #0, #10
    return sizeof(tag) + lfs_tag_size(tag + lfs_tag_isdelete(tag));
 800291e:	f1b3 3fff 	cmp.w	r3, #4294967295	@ 0xffffffff
 8002922:	bf14      	ite	ne
 8002924:	46a1      	movne	r9, r4
 8002926:	f104 0901 	addeq.w	r9, r4, #1
    return tag & 0x000003ff;
 800292a:	f3c9 0909 	ubfx	r9, r9, #0, #10
    return sizeof(tag) + lfs_tag_size(tag + lfs_tag_isdelete(tag));
 800292e:	f109 0904 	add.w	r9, r9, #4
            if (off+lfs_tag_dsize(ptag) < dir->off) {
 8002932:	44b9      	add	r9, r7
 8002934:	68f3      	ldr	r3, [r6, #12]
 8002936:	4599      	cmp	r9, r3
 8002938:	d35e      	bcc.n	80029f8 <lfs_dir_traverse+0x110>
            } else if (attrcount > 0) {
 800293a:	f1bb 0f00 	cmp.w	fp, #0
 800293e:	f340 80fa 	ble.w	8002b36 <lfs_dir_traverse+0x24e>
                tag = attrs[0].tag;
 8002942:	f8d8 3000 	ldr.w	r3, [r8]
 8002946:	930f      	str	r3, [sp, #60]	@ 0x3c
                buffer = attrs[0].buffer;
 8002948:	f8d8 9004 	ldr.w	r9, [r8, #4]
                attrs += 1;
 800294c:	f108 0808 	add.w	r8, r8, #8
                attrcount -= 1;
 8002950:	f10b 3bff 	add.w	fp, fp, #4294967295	@ 0xffffffff
            if ((mask & tmask & tag) != (mask & tmask & ttag)) {
 8002954:	990f      	ldr	r1, [sp, #60]	@ 0x3c
 8002956:	4ba9      	ldr	r3, [pc, #676]	@ (8002bfc <lfs_dir_traverse+0x314>)
 8002958:	ea0a 0303 	and.w	r3, sl, r3
 800295c:	9a3b      	ldr	r2, [sp, #236]	@ 0xec
 800295e:	404a      	eors	r2, r1
 8002960:	401a      	ands	r2, r3
 8002962:	d1da      	bne.n	800291a <lfs_dir_traverse+0x32>
    return (tag & 0x000ffc00) >> 10;
 8002964:	f3ca 2389 	ubfx	r3, sl, #10, #10
            if (lfs_tag_id(tmask) != 0) {
 8002968:	2b00      	cmp	r3, #0
 800296a:	f000 8116 	beq.w	8002b9a <lfs_dir_traverse+0x2b2>
                LFS_ASSERT(sp < LFS_DIR_TRAVERSE_DEPTH);
 800296e:	2d02      	cmp	r5, #2
 8002970:	d862      	bhi.n	8002a38 <lfs_dir_traverse+0x150>
                stack[sp] = (struct lfs_dir_traverse){
 8002972:	ebc5 1305 	rsb	r3, r5, r5, lsl #4
 8002976:	a82e      	add	r0, sp, #184	@ 0xb8
 8002978:	eb00 0383 	add.w	r3, r0, r3, lsl #2
 800297c:	f843 6c78 	str.w	r6, [r3, #-120]
 8002980:	f843 7c74 	str.w	r7, [r3, #-116]
 8002984:	f843 4c70 	str.w	r4, [r3, #-112]
 8002988:	f843 8c6c 	str.w	r8, [r3, #-108]
 800298c:	f843 bc68 	str.w	fp, [r3, #-104]
 8002990:	f843 ac64 	str.w	sl, [r3, #-100]
 8002994:	983b      	ldr	r0, [sp, #236]	@ 0xec
 8002996:	f843 0c60 	str.w	r0, [r3, #-96]
 800299a:	9804      	ldr	r0, [sp, #16]
 800299c:	f823 0c5c 	strh.w	r0, [r3, #-92]
 80029a0:	9805      	ldr	r0, [sp, #20]
 80029a2:	f823 0c5a 	strh.w	r0, [r3, #-90]
 80029a6:	9806      	ldr	r0, [sp, #24]
 80029a8:	f823 0c58 	strh.w	r0, [r3, #-88]
 80029ac:	983f      	ldr	r0, [sp, #252]	@ 0xfc
 80029ae:	f843 0c54 	str.w	r0, [r3, #-84]
 80029b2:	9840      	ldr	r0, [sp, #256]	@ 0x100
 80029b4:	f843 0c50 	str.w	r0, [r3, #-80]
 80029b8:	f843 1c4c 	str.w	r1, [r3, #-76]
 80029bc:	f843 9c48 	str.w	r9, [r3, #-72]
 80029c0:	3b44      	subs	r3, #68	@ 0x44
 80029c2:	a90d      	add	r1, sp, #52	@ 0x34
 80029c4:	c903      	ldmia	r1, {r0, r1}
 80029c6:	e883 0003 	stmia.w	r3, {r0, r1}
                data = &stack[sp-1].tag;
 80029ca:	ebc5 1305 	rsb	r3, r5, r5, lsl #4
 80029ce:	009b      	lsls	r3, r3, #2
 80029d0:	3328      	adds	r3, #40	@ 0x28
 80029d2:	a910      	add	r1, sp, #64	@ 0x40
 80029d4:	440b      	add	r3, r1
 80029d6:	3304      	adds	r3, #4
 80029d8:	9340      	str	r3, [sp, #256]	@ 0x100
                sp += 1;
 80029da:	3501      	adds	r5, #1
                ttag = 0;
 80029dc:	923b      	str	r2, [sp, #236]	@ 0xec
                tmask = 0;
 80029de:	4692      	mov	sl, r2
                cb = lfs_dir_traverse_filter;
 80029e0:	4b87      	ldr	r3, [pc, #540]	@ (8002c00 <lfs_dir_traverse+0x318>)
 80029e2:	933f      	str	r3, [sp, #252]	@ 0xfc
                diff = 0;
 80029e4:	2300      	movs	r3, #0
 80029e6:	9306      	str	r3, [sp, #24]
                end = 0;
 80029e8:	9305      	str	r3, [sp, #20]
                begin = 0;
 80029ea:	9304      	str	r3, [sp, #16]
 80029ec:	e795      	b.n	800291a <lfs_dir_traverse+0x32>
 80029ee:	9d08      	ldr	r5, [sp, #32]
 80029f0:	9e09      	ldr	r6, [sp, #36]	@ 0x24
 80029f2:	9f0a      	ldr	r7, [sp, #40]	@ 0x28
 80029f4:	9c0b      	ldr	r4, [sp, #44]	@ 0x2c
 80029f6:	e790      	b.n	800291a <lfs_dir_traverse+0x32>
                        dir->pair[0], off, &tag, sizeof(tag));
 80029f8:	6832      	ldr	r2, [r6, #0]
                int err = lfs_bd_read(lfs,
 80029fa:	2304      	movs	r3, #4
 80029fc:	9303      	str	r3, [sp, #12]
 80029fe:	a90f      	add	r1, sp, #60	@ 0x3c
 8002a00:	9102      	str	r1, [sp, #8]
 8002a02:	f8cd 9004 	str.w	r9, [sp, #4]
 8002a06:	9200      	str	r2, [sp, #0]
 8002a08:	9a07      	ldr	r2, [sp, #28]
 8002a0a:	2100      	movs	r1, #0
 8002a0c:	4610      	mov	r0, r2
 8002a0e:	f7ff fd07 	bl	8002420 <lfs_bd_read>
                if (err) {
 8002a12:	4603      	mov	r3, r0
 8002a14:	2800      	cmp	r0, #0
 8002a16:	f040 80ec 	bne.w	8002bf2 <lfs_dir_traverse+0x30a>
                tag = (lfs_frombe32(tag) ^ ptag) | 0x80000000;
 8002a1a:	9b0f      	ldr	r3, [sp, #60]	@ 0x3c
    return __builtin_bswap32(a);
 8002a1c:	ba1b      	rev	r3, r3
 8002a1e:	4063      	eors	r3, r4
 8002a20:	f043 4400 	orr.w	r4, r3, #2147483648	@ 0x80000000
 8002a24:	940f      	str	r4, [sp, #60]	@ 0x3c
                disk.block = dir->pair[0];
 8002a26:	6833      	ldr	r3, [r6, #0]
 8002a28:	930d      	str	r3, [sp, #52]	@ 0x34
                disk.off = off+sizeof(lfs_tag_t);
 8002a2a:	f109 0304 	add.w	r3, r9, #4
 8002a2e:	930e      	str	r3, [sp, #56]	@ 0x38
                off += lfs_tag_dsize(ptag);
 8002a30:	464f      	mov	r7, r9
                buffer = &disk;
 8002a32:	f10d 0934 	add.w	r9, sp, #52	@ 0x34
 8002a36:	e78d      	b.n	8002954 <lfs_dir_traverse+0x6c>
                LFS_ASSERT(sp < LFS_DIR_TRAVERSE_DEPTH);
 8002a38:	4b72      	ldr	r3, [pc, #456]	@ (8002c04 <lfs_dir_traverse+0x31c>)
 8002a3a:	4a73      	ldr	r2, [pc, #460]	@ (8002c08 <lfs_dir_traverse+0x320>)
 8002a3c:	f240 31c2 	movw	r1, #962	@ 0x3c2
 8002a40:	4872      	ldr	r0, [pc, #456]	@ (8002c0c <lfs_dir_traverse+0x324>)
 8002a42:	f003 fa27 	bl	8005e94 <__assert_func>
            if (cb == lfs_dir_traverse_filter) {
 8002a46:	4b6e      	ldr	r3, [pc, #440]	@ (8002c00 <lfs_dir_traverse+0x318>)
 8002a48:	9a3f      	ldr	r2, [sp, #252]	@ 0xfc
 8002a4a:	429a      	cmp	r2, r3
 8002a4c:	f43f af65 	beq.w	800291a <lfs_dir_traverse+0x32>
            stack[sp] = (struct lfs_dir_traverse){
 8002a50:	ebc5 1305 	rsb	r3, r5, r5, lsl #4
 8002a54:	aa2e      	add	r2, sp, #184	@ 0xb8
 8002a56:	eb02 0383 	add.w	r3, r2, r3, lsl #2
 8002a5a:	223c      	movs	r2, #60	@ 0x3c
 8002a5c:	2100      	movs	r1, #0
 8002a5e:	9309      	str	r3, [sp, #36]	@ 0x24
 8002a60:	f1a3 0078 	sub.w	r0, r3, #120	@ 0x78
 8002a64:	f003 fd1e 	bl	80064a4 <memset>
 8002a68:	9b09      	ldr	r3, [sp, #36]	@ 0x24
 8002a6a:	f843 6c78 	str.w	r6, [r3, #-120]
 8002a6e:	f843 7c74 	str.w	r7, [r3, #-116]
 8002a72:	f843 4c70 	str.w	r4, [r3, #-112]
 8002a76:	f843 8c6c 	str.w	r8, [r3, #-108]
 8002a7a:	f843 bc68 	str.w	fp, [r3, #-104]
 8002a7e:	f843 ac64 	str.w	sl, [r3, #-100]
 8002a82:	9a3b      	ldr	r2, [sp, #236]	@ 0xec
 8002a84:	f843 2c60 	str.w	r2, [r3, #-96]
 8002a88:	9a04      	ldr	r2, [sp, #16]
 8002a8a:	f823 2c5c 	strh.w	r2, [r3, #-92]
 8002a8e:	9a05      	ldr	r2, [sp, #20]
 8002a90:	f823 2c5a 	strh.w	r2, [r3, #-90]
 8002a94:	9906      	ldr	r1, [sp, #24]
 8002a96:	f823 1c58 	strh.w	r1, [r3, #-88]
 8002a9a:	9a3f      	ldr	r2, [sp, #252]	@ 0xfc
 8002a9c:	f843 2c54 	str.w	r2, [r3, #-84]
 8002aa0:	9a40      	ldr	r2, [sp, #256]	@ 0x100
 8002aa2:	f843 2c50 	str.w	r2, [r3, #-80]
            sp += 1;
 8002aa6:	3501      	adds	r5, #1
            uint16_t fromid = lfs_tag_size(tag);
 8002aa8:	9b08      	ldr	r3, [sp, #32]
 8002aaa:	f3c3 0209 	ubfx	r2, r3, #0, #10
 8002aae:	9204      	str	r2, [sp, #16]
    return (tag & 0x000ffc00) >> 10;
 8002ab0:	f3c3 2389 	ubfx	r3, r3, #10, #10
            end = fromid+1;
 8002ab4:	1c50      	adds	r0, r2, #1
 8002ab6:	9005      	str	r0, [sp, #20]
            diff = toid-fromid+diff;
 8002ab8:	1a9b      	subs	r3, r3, r2
 8002aba:	fa11 f383 	uxtah	r3, r1, r3
 8002abe:	b21b      	sxth	r3, r3
 8002ac0:	9306      	str	r3, [sp, #24]
            dir = buffer;
 8002ac2:	464e      	mov	r6, r9
            ttag = LFS_MKTAG(LFS_TYPE_STRUCT, 0, 0);
 8002ac4:	f04f 5300 	mov.w	r3, #536870912	@ 0x20000000
 8002ac8:	933b      	str	r3, [sp, #236]	@ 0xec
            tmask = LFS_MKTAG(0x600, 0x3ff, 0);
 8002aca:	f8df a144 	ldr.w	sl, [pc, #324]	@ 8002c10 <lfs_dir_traverse+0x328>
            attrcount = 0;
 8002ace:	f04f 0b00 	mov.w	fp, #0
            attrs = NULL;
 8002ad2:	46d8      	mov	r8, fp
            ptag = 0xffffffff;
 8002ad4:	f04f 34ff 	mov.w	r4, #4294967295	@ 0xffffffff
            off = 0;
 8002ad8:	465f      	mov	r7, fp
 8002ada:	e71e      	b.n	800291a <lfs_dir_traverse+0x32>
            for (unsigned i = 0; i < lfs_tag_size(tag); i++) {
 8002adc:	2300      	movs	r3, #0
 8002ade:	9508      	str	r5, [sp, #32]
 8002ae0:	9609      	str	r6, [sp, #36]	@ 0x24
 8002ae2:	970a      	str	r7, [sp, #40]	@ 0x28
 8002ae4:	940b      	str	r4, [sp, #44]	@ 0x2c
 8002ae6:	461c      	mov	r4, r3
 8002ae8:	9d06      	ldr	r5, [sp, #24]
 8002aea:	9e3f      	ldr	r6, [sp, #252]	@ 0xfc
 8002aec:	9f40      	ldr	r7, [sp, #256]	@ 0x100
 8002aee:	9b0f      	ldr	r3, [sp, #60]	@ 0x3c
    return tag & 0x000003ff;
 8002af0:	f3c3 0209 	ubfx	r2, r3, #0, #10
            for (unsigned i = 0; i < lfs_tag_size(tag); i++) {
 8002af4:	4294      	cmp	r4, r2
 8002af6:	d219      	bcs.n	8002b2c <lfs_dir_traverse+0x244>
                res = cb(data, LFS_MKTAG(LFS_TYPE_USERATTR + a[i].type,
 8002af8:	eb04 0144 	add.w	r1, r4, r4, lsl #1
 8002afc:	eb09 0281 	add.w	r2, r9, r1, lsl #2
 8002b00:	f819 1021 	ldrb.w	r1, [r9, r1, lsl #2]
 8002b04:	f501 7140 	add.w	r1, r1, #768	@ 0x300
    return (tag & 0x000ffc00) >> 10;
 8002b08:	f3c3 2389 	ubfx	r3, r3, #10, #10
                res = cb(data, LFS_MKTAG(LFS_TYPE_USERATTR + a[i].type,
 8002b0c:	442b      	add	r3, r5
 8002b0e:	029b      	lsls	r3, r3, #10
 8002b10:	ea43 5301 	orr.w	r3, r3, r1, lsl #20
 8002b14:	6891      	ldr	r1, [r2, #8]
 8002b16:	6852      	ldr	r2, [r2, #4]
 8002b18:	4319      	orrs	r1, r3
 8002b1a:	4638      	mov	r0, r7
 8002b1c:	47b0      	blx	r6
                if (res < 0) {
 8002b1e:	2800      	cmp	r0, #0
 8002b20:	db66      	blt.n	8002bf0 <lfs_dir_traverse+0x308>
                if (res) {
 8002b22:	2800      	cmp	r0, #0
 8002b24:	f47f af63 	bne.w	80029ee <lfs_dir_traverse+0x106>
            for (unsigned i = 0; i < lfs_tag_size(tag); i++) {
 8002b28:	3401      	adds	r4, #1
 8002b2a:	e7e0      	b.n	8002aee <lfs_dir_traverse+0x206>
 8002b2c:	9d08      	ldr	r5, [sp, #32]
 8002b2e:	9e09      	ldr	r6, [sp, #36]	@ 0x24
 8002b30:	9f0a      	ldr	r7, [sp, #40]	@ 0x28
 8002b32:	9c0b      	ldr	r4, [sp, #44]	@ 0x2c
 8002b34:	e6f1      	b.n	800291a <lfs_dir_traverse+0x32>
                res = 0;
 8002b36:	2300      	movs	r3, #0
    if (sp > 0) {
 8002b38:	2d00      	cmp	r5, #0
 8002b3a:	d05a      	beq.n	8002bf2 <lfs_dir_traverse+0x30a>
        dir         = stack[sp-1].dir;
 8002b3c:	3d01      	subs	r5, #1
 8002b3e:	ebc5 1305 	rsb	r3, r5, r5, lsl #4
 8002b42:	aa2e      	add	r2, sp, #184	@ 0xb8
 8002b44:	eb02 0383 	add.w	r3, r2, r3, lsl #2
 8002b48:	f853 6c78 	ldr.w	r6, [r3, #-120]
        off         = stack[sp-1].off;
 8002b4c:	f853 7c74 	ldr.w	r7, [r3, #-116]
        ptag        = stack[sp-1].ptag;
 8002b50:	f853 4c70 	ldr.w	r4, [r3, #-112]
        attrs       = stack[sp-1].attrs;
 8002b54:	f853 8c6c 	ldr.w	r8, [r3, #-108]
        attrcount   = stack[sp-1].attrcount;
 8002b58:	f853 bc68 	ldr.w	fp, [r3, #-104]
        tmask       = stack[sp-1].tmask;
 8002b5c:	f853 ac64 	ldr.w	sl, [r3, #-100]
        ttag        = stack[sp-1].ttag;
 8002b60:	f853 2c60 	ldr.w	r2, [r3, #-96]
 8002b64:	923b      	str	r2, [sp, #236]	@ 0xec
        begin       = stack[sp-1].begin;
 8002b66:	f833 2c5c 	ldrh.w	r2, [r3, #-92]
 8002b6a:	9204      	str	r2, [sp, #16]
        end         = stack[sp-1].end;
 8002b6c:	f833 2c5a 	ldrh.w	r2, [r3, #-90]
 8002b70:	9205      	str	r2, [sp, #20]
        diff        = stack[sp-1].diff;
 8002b72:	f933 2c58 	ldrsh.w	r2, [r3, #-88]
 8002b76:	9206      	str	r2, [sp, #24]
        cb          = stack[sp-1].cb;
 8002b78:	f853 2c54 	ldr.w	r2, [r3, #-84]
 8002b7c:	923f      	str	r2, [sp, #252]	@ 0xfc
        data        = stack[sp-1].data;
 8002b7e:	f853 2c50 	ldr.w	r2, [r3, #-80]
 8002b82:	9240      	str	r2, [sp, #256]	@ 0x100
        tag         = stack[sp-1].tag;
 8002b84:	f853 2c4c 	ldr.w	r2, [r3, #-76]
 8002b88:	920f      	str	r2, [sp, #60]	@ 0x3c
        buffer      = stack[sp-1].buffer;
 8002b8a:	f853 9c48 	ldr.w	r9, [r3, #-72]
        disk        = stack[sp-1].disk;
 8002b8e:	aa0d      	add	r2, sp, #52	@ 0x34
 8002b90:	3b44      	subs	r3, #68	@ 0x44
 8002b92:	e893 0003 	ldmia.w	r3, {r0, r1}
 8002b96:	e882 0003 	stmia.w	r2, {r0, r1}
    return (tag & 0x000ffc00) >> 10;
 8002b9a:	f3ca 2389 	ubfx	r3, sl, #10, #10
        if (lfs_tag_id(tmask) != 0 &&
 8002b9e:	b153      	cbz	r3, 8002bb6 <lfs_dir_traverse+0x2ce>
    return (tag & 0x000ffc00) >> 10;
 8002ba0:	9b0f      	ldr	r3, [sp, #60]	@ 0x3c
 8002ba2:	f3c3 2389 	ubfx	r3, r3, #10, #10
        if (lfs_tag_id(tmask) != 0 &&
 8002ba6:	9a04      	ldr	r2, [sp, #16]
 8002ba8:	429a      	cmp	r2, r3
 8002baa:	f63f aeb6 	bhi.w	800291a <lfs_dir_traverse+0x32>
                !(lfs_tag_id(tag) >= begin && lfs_tag_id(tag) < end)) {
 8002bae:	9a05      	ldr	r2, [sp, #20]
 8002bb0:	429a      	cmp	r2, r3
 8002bb2:	f67f aeb2 	bls.w	800291a <lfs_dir_traverse+0x32>
        if (lfs_tag_type3(tag) == LFS_FROM_NOOP) {
 8002bb6:	9b0f      	ldr	r3, [sp, #60]	@ 0x3c
 8002bb8:	9308      	str	r3, [sp, #32]
    return (tag & 0x7ff00000) >> 20;
 8002bba:	f3c3 530a 	ubfx	r3, r3, #20, #11
        if (lfs_tag_type3(tag) == LFS_FROM_NOOP) {
 8002bbe:	2b00      	cmp	r3, #0
 8002bc0:	f43f aeab 	beq.w	800291a <lfs_dir_traverse+0x32>
        } else if (lfs_tag_type3(tag) == LFS_FROM_MOVE) {
 8002bc4:	f240 1201 	movw	r2, #257	@ 0x101
 8002bc8:	4293      	cmp	r3, r2
 8002bca:	f43f af3c 	beq.w	8002a46 <lfs_dir_traverse+0x15e>
        } else if (lfs_tag_type3(tag) == LFS_FROM_USERATTRS) {
 8002bce:	f5b3 7f81 	cmp.w	r3, #258	@ 0x102
 8002bd2:	d083      	beq.n	8002adc <lfs_dir_traverse+0x1f4>
            res = cb(data, tag + LFS_MKTAG(0, diff, 0), buffer);
 8002bd4:	464a      	mov	r2, r9
 8002bd6:	9b08      	ldr	r3, [sp, #32]
 8002bd8:	9906      	ldr	r1, [sp, #24]
 8002bda:	eb03 2181 	add.w	r1, r3, r1, lsl #10
 8002bde:	9840      	ldr	r0, [sp, #256]	@ 0x100
 8002be0:	9b3f      	ldr	r3, [sp, #252]	@ 0xfc
 8002be2:	4798      	blx	r3
            if (res < 0) {
 8002be4:	1e03      	subs	r3, r0, #0
 8002be6:	db04      	blt.n	8002bf2 <lfs_dir_traverse+0x30a>
            if (res) {
 8002be8:	2b00      	cmp	r3, #0
 8002bea:	f43f ae96 	beq.w	800291a <lfs_dir_traverse+0x32>
 8002bee:	e7a3      	b.n	8002b38 <lfs_dir_traverse+0x250>
 8002bf0:	4603      	mov	r3, r0
}
 8002bf2:	4618      	mov	r0, r3
 8002bf4:	b02f      	add	sp, #188	@ 0xbc
 8002bf6:	e8bd 8ff0 	ldmia.w	sp!, {r4, r5, r6, r7, r8, r9, sl, fp, pc}
 8002bfa:	bf00      	nop
 8002bfc:	7ff00000 	.word	0x7ff00000
 8002c00:	080021c1 	.word	0x080021c1
 8002c04:	080071e8 	.word	0x080071e8
 8002c08:	08007dcc 	.word	0x08007dcc
 8002c0c:	080070fc 	.word	0x080070fc
 8002c10:	600ffc00 	.word	0x600ffc00

08002c14 <lfs_dir_getread>:
        lfs_off_t off, void *buffer, lfs_size_t size) {
 8002c14:	e92d 4ff0 	stmdb	sp!, {r4, r5, r6, r7, r8, r9, sl, fp, lr}
 8002c18:	b087      	sub	sp, #28
 8002c1a:	4606      	mov	r6, r0
 8002c1c:	468a      	mov	sl, r1
 8002c1e:	4617      	mov	r7, r2
 8002c20:	461c      	mov	r4, r3
 8002c22:	f8dd b040 	ldr.w	fp, [sp, #64]	@ 0x40
 8002c26:	f8dd 9048 	ldr.w	r9, [sp, #72]	@ 0x48
 8002c2a:	9d13      	ldr	r5, [sp, #76]	@ 0x4c
 8002c2c:	f8dd 8054 	ldr.w	r8, [sp, #84]	@ 0x54
    if (off+size > lfs->cfg->block_size) {
 8002c30:	eb05 0208 	add.w	r2, r5, r8
 8002c34:	6e83      	ldr	r3, [r0, #104]	@ 0x68
 8002c36:	69db      	ldr	r3, [r3, #28]
 8002c38:	429a      	cmp	r2, r3
 8002c3a:	d94b      	bls.n	8002cd4 <lfs_dir_getread+0xc0>
        return LFS_ERR_CORRUPT;
 8002c3c:	f06f 0053 	mvn.w	r0, #83	@ 0x53
 8002c40:	e074      	b.n	8002d2c <lfs_dir_getread+0x118>
                off < pcache->off + pcache->size) {
 8002c42:	687b      	ldr	r3, [r7, #4]
 8002c44:	68ba      	ldr	r2, [r7, #8]
 8002c46:	1899      	adds	r1, r3, r2
        if (pcache && pcache->block == LFS_BLOCK_INLINE &&
 8002c48:	42a9      	cmp	r1, r5
 8002c4a:	d91c      	bls.n	8002c86 <lfs_dir_getread+0x72>
            if (off >= pcache->off) {
 8002c4c:	42ab      	cmp	r3, r5
 8002c4e:	d904      	bls.n	8002c5a <lfs_dir_getread+0x46>
            diff = lfs_min(diff, pcache->off-off);
 8002c50:	1b5b      	subs	r3, r3, r5
    return (a < b) ? a : b;
 8002c52:	4543      	cmp	r3, r8
 8002c54:	bf28      	it	cs
 8002c56:	4643      	movcs	r3, r8
 8002c58:	e046      	b.n	8002ce8 <lfs_dir_getread+0xd4>
                diff = lfs_min(diff, pcache->size - (off-pcache->off));
 8002c5a:	1b59      	subs	r1, r3, r5
 8002c5c:	440a      	add	r2, r1
 8002c5e:	4542      	cmp	r2, r8
 8002c60:	bf28      	it	cs
 8002c62:	4642      	movcs	r2, r8
                memcpy(data, &pcache->buffer[off-pcache->off], diff);
 8002c64:	68f9      	ldr	r1, [r7, #12]
 8002c66:	1aeb      	subs	r3, r5, r3
 8002c68:	9205      	str	r2, [sp, #20]
 8002c6a:	4419      	add	r1, r3
 8002c6c:	9814      	ldr	r0, [sp, #80]	@ 0x50
 8002c6e:	f003 fca4 	bl	80065ba <memcpy>
                data += diff;
 8002c72:	9914      	ldr	r1, [sp, #80]	@ 0x50
 8002c74:	9b05      	ldr	r3, [sp, #20]
 8002c76:	4419      	add	r1, r3
 8002c78:	9114      	str	r1, [sp, #80]	@ 0x50
                off += diff;
 8002c7a:	441d      	add	r5, r3
                size -= diff;
 8002c7c:	eba8 0803 	sub.w	r8, r8, r3
                continue;
 8002c80:	e028      	b.n	8002cd4 <lfs_dir_getread+0xc0>
        lfs_size_t diff = size;
 8002c82:	4643      	mov	r3, r8
 8002c84:	e030      	b.n	8002ce8 <lfs_dir_getread+0xd4>
 8002c86:	4643      	mov	r3, r8
 8002c88:	e02e      	b.n	8002ce8 <lfs_dir_getread+0xd4>
        rcache->block = LFS_BLOCK_INLINE;
 8002c8a:	f06f 0301 	mvn.w	r3, #1
 8002c8e:	6023      	str	r3, [r4, #0]
        rcache->off = lfs_aligndown(off, lfs->cfg->read_size);
 8002c90:	6eb3      	ldr	r3, [r6, #104]	@ 0x68
 8002c92:	695b      	ldr	r3, [r3, #20]
    return a - (a % alignment);
 8002c94:	fbb5 f2f3 	udiv	r2, r5, r3
 8002c98:	fb03 f202 	mul.w	r2, r3, r2
 8002c9c:	6062      	str	r2, [r4, #4]
        rcache->size = lfs_min(lfs_alignup(off+hint, lfs->cfg->read_size),
 8002c9e:	eb05 030b 	add.w	r3, r5, fp
 8002ca2:	6eb1      	ldr	r1, [r6, #104]	@ 0x68
 8002ca4:	6948      	ldr	r0, [r1, #20]
    return lfs_aligndown(a + alignment-1, alignment);
 8002ca6:	4403      	add	r3, r0
 8002ca8:	3b01      	subs	r3, #1
    return a - (a % alignment);
 8002caa:	fbb3 f3f0 	udiv	r3, r3, r0
 8002cae:	fb00 f303 	mul.w	r3, r0, r3
                lfs->cfg->cache_size);
 8002cb2:	6a89      	ldr	r1, [r1, #40]	@ 0x28
    return (a < b) ? a : b;
 8002cb4:	428b      	cmp	r3, r1
 8002cb6:	bf28      	it	cs
 8002cb8:	460b      	movcs	r3, r1
        rcache->size = lfs_min(lfs_alignup(off+hint, lfs->cfg->read_size),
 8002cba:	60a3      	str	r3, [r4, #8]
                rcache->off, rcache->buffer, rcache->size);
 8002cbc:	68e1      	ldr	r1, [r4, #12]
        int err = lfs_dir_getslice(lfs, dir, gmask, gtag,
 8002cbe:	9302      	str	r3, [sp, #8]
 8002cc0:	9101      	str	r1, [sp, #4]
 8002cc2:	9200      	str	r2, [sp, #0]
 8002cc4:	464b      	mov	r3, r9
 8002cc6:	9a11      	ldr	r2, [sp, #68]	@ 0x44
 8002cc8:	4651      	mov	r1, sl
 8002cca:	4630      	mov	r0, r6
 8002ccc:	f7ff fc98 	bl	8002600 <lfs_dir_getslice>
        if (err < 0) {
 8002cd0:	2800      	cmp	r0, #0
 8002cd2:	db2b      	blt.n	8002d2c <lfs_dir_getread+0x118>
    while (size > 0) {
 8002cd4:	f1b8 0f00 	cmp.w	r8, #0
 8002cd8:	d027      	beq.n	8002d2a <lfs_dir_getread+0x116>
        if (pcache && pcache->block == LFS_BLOCK_INLINE &&
 8002cda:	2f00      	cmp	r7, #0
 8002cdc:	d0d1      	beq.n	8002c82 <lfs_dir_getread+0x6e>
 8002cde:	683b      	ldr	r3, [r7, #0]
 8002ce0:	f113 0f02 	cmn.w	r3, #2
 8002ce4:	d0ad      	beq.n	8002c42 <lfs_dir_getread+0x2e>
        lfs_size_t diff = size;
 8002ce6:	4643      	mov	r3, r8
        if (rcache->block == LFS_BLOCK_INLINE &&
 8002ce8:	6822      	ldr	r2, [r4, #0]
 8002cea:	f112 0f02 	cmn.w	r2, #2
 8002cee:	d1cc      	bne.n	8002c8a <lfs_dir_getread+0x76>
                off < rcache->off + rcache->size) {
 8002cf0:	6862      	ldr	r2, [r4, #4]
 8002cf2:	68a1      	ldr	r1, [r4, #8]
 8002cf4:	1850      	adds	r0, r2, r1
        if (rcache->block == LFS_BLOCK_INLINE &&
 8002cf6:	42a8      	cmp	r0, r5
 8002cf8:	d9c7      	bls.n	8002c8a <lfs_dir_getread+0x76>
            if (off >= rcache->off) {
 8002cfa:	42aa      	cmp	r2, r5
 8002cfc:	d8c5      	bhi.n	8002c8a <lfs_dir_getread+0x76>
                diff = lfs_min(diff, rcache->size - (off-rcache->off));
 8002cfe:	1b50      	subs	r0, r2, r5
 8002d00:	4401      	add	r1, r0
 8002d02:	4299      	cmp	r1, r3
 8002d04:	bf28      	it	cs
 8002d06:	4619      	movcs	r1, r3
 8002d08:	4608      	mov	r0, r1
                memcpy(data, &rcache->buffer[off-rcache->off], diff);
 8002d0a:	68e3      	ldr	r3, [r4, #12]
 8002d0c:	1aa9      	subs	r1, r5, r2
 8002d0e:	9005      	str	r0, [sp, #20]
 8002d10:	4602      	mov	r2, r0
 8002d12:	4419      	add	r1, r3
 8002d14:	9814      	ldr	r0, [sp, #80]	@ 0x50
 8002d16:	f003 fc50 	bl	80065ba <memcpy>
                data += diff;
 8002d1a:	9914      	ldr	r1, [sp, #80]	@ 0x50
 8002d1c:	9b05      	ldr	r3, [sp, #20]
 8002d1e:	4419      	add	r1, r3
 8002d20:	9114      	str	r1, [sp, #80]	@ 0x50
                off += diff;
 8002d22:	441d      	add	r5, r3
                size -= diff;
 8002d24:	eba8 0803 	sub.w	r8, r8, r3
                continue;
 8002d28:	e7d4      	b.n	8002cd4 <lfs_dir_getread+0xc0>
    return 0;
 8002d2a:	2000      	movs	r0, #0
}
 8002d2c:	b007      	add	sp, #28
 8002d2e:	e8bd 8ff0 	ldmia.w	sp!, {r4, r5, r6, r7, r8, r9, sl, fp, pc}

08002d32 <lfs_bd_cmp>:
        const void *buffer, lfs_size_t size) {
 8002d32:	e92d 4ff0 	stmdb	sp!, {r4, r5, r6, r7, r8, r9, sl, fp, lr}
 8002d36:	b089      	sub	sp, #36	@ 0x24
 8002d38:	4682      	mov	sl, r0
 8002d3a:	4689      	mov	r9, r1
 8002d3c:	9205      	str	r2, [sp, #20]
 8002d3e:	461f      	mov	r7, r3
 8002d40:	f8dd 804c 	ldr.w	r8, [sp, #76]	@ 0x4c
 8002d44:	f8dd b050 	ldr.w	fp, [sp, #80]	@ 0x50
 8002d48:	9e15      	ldr	r6, [sp, #84]	@ 0x54
    for (lfs_off_t i = 0; i < size; i += diff) {
 8002d4a:	2400      	movs	r4, #0
 8002d4c:	e002      	b.n	8002d54 <lfs_bd_cmp+0x22>
            return res < 0 ? LFS_CMP_LT : LFS_CMP_GT;
 8002d4e:	2301      	movs	r3, #1
 8002d50:	e023      	b.n	8002d9a <lfs_bd_cmp+0x68>
    for (lfs_off_t i = 0; i < size; i += diff) {
 8002d52:	442c      	add	r4, r5
 8002d54:	42b4      	cmp	r4, r6
 8002d56:	d21f      	bcs.n	8002d98 <lfs_bd_cmp+0x66>
        diff = lfs_min(size-i, sizeof(dat));
 8002d58:	1b35      	subs	r5, r6, r4
 8002d5a:	2d08      	cmp	r5, #8
 8002d5c:	bf28      	it	cs
 8002d5e:	2508      	movcs	r5, #8
        int err = lfs_bd_read(lfs,
 8002d60:	9503      	str	r5, [sp, #12]
 8002d62:	ab06      	add	r3, sp, #24
 8002d64:	9302      	str	r3, [sp, #8]
 8002d66:	eb04 0308 	add.w	r3, r4, r8
 8002d6a:	9301      	str	r3, [sp, #4]
 8002d6c:	9b12      	ldr	r3, [sp, #72]	@ 0x48
 8002d6e:	9300      	str	r3, [sp, #0]
 8002d70:	1b3b      	subs	r3, r7, r4
 8002d72:	9a05      	ldr	r2, [sp, #20]
 8002d74:	4649      	mov	r1, r9
 8002d76:	4650      	mov	r0, sl
 8002d78:	f7ff fb52 	bl	8002420 <lfs_bd_read>
        if (err) {
 8002d7c:	4603      	mov	r3, r0
 8002d7e:	b960      	cbnz	r0, 8002d9a <lfs_bd_cmp+0x68>
        int res = memcmp(dat, data + i, diff);
 8002d80:	462a      	mov	r2, r5
 8002d82:	eb0b 0104 	add.w	r1, fp, r4
 8002d86:	a806      	add	r0, sp, #24
 8002d88:	f003 fb7c 	bl	8006484 <memcmp>
        if (res) {
 8002d8c:	2800      	cmp	r0, #0
 8002d8e:	d0e0      	beq.n	8002d52 <lfs_bd_cmp+0x20>
            return res < 0 ? LFS_CMP_LT : LFS_CMP_GT;
 8002d90:	2800      	cmp	r0, #0
 8002d92:	dbdc      	blt.n	8002d4e <lfs_bd_cmp+0x1c>
 8002d94:	2302      	movs	r3, #2
 8002d96:	e000      	b.n	8002d9a <lfs_bd_cmp+0x68>
    return LFS_CMP_EQ;
 8002d98:	2300      	movs	r3, #0
}
 8002d9a:	4618      	mov	r0, r3
 8002d9c:	b009      	add	sp, #36	@ 0x24
 8002d9e:	e8bd 8ff0 	ldmia.w	sp!, {r4, r5, r6, r7, r8, r9, sl, fp, pc}
	...

08002da4 <lfs_bd_flush>:
        lfs_cache_t *pcache, lfs_cache_t *rcache, bool validate) {
 8002da4:	e92d 43f0 	stmdb	sp!, {r4, r5, r6, r7, r8, r9, lr}
 8002da8:	b085      	sub	sp, #20
 8002daa:	460c      	mov	r4, r1
    if (pcache->block != LFS_BLOCK_NULL && pcache->block != LFS_BLOCK_INLINE) {
 8002dac:	6809      	ldr	r1, [r1, #0]
 8002dae:	f111 0f03 	cmn.w	r1, #3
 8002db2:	d83e      	bhi.n	8002e32 <lfs_bd_flush+0x8e>
 8002db4:	4607      	mov	r7, r0
 8002db6:	4691      	mov	r9, r2
 8002db8:	4698      	mov	r8, r3
        LFS_ASSERT(pcache->block < lfs->block_count);
 8002dba:	6ec3      	ldr	r3, [r0, #108]	@ 0x6c
 8002dbc:	4299      	cmp	r1, r3
 8002dbe:	d22c      	bcs.n	8002e1a <lfs_bd_flush+0x76>
        lfs_size_t diff = lfs_alignup(pcache->size, lfs->cfg->prog_size);
 8002dc0:	68a5      	ldr	r5, [r4, #8]
 8002dc2:	6e80      	ldr	r0, [r0, #104]	@ 0x68
 8002dc4:	6983      	ldr	r3, [r0, #24]
    return lfs_aligndown(a + alignment-1, alignment);
 8002dc6:	441d      	add	r5, r3
 8002dc8:	3d01      	subs	r5, #1
    return a - (a % alignment);
 8002dca:	fbb5 f5f3 	udiv	r5, r5, r3
 8002dce:	fb03 f505 	mul.w	r5, r3, r5
        int err = lfs->cfg->prog(lfs->cfg, pcache->block,
 8002dd2:	6886      	ldr	r6, [r0, #8]
 8002dd4:	9500      	str	r5, [sp, #0]
 8002dd6:	68e3      	ldr	r3, [r4, #12]
 8002dd8:	6862      	ldr	r2, [r4, #4]
 8002dda:	47b0      	blx	r6
        LFS_ASSERT(err <= 0);
 8002ddc:	1e06      	subs	r6, r0, #0
 8002dde:	dc22      	bgt.n	8002e26 <lfs_bd_flush+0x82>
        if (err) {
 8002de0:	bb46      	cbnz	r6, 8002e34 <lfs_bd_flush+0x90>
        if (validate) {
 8002de2:	f1b8 0f00 	cmp.w	r8, #0
 8002de6:	d013      	beq.n	8002e10 <lfs_bd_flush+0x6c>
    rcache->block = LFS_BLOCK_NULL;
 8002de8:	f04f 33ff 	mov.w	r3, #4294967295	@ 0xffffffff
 8002dec:	f8c9 3000 	str.w	r3, [r9]
                    pcache->block, pcache->off, pcache->buffer, diff);
 8002df0:	68e3      	ldr	r3, [r4, #12]
            int res = lfs_bd_cmp(lfs,
 8002df2:	9503      	str	r5, [sp, #12]
 8002df4:	9302      	str	r3, [sp, #8]
 8002df6:	6863      	ldr	r3, [r4, #4]
 8002df8:	9301      	str	r3, [sp, #4]
 8002dfa:	6823      	ldr	r3, [r4, #0]
 8002dfc:	9300      	str	r3, [sp, #0]
 8002dfe:	462b      	mov	r3, r5
 8002e00:	464a      	mov	r2, r9
 8002e02:	2100      	movs	r1, #0
 8002e04:	4638      	mov	r0, r7
 8002e06:	f7ff ff94 	bl	8002d32 <lfs_bd_cmp>
            if (res < 0) {
 8002e0a:	2800      	cmp	r0, #0
 8002e0c:	db16      	blt.n	8002e3c <lfs_bd_flush+0x98>
            if (res != LFS_CMP_EQ) {
 8002e0e:	b9b8      	cbnz	r0, 8002e40 <lfs_bd_flush+0x9c>
        lfs_cache_zero(lfs, pcache);
 8002e10:	4621      	mov	r1, r4
 8002e12:	4638      	mov	r0, r7
 8002e14:	f7ff fab0 	bl	8002378 <lfs_cache_zero>
 8002e18:	e00c      	b.n	8002e34 <lfs_bd_flush+0x90>
        LFS_ASSERT(pcache->block < lfs->block_count);
 8002e1a:	4b0b      	ldr	r3, [pc, #44]	@ (8002e48 <lfs_bd_flush+0xa4>)
 8002e1c:	4a0b      	ldr	r2, [pc, #44]	@ (8002e4c <lfs_bd_flush+0xa8>)
 8002e1e:	21b4      	movs	r1, #180	@ 0xb4
 8002e20:	480b      	ldr	r0, [pc, #44]	@ (8002e50 <lfs_bd_flush+0xac>)
 8002e22:	f003 f837 	bl	8005e94 <__assert_func>
        LFS_ASSERT(err <= 0);
 8002e26:	4b0b      	ldr	r3, [pc, #44]	@ (8002e54 <lfs_bd_flush+0xb0>)
 8002e28:	4a08      	ldr	r2, [pc, #32]	@ (8002e4c <lfs_bd_flush+0xa8>)
 8002e2a:	21b8      	movs	r1, #184	@ 0xb8
 8002e2c:	4808      	ldr	r0, [pc, #32]	@ (8002e50 <lfs_bd_flush+0xac>)
 8002e2e:	f003 f831 	bl	8005e94 <__assert_func>
    return 0;
 8002e32:	2600      	movs	r6, #0
}
 8002e34:	4630      	mov	r0, r6
 8002e36:	b005      	add	sp, #20
 8002e38:	e8bd 83f0 	ldmia.w	sp!, {r4, r5, r6, r7, r8, r9, pc}
                return res;
 8002e3c:	4606      	mov	r6, r0
 8002e3e:	e7f9      	b.n	8002e34 <lfs_bd_flush+0x90>
                return LFS_ERR_CORRUPT;
 8002e40:	f06f 0653 	mvn.w	r6, #83	@ 0x53
 8002e44:	e7f6      	b.n	8002e34 <lfs_bd_flush+0x90>
 8002e46:	bf00      	nop
 8002e48:	080071f0 	.word	0x080071f0
 8002e4c:	08007e24 	.word	0x08007e24
 8002e50:	080070fc 	.word	0x080070fc
 8002e54:	08007110 	.word	0x08007110

08002e58 <lfs_bd_prog>:
        const void *buffer, lfs_size_t size) {
 8002e58:	e92d 4ff0 	stmdb	sp!, {r4, r5, r6, r7, r8, r9, sl, fp, lr}
 8002e5c:	b083      	sub	sp, #12
 8002e5e:	4607      	mov	r7, r0
 8002e60:	460c      	mov	r4, r1
 8002e62:	9201      	str	r2, [sp, #4]
 8002e64:	469b      	mov	fp, r3
 8002e66:	9d0c      	ldr	r5, [sp, #48]	@ 0x30
 8002e68:	9e0d      	ldr	r6, [sp, #52]	@ 0x34
 8002e6a:	f8dd a038 	ldr.w	sl, [sp, #56]	@ 0x38
 8002e6e:	f8dd 803c 	ldr.w	r8, [sp, #60]	@ 0x3c
    LFS_ASSERT(block == LFS_BLOCK_INLINE || block < lfs->block_count);
 8002e72:	f115 0f02 	cmn.w	r5, #2
 8002e76:	d002      	beq.n	8002e7e <lfs_bd_prog+0x26>
 8002e78:	6ec3      	ldr	r3, [r0, #108]	@ 0x6c
 8002e7a:	42ab      	cmp	r3, r5
 8002e7c:	d90b      	bls.n	8002e96 <lfs_bd_prog+0x3e>
    LFS_ASSERT(off + size <= lfs->cfg->block_size);
 8002e7e:	eb06 0308 	add.w	r3, r6, r8
 8002e82:	6eba      	ldr	r2, [r7, #104]	@ 0x68
 8002e84:	69d2      	ldr	r2, [r2, #28]
 8002e86:	4293      	cmp	r3, r2
 8002e88:	d918      	bls.n	8002ebc <lfs_bd_prog+0x64>
 8002e8a:	4b2b      	ldr	r3, [pc, #172]	@ (8002f38 <lfs_bd_prog+0xe0>)
 8002e8c:	4a2b      	ldr	r2, [pc, #172]	@ (8002f3c <lfs_bd_prog+0xe4>)
 8002e8e:	21ea      	movs	r1, #234	@ 0xea
 8002e90:	482b      	ldr	r0, [pc, #172]	@ (8002f40 <lfs_bd_prog+0xe8>)
 8002e92:	f002 ffff 	bl	8005e94 <__assert_func>
    LFS_ASSERT(block == LFS_BLOCK_INLINE || block < lfs->block_count);
 8002e96:	4b2b      	ldr	r3, [pc, #172]	@ (8002f44 <lfs_bd_prog+0xec>)
 8002e98:	4a28      	ldr	r2, [pc, #160]	@ (8002f3c <lfs_bd_prog+0xe4>)
 8002e9a:	21e9      	movs	r1, #233	@ 0xe9
 8002e9c:	4828      	ldr	r0, [pc, #160]	@ (8002f40 <lfs_bd_prog+0xe8>)
 8002e9e:	f002 fff9 	bl	8005e94 <__assert_func>
        LFS_ASSERT(pcache->block == LFS_BLOCK_NULL);
 8002ea2:	f1b3 3fff 	cmp.w	r3, #4294967295	@ 0xffffffff
 8002ea6:	d13b      	bne.n	8002f20 <lfs_bd_prog+0xc8>
        pcache->block = block;
 8002ea8:	6025      	str	r5, [r4, #0]
        pcache->off = lfs_aligndown(off, lfs->cfg->prog_size);
 8002eaa:	6ebb      	ldr	r3, [r7, #104]	@ 0x68
 8002eac:	699a      	ldr	r2, [r3, #24]
 8002eae:	fbb6 f3f2 	udiv	r3, r6, r2
 8002eb2:	fb02 f303 	mul.w	r3, r2, r3
 8002eb6:	6063      	str	r3, [r4, #4]
        pcache->size = 0;
 8002eb8:	2300      	movs	r3, #0
 8002eba:	60a3      	str	r3, [r4, #8]
    while (size > 0) {
 8002ebc:	f1b8 0f00 	cmp.w	r8, #0
 8002ec0:	d035      	beq.n	8002f2e <lfs_bd_prog+0xd6>
        if (block == pcache->block &&
 8002ec2:	6823      	ldr	r3, [r4, #0]
 8002ec4:	42ab      	cmp	r3, r5
 8002ec6:	d1ec      	bne.n	8002ea2 <lfs_bd_prog+0x4a>
                off >= pcache->off &&
 8002ec8:	6862      	ldr	r2, [r4, #4]
        if (block == pcache->block &&
 8002eca:	42b2      	cmp	r2, r6
 8002ecc:	d8e9      	bhi.n	8002ea2 <lfs_bd_prog+0x4a>
                off < pcache->off + lfs->cfg->cache_size) {
 8002ece:	6eb9      	ldr	r1, [r7, #104]	@ 0x68
 8002ed0:	6a89      	ldr	r1, [r1, #40]	@ 0x28
 8002ed2:	1850      	adds	r0, r2, r1
                off >= pcache->off &&
 8002ed4:	42b0      	cmp	r0, r6
 8002ed6:	d9e4      	bls.n	8002ea2 <lfs_bd_prog+0x4a>
                    lfs->cfg->cache_size - (off-pcache->off));
 8002ed8:	1b93      	subs	r3, r2, r6
 8002eda:	eb01 0903 	add.w	r9, r1, r3
    return (a < b) ? a : b;
 8002ede:	45c1      	cmp	r9, r8
 8002ee0:	bf28      	it	cs
 8002ee2:	46c1      	movcs	r9, r8
            memcpy(&pcache->buffer[off-pcache->off], data, diff);
 8002ee4:	68e3      	ldr	r3, [r4, #12]
 8002ee6:	1ab0      	subs	r0, r6, r2
 8002ee8:	464a      	mov	r2, r9
 8002eea:	4651      	mov	r1, sl
 8002eec:	4418      	add	r0, r3
 8002eee:	f003 fb64 	bl	80065ba <memcpy>
            data += diff;
 8002ef2:	44ca      	add	sl, r9
            off += diff;
 8002ef4:	444e      	add	r6, r9
            size -= diff;
 8002ef6:	eba8 0809 	sub.w	r8, r8, r9
            pcache->size = lfs_max(pcache->size, off - pcache->off);
 8002efa:	68a2      	ldr	r2, [r4, #8]
 8002efc:	6863      	ldr	r3, [r4, #4]
 8002efe:	1af3      	subs	r3, r6, r3
    return (a > b) ? a : b;
 8002f00:	4293      	cmp	r3, r2
 8002f02:	bf38      	it	cc
 8002f04:	4613      	movcc	r3, r2
 8002f06:	60a3      	str	r3, [r4, #8]
            if (pcache->size == lfs->cfg->cache_size) {
 8002f08:	6eba      	ldr	r2, [r7, #104]	@ 0x68
 8002f0a:	6a92      	ldr	r2, [r2, #40]	@ 0x28
 8002f0c:	429a      	cmp	r2, r3
 8002f0e:	d1d5      	bne.n	8002ebc <lfs_bd_prog+0x64>
                int err = lfs_bd_flush(lfs, pcache, rcache, validate);
 8002f10:	465b      	mov	r3, fp
 8002f12:	9a01      	ldr	r2, [sp, #4]
 8002f14:	4621      	mov	r1, r4
 8002f16:	4638      	mov	r0, r7
 8002f18:	f7ff ff44 	bl	8002da4 <lfs_bd_flush>
                if (err) {
 8002f1c:	b940      	cbnz	r0, 8002f30 <lfs_bd_prog+0xd8>
 8002f1e:	e7cd      	b.n	8002ebc <lfs_bd_prog+0x64>
        LFS_ASSERT(pcache->block == LFS_BLOCK_NULL);
 8002f20:	4b09      	ldr	r3, [pc, #36]	@ (8002f48 <lfs_bd_prog+0xf0>)
 8002f22:	4a06      	ldr	r2, [pc, #24]	@ (8002f3c <lfs_bd_prog+0xe4>)
 8002f24:	f240 1107 	movw	r1, #263	@ 0x107
 8002f28:	4805      	ldr	r0, [pc, #20]	@ (8002f40 <lfs_bd_prog+0xe8>)
 8002f2a:	f002 ffb3 	bl	8005e94 <__assert_func>
    return 0;
 8002f2e:	2000      	movs	r0, #0
}
 8002f30:	b003      	add	sp, #12
 8002f32:	e8bd 8ff0 	ldmia.w	sp!, {r4, r5, r6, r7, r8, r9, sl, fp, pc}
 8002f36:	bf00      	nop
 8002f38:	0800724c 	.word	0x0800724c
 8002f3c:	08007e34 	.word	0x08007e34
 8002f40:	080070fc 	.word	0x080070fc
 8002f44:	08007214 	.word	0x08007214
 8002f48:	08007270 	.word	0x08007270

08002f4c <lfs_bd_sync>:
        lfs_cache_t *pcache, lfs_cache_t *rcache, bool validate) {
 8002f4c:	b538      	push	{r3, r4, r5, lr}
 8002f4e:	4604      	mov	r4, r0
    rcache->block = LFS_BLOCK_NULL;
 8002f50:	f04f 35ff 	mov.w	r5, #4294967295	@ 0xffffffff
 8002f54:	6015      	str	r5, [r2, #0]
    int err = lfs_bd_flush(lfs, pcache, rcache, validate);
 8002f56:	f7ff ff25 	bl	8002da4 <lfs_bd_flush>
    if (err) {
 8002f5a:	4603      	mov	r3, r0
 8002f5c:	b920      	cbnz	r0, 8002f68 <lfs_bd_sync+0x1c>
    err = lfs->cfg->sync(lfs->cfg);
 8002f5e:	6ea0      	ldr	r0, [r4, #104]	@ 0x68
 8002f60:	6903      	ldr	r3, [r0, #16]
 8002f62:	4798      	blx	r3
    LFS_ASSERT(err <= 0);
 8002f64:	1e03      	subs	r3, r0, #0
 8002f66:	dc01      	bgt.n	8002f6c <lfs_bd_sync+0x20>
}
 8002f68:	4618      	mov	r0, r3
 8002f6a:	bd38      	pop	{r3, r4, r5, pc}
    LFS_ASSERT(err <= 0);
 8002f6c:	4b02      	ldr	r3, [pc, #8]	@ (8002f78 <lfs_bd_sync+0x2c>)
 8002f6e:	4a03      	ldr	r2, [pc, #12]	@ (8002f7c <lfs_bd_sync+0x30>)
 8002f70:	21de      	movs	r1, #222	@ 0xde
 8002f72:	4803      	ldr	r0, [pc, #12]	@ (8002f80 <lfs_bd_sync+0x34>)
 8002f74:	f002 ff8e 	bl	8005e94 <__assert_func>
 8002f78:	08007110 	.word	0x08007110
 8002f7c:	08007dc0 	.word	0x08007dc0
 8002f80:	080070fc 	.word	0x080070fc

08002f84 <lfs_dir_find_match>:
        lfs_tag_t tag, const void *buffer) {
 8002f84:	b570      	push	{r4, r5, r6, lr}
 8002f86:	b084      	sub	sp, #16
 8002f88:	4604      	mov	r4, r0
 8002f8a:	4694      	mov	ip, r2
    lfs_t *lfs = name->lfs;
 8002f8c:	6800      	ldr	r0, [r0, #0]
    lfs_size_t diff = lfs_min(name->size, lfs_tag_size(tag));
 8002f8e:	68a3      	ldr	r3, [r4, #8]
    return tag & 0x000003ff;
 8002f90:	f3c1 0509 	ubfx	r5, r1, #0, #10
    return (a < b) ? a : b;
 8002f94:	42ab      	cmp	r3, r5
 8002f96:	bf28      	it	cs
 8002f98:	462b      	movcs	r3, r5
            disk->block, disk->off, name->name, diff);
 8002f9a:	6812      	ldr	r2, [r2, #0]
 8002f9c:	f8dc 1004 	ldr.w	r1, [ip, #4]
    int res = lfs_bd_cmp(lfs,
 8002fa0:	9303      	str	r3, [sp, #12]
 8002fa2:	6866      	ldr	r6, [r4, #4]
 8002fa4:	9602      	str	r6, [sp, #8]
 8002fa6:	9101      	str	r1, [sp, #4]
 8002fa8:	9200      	str	r2, [sp, #0]
 8002faa:	4602      	mov	r2, r0
 8002fac:	2100      	movs	r1, #0
 8002fae:	f7ff fec0 	bl	8002d32 <lfs_bd_cmp>
    if (res != LFS_CMP_EQ) {
 8002fb2:	b920      	cbnz	r0, 8002fbe <lfs_dir_find_match+0x3a>
    if (name->size != lfs_tag_size(tag)) {
 8002fb4:	68a3      	ldr	r3, [r4, #8]
 8002fb6:	42ab      	cmp	r3, r5
 8002fb8:	d001      	beq.n	8002fbe <lfs_dir_find_match+0x3a>
        return (name->size < lfs_tag_size(tag)) ? LFS_CMP_LT : LFS_CMP_GT;
 8002fba:	d202      	bcs.n	8002fc2 <lfs_dir_find_match+0x3e>
 8002fbc:	2001      	movs	r0, #1
}
 8002fbe:	b004      	add	sp, #16
 8002fc0:	bd70      	pop	{r4, r5, r6, pc}
        return (name->size < lfs_tag_size(tag)) ? LFS_CMP_LT : LFS_CMP_GT;
 8002fc2:	2002      	movs	r0, #2
 8002fc4:	e7fb      	b.n	8002fbe <lfs_dir_find_match+0x3a>

08002fc6 <lfs_ctz_find>:
        lfs_size_t pos, lfs_block_t *block, lfs_off_t *off) {
 8002fc6:	e92d 43f0 	stmdb	sp!, {r4, r5, r6, r7, r8, r9, lr}
 8002fca:	b089      	sub	sp, #36	@ 0x24
 8002fcc:	9305      	str	r3, [sp, #20]
 8002fce:	9b10      	ldr	r3, [sp, #64]	@ 0x40
    if (size == 0) {
 8002fd0:	b953      	cbnz	r3, 8002fe8 <lfs_ctz_find+0x22>
        *block = LFS_BLOCK_NULL;
 8002fd2:	f04f 33ff 	mov.w	r3, #4294967295	@ 0xffffffff
 8002fd6:	9a12      	ldr	r2, [sp, #72]	@ 0x48
 8002fd8:	6013      	str	r3, [r2, #0]
        *off = 0;
 8002fda:	2300      	movs	r3, #0
 8002fdc:	9a13      	ldr	r2, [sp, #76]	@ 0x4c
 8002fde:	6013      	str	r3, [r2, #0]
}
 8002fe0:	4618      	mov	r0, r3
 8002fe2:	b009      	add	sp, #36	@ 0x24
 8002fe4:	e8bd 83f0 	ldmia.w	sp!, {r4, r5, r6, r7, r8, r9, pc}
 8002fe8:	4607      	mov	r7, r0
 8002fea:	4688      	mov	r8, r1
 8002fec:	4691      	mov	r9, r2
    lfs_off_t current = lfs_ctz_index(lfs, &(lfs_off_t){size-1});
 8002fee:	3b01      	subs	r3, #1
 8002ff0:	9307      	str	r3, [sp, #28]
 8002ff2:	a907      	add	r1, sp, #28
 8002ff4:	f7ff f9f6 	bl	80023e4 <lfs_ctz_index>
 8002ff8:	4605      	mov	r5, r0
    lfs_off_t target = lfs_ctz_index(lfs, &pos);
 8002ffa:	a911      	add	r1, sp, #68	@ 0x44
 8002ffc:	4638      	mov	r0, r7
 8002ffe:	f7ff f9f1 	bl	80023e4 <lfs_ctz_index>
 8003002:	4606      	mov	r6, r0
    while (current > target) {
 8003004:	42b5      	cmp	r5, r6
 8003006:	d91f      	bls.n	8003048 <lfs_ctz_find+0x82>
                lfs_npw2(current-target+1) - 1,
 8003008:	1bac      	subs	r4, r5, r6
    return 32 - __builtin_clz(a-1);
 800300a:	fab4 f484 	clz	r4, r4
 800300e:	f1c4 041f 	rsb	r4, r4, #31
    return __builtin_ctz(a);
 8003012:	fa95 f3a5 	rbit	r3, r5
 8003016:	fab3 f383 	clz	r3, r3
    return (a < b) ? a : b;
 800301a:	429c      	cmp	r4, r3
 800301c:	bf28      	it	cs
 800301e:	461c      	movcs	r4, r3
                head, 4*skip, &head, sizeof(head));
 8003020:	00a2      	lsls	r2, r4, #2
        int err = lfs_bd_read(lfs,
 8003022:	2304      	movs	r3, #4
 8003024:	9303      	str	r3, [sp, #12]
 8003026:	a905      	add	r1, sp, #20
 8003028:	9102      	str	r1, [sp, #8]
 800302a:	9201      	str	r2, [sp, #4]
 800302c:	9a05      	ldr	r2, [sp, #20]
 800302e:	9200      	str	r2, [sp, #0]
 8003030:	464a      	mov	r2, r9
 8003032:	4641      	mov	r1, r8
 8003034:	4638      	mov	r0, r7
 8003036:	f7ff f9f3 	bl	8002420 <lfs_bd_read>
        if (err) {
 800303a:	4603      	mov	r3, r0
 800303c:	2800      	cmp	r0, #0
 800303e:	d1cf      	bne.n	8002fe0 <lfs_ctz_find+0x1a>
        current -= 1 << skip;
 8003040:	2301      	movs	r3, #1
 8003042:	40a3      	lsls	r3, r4
 8003044:	1aed      	subs	r5, r5, r3
 8003046:	e7dd      	b.n	8003004 <lfs_ctz_find+0x3e>
    *block = head;
 8003048:	9b05      	ldr	r3, [sp, #20]
 800304a:	9a12      	ldr	r2, [sp, #72]	@ 0x48
 800304c:	6013      	str	r3, [r2, #0]
    *off = pos;
 800304e:	9b11      	ldr	r3, [sp, #68]	@ 0x44
 8003050:	9a13      	ldr	r2, [sp, #76]	@ 0x4c
 8003052:	6013      	str	r3, [r2, #0]
    return 0;
 8003054:	2300      	movs	r3, #0
 8003056:	e7c3      	b.n	8002fe0 <lfs_ctz_find+0x1a>

08003058 <lfs_file_flushedread>:
        void *buffer, lfs_size_t size) {
 8003058:	e92d 43f0 	stmdb	sp!, {r4, r5, r6, r7, r8, r9, lr}
 800305c:	b087      	sub	sp, #28
 800305e:	460c      	mov	r4, r1
 8003060:	4617      	mov	r7, r2
    if (file->pos >= file->ctz.size) {
 8003062:	6b49      	ldr	r1, [r1, #52]	@ 0x34
 8003064:	6ae2      	ldr	r2, [r4, #44]	@ 0x2c
 8003066:	4291      	cmp	r1, r2
 8003068:	d272      	bcs.n	8003150 <lfs_file_flushedread+0xf8>
 800306a:	4680      	mov	r8, r0
    size = lfs_min(size, file->ctz.size - file->pos);
 800306c:	eba2 0901 	sub.w	r9, r2, r1
 8003070:	4599      	cmp	r9, r3
 8003072:	bf28      	it	cs
 8003074:	4699      	movcs	r9, r3
    nsize = size;
 8003076:	464e      	mov	r6, r9
    while (nsize > 0) {
 8003078:	e037      	b.n	80030ea <lfs_file_flushedread+0x92>
            if (!(file->flags & LFS_F_INLINE)) {
 800307a:	f013 7f80 	tst.w	r3, #16777216	@ 0x1000000
 800307e:	d041      	beq.n	8003104 <lfs_file_flushedread+0xac>
                file->block = LFS_BLOCK_INLINE;
 8003080:	f06f 0301 	mvn.w	r3, #1
 8003084:	63a3      	str	r3, [r4, #56]	@ 0x38
                file->off = file->pos;
 8003086:	6b63      	ldr	r3, [r4, #52]	@ 0x34
 8003088:	63e3      	str	r3, [r4, #60]	@ 0x3c
            file->flags |= LFS_F_READING;
 800308a:	6b23      	ldr	r3, [r4, #48]	@ 0x30
 800308c:	f443 2300 	orr.w	r3, r3, #524288	@ 0x80000
 8003090:	6323      	str	r3, [r4, #48]	@ 0x30
        lfs_size_t diff = lfs_min(nsize, lfs->cfg->block_size - file->off);
 8003092:	f8d8 3068 	ldr.w	r3, [r8, #104]	@ 0x68
 8003096:	69db      	ldr	r3, [r3, #28]
 8003098:	6be2      	ldr	r2, [r4, #60]	@ 0x3c
 800309a:	1a9d      	subs	r5, r3, r2
 800309c:	42b5      	cmp	r5, r6
 800309e:	bf28      	it	cs
 80030a0:	4635      	movcs	r5, r6
        if (file->flags & LFS_F_INLINE) {
 80030a2:	6b21      	ldr	r1, [r4, #48]	@ 0x30
 80030a4:	f011 7f80 	tst.w	r1, #16777216	@ 0x1000000
 80030a8:	d041      	beq.n	800312e <lfs_file_flushedread+0xd6>
                    LFS_MKTAG(LFS_TYPE_INLINESTRUCT, file->id, 0),
 80030aa:	88a1      	ldrh	r1, [r4, #4]
 80030ac:	0289      	lsls	r1, r1, #10
 80030ae:	f041 5100 	orr.w	r1, r1, #536870912	@ 0x20000000
 80030b2:	f441 1180 	orr.w	r1, r1, #1048576	@ 0x100000
            int err = lfs_dir_getread(lfs, &file->m,
 80030b6:	9505      	str	r5, [sp, #20]
 80030b8:	9704      	str	r7, [sp, #16]
 80030ba:	9203      	str	r2, [sp, #12]
 80030bc:	9102      	str	r1, [sp, #8]
 80030be:	4a27      	ldr	r2, [pc, #156]	@ (800315c <lfs_file_flushedread+0x104>)
 80030c0:	9201      	str	r2, [sp, #4]
 80030c2:	9300      	str	r3, [sp, #0]
 80030c4:	f104 0340 	add.w	r3, r4, #64	@ 0x40
 80030c8:	2200      	movs	r2, #0
 80030ca:	f104 0108 	add.w	r1, r4, #8
 80030ce:	4640      	mov	r0, r8
 80030d0:	f7ff fda0 	bl	8002c14 <lfs_dir_getread>
            if (err) {
 80030d4:	4603      	mov	r3, r0
 80030d6:	2800      	cmp	r0, #0
 80030d8:	d13b      	bne.n	8003152 <lfs_file_flushedread+0xfa>
        file->pos += diff;
 80030da:	6b63      	ldr	r3, [r4, #52]	@ 0x34
 80030dc:	442b      	add	r3, r5
 80030de:	6363      	str	r3, [r4, #52]	@ 0x34
        file->off += diff;
 80030e0:	6be3      	ldr	r3, [r4, #60]	@ 0x3c
 80030e2:	442b      	add	r3, r5
 80030e4:	63e3      	str	r3, [r4, #60]	@ 0x3c
        data += diff;
 80030e6:	442f      	add	r7, r5
        nsize -= diff;
 80030e8:	1b76      	subs	r6, r6, r5
    while (nsize > 0) {
 80030ea:	2e00      	cmp	r6, #0
 80030ec:	d02e      	beq.n	800314c <lfs_file_flushedread+0xf4>
        if (!(file->flags & LFS_F_READING) ||
 80030ee:	6b23      	ldr	r3, [r4, #48]	@ 0x30
 80030f0:	f413 2f00 	tst.w	r3, #524288	@ 0x80000
 80030f4:	d0c1      	beq.n	800307a <lfs_file_flushedread+0x22>
                file->off == lfs->cfg->block_size) {
 80030f6:	6be1      	ldr	r1, [r4, #60]	@ 0x3c
 80030f8:	f8d8 2068 	ldr.w	r2, [r8, #104]	@ 0x68
 80030fc:	69d2      	ldr	r2, [r2, #28]
        if (!(file->flags & LFS_F_READING) ||
 80030fe:	4291      	cmp	r1, r2
 8003100:	d1c7      	bne.n	8003092 <lfs_file_flushedread+0x3a>
 8003102:	e7ba      	b.n	800307a <lfs_file_flushedread+0x22>
                        file->pos, &file->block, &file->off);
 8003104:	6b63      	ldr	r3, [r4, #52]	@ 0x34
                int err = lfs_ctz_find(lfs, NULL, &file->cache,
 8003106:	f104 023c 	add.w	r2, r4, #60	@ 0x3c
 800310a:	9203      	str	r2, [sp, #12]
 800310c:	f104 0238 	add.w	r2, r4, #56	@ 0x38
 8003110:	9202      	str	r2, [sp, #8]
 8003112:	9301      	str	r3, [sp, #4]
 8003114:	6ae3      	ldr	r3, [r4, #44]	@ 0x2c
 8003116:	9300      	str	r3, [sp, #0]
 8003118:	6aa3      	ldr	r3, [r4, #40]	@ 0x28
 800311a:	f104 0240 	add.w	r2, r4, #64	@ 0x40
 800311e:	2100      	movs	r1, #0
 8003120:	4640      	mov	r0, r8
 8003122:	f7ff ff50 	bl	8002fc6 <lfs_ctz_find>
                if (err) {
 8003126:	4603      	mov	r3, r0
 8003128:	2800      	cmp	r0, #0
 800312a:	d0ae      	beq.n	800308a <lfs_file_flushedread+0x32>
 800312c:	e011      	b.n	8003152 <lfs_file_flushedread+0xfa>
            int err = lfs_bd_read(lfs,
 800312e:	9503      	str	r5, [sp, #12]
 8003130:	9702      	str	r7, [sp, #8]
 8003132:	9201      	str	r2, [sp, #4]
 8003134:	6ba2      	ldr	r2, [r4, #56]	@ 0x38
 8003136:	9200      	str	r2, [sp, #0]
 8003138:	f104 0240 	add.w	r2, r4, #64	@ 0x40
 800313c:	2100      	movs	r1, #0
 800313e:	4640      	mov	r0, r8
 8003140:	f7ff f96e 	bl	8002420 <lfs_bd_read>
            if (err) {
 8003144:	4603      	mov	r3, r0
 8003146:	2800      	cmp	r0, #0
 8003148:	d0c7      	beq.n	80030da <lfs_file_flushedread+0x82>
 800314a:	e002      	b.n	8003152 <lfs_file_flushedread+0xfa>
    return size;
 800314c:	464b      	mov	r3, r9
 800314e:	e000      	b.n	8003152 <lfs_file_flushedread+0xfa>
        return 0;
 8003150:	2300      	movs	r3, #0
}
 8003152:	4618      	mov	r0, r3
 8003154:	b007      	add	sp, #28
 8003156:	e8bd 83f0 	ldmia.w	sp!, {r4, r5, r6, r7, r8, r9, pc}
 800315a:	bf00      	nop
 800315c:	fff7fc00 	.word	0xfff7fc00

08003160 <lfs_bd_crc>:
        lfs_block_t block, lfs_off_t off, lfs_size_t size, uint32_t *crc) {
 8003160:	e92d 4ff0 	stmdb	sp!, {r4, r5, r6, r7, r8, r9, sl, fp, lr}
 8003164:	b089      	sub	sp, #36	@ 0x24
 8003166:	4683      	mov	fp, r0
 8003168:	468a      	mov	sl, r1
 800316a:	9205      	str	r2, [sp, #20]
 800316c:	4698      	mov	r8, r3
 800316e:	f8dd 904c 	ldr.w	r9, [sp, #76]	@ 0x4c
 8003172:	9e14      	ldr	r6, [sp, #80]	@ 0x50
 8003174:	9f15      	ldr	r7, [sp, #84]	@ 0x54
    for (lfs_off_t i = 0; i < size; i += diff) {
 8003176:	2400      	movs	r4, #0
 8003178:	e006      	b.n	8003188 <lfs_bd_crc+0x28>
        *crc = lfs_crc(*crc, &dat, diff);
 800317a:	462a      	mov	r2, r5
 800317c:	a906      	add	r1, sp, #24
 800317e:	6838      	ldr	r0, [r7, #0]
 8003180:	f002 fbfa 	bl	8005978 <lfs_crc>
 8003184:	6038      	str	r0, [r7, #0]
    for (lfs_off_t i = 0; i < size; i += diff) {
 8003186:	442c      	add	r4, r5
 8003188:	42b4      	cmp	r4, r6
 800318a:	d216      	bcs.n	80031ba <lfs_bd_crc+0x5a>
        diff = lfs_min(size-i, sizeof(dat));
 800318c:	1b35      	subs	r5, r6, r4
 800318e:	2d08      	cmp	r5, #8
 8003190:	bf28      	it	cs
 8003192:	2508      	movcs	r5, #8
        int err = lfs_bd_read(lfs,
 8003194:	9503      	str	r5, [sp, #12]
 8003196:	ab06      	add	r3, sp, #24
 8003198:	9302      	str	r3, [sp, #8]
 800319a:	eb04 0309 	add.w	r3, r4, r9
 800319e:	9301      	str	r3, [sp, #4]
 80031a0:	9b12      	ldr	r3, [sp, #72]	@ 0x48
 80031a2:	9300      	str	r3, [sp, #0]
 80031a4:	eba8 0304 	sub.w	r3, r8, r4
 80031a8:	9a05      	ldr	r2, [sp, #20]
 80031aa:	4651      	mov	r1, sl
 80031ac:	4658      	mov	r0, fp
 80031ae:	f7ff f937 	bl	8002420 <lfs_bd_read>
        if (err) {
 80031b2:	4603      	mov	r3, r0
 80031b4:	2800      	cmp	r0, #0
 80031b6:	d0e0      	beq.n	800317a <lfs_bd_crc+0x1a>
 80031b8:	e000      	b.n	80031bc <lfs_bd_crc+0x5c>
    return 0;
 80031ba:	2300      	movs	r3, #0
}
 80031bc:	4618      	mov	r0, r3
 80031be:	b009      	add	sp, #36	@ 0x24
 80031c0:	e8bd 8ff0 	ldmia.w	sp!, {r4, r5, r6, r7, r8, r9, sl, fp, pc}

080031c4 <lfs_dir_fetchmatch>:
        int (*cb)(void *data, lfs_tag_t tag, const void *buffer), void *data) {
 80031c4:	e92d 4ff0 	stmdb	sp!, {r4, r5, r6, r7, r8, r9, sl, fp, lr}
 80031c8:	b097      	sub	sp, #92	@ 0x5c
 80031ca:	4605      	mov	r5, r0
 80031cc:	460e      	mov	r6, r1
 80031ce:	4617      	mov	r7, r2
 80031d0:	9306      	str	r3, [sp, #24]
    if (lfs->block_count 
 80031d2:	6ec3      	ldr	r3, [r0, #108]	@ 0x6c
 80031d4:	b13b      	cbz	r3, 80031e6 <lfs_dir_fetchmatch+0x22>
            && (pair[0] >= lfs->block_count || pair[1] >= lfs->block_count)) {
 80031d6:	6812      	ldr	r2, [r2, #0]
 80031d8:	4293      	cmp	r3, r2
 80031da:	f240 826f 	bls.w	80036bc <lfs_dir_fetchmatch+0x4f8>
 80031de:	687a      	ldr	r2, [r7, #4]
 80031e0:	4293      	cmp	r3, r2
 80031e2:	f240 826e 	bls.w	80036c2 <lfs_dir_fetchmatch+0x4fe>
    uint32_t revs[2] = {0, 0};
 80031e6:	2300      	movs	r3, #0
 80031e8:	9312      	str	r3, [sp, #72]	@ 0x48
 80031ea:	9313      	str	r3, [sp, #76]	@ 0x4c
    for (int i = 0; i < 2; i++) {
 80031ec:	461c      	mov	r4, r3
    int r = 0;
 80031ee:	4699      	mov	r9, r3
    for (int i = 0; i < 2; i++) {
 80031f0:	e00e      	b.n	8003210 <lfs_dir_fetchmatch+0x4c>
                lfs_scmp(revs[i], revs[(i+1)%2]) > 0) {
 80031f2:	1c63      	adds	r3, r4, #1
 80031f4:	f003 0301 	and.w	r3, r3, #1
 80031f8:	bf48      	it	mi
 80031fa:	425b      	negmi	r3, r3
 80031fc:	a916      	add	r1, sp, #88	@ 0x58
 80031fe:	eb01 0383 	add.w	r3, r1, r3, lsl #2
 8003202:	f853 3c10 	ldr.w	r3, [r3, #-16]
    return (int)(unsigned)(a - b);
 8003206:	1ad2      	subs	r2, r2, r3
        if (err != LFS_ERR_CORRUPT &&
 8003208:	2a00      	cmp	r2, #0
 800320a:	dd00      	ble.n	800320e <lfs_dir_fetchmatch+0x4a>
            r = i;
 800320c:	46a1      	mov	r9, r4
    for (int i = 0; i < 2; i++) {
 800320e:	3401      	adds	r4, #1
 8003210:	2c01      	cmp	r4, #1
 8003212:	dc1d      	bgt.n	8003250 <lfs_dir_fetchmatch+0x8c>
                pair[i], 0, &revs[i], sizeof(revs[i]));
 8003214:	ea4f 0884 	mov.w	r8, r4, lsl #2
 8003218:	aa12      	add	r2, sp, #72	@ 0x48
 800321a:	eb02 0284 	add.w	r2, r2, r4, lsl #2
        int err = lfs_bd_read(lfs,
 800321e:	2304      	movs	r3, #4
 8003220:	9303      	str	r3, [sp, #12]
 8003222:	9202      	str	r2, [sp, #8]
 8003224:	2100      	movs	r1, #0
 8003226:	9101      	str	r1, [sp, #4]
 8003228:	f857 2024 	ldr.w	r2, [r7, r4, lsl #2]
 800322c:	9200      	str	r2, [sp, #0]
 800322e:	462a      	mov	r2, r5
 8003230:	4628      	mov	r0, r5
 8003232:	f7ff f8f5 	bl	8002420 <lfs_bd_read>
        revs[i] = lfs_fromle32(revs[i]);
 8003236:	f108 0358 	add.w	r3, r8, #88	@ 0x58
 800323a:	eb0d 0803 	add.w	r8, sp, r3
 800323e:	f858 2c10 	ldr.w	r2, [r8, #-16]
        if (err && err != LFS_ERR_CORRUPT) {
 8003242:	4683      	mov	fp, r0
 8003244:	2800      	cmp	r0, #0
 8003246:	d0d4      	beq.n	80031f2 <lfs_dir_fetchmatch+0x2e>
 8003248:	f110 0f54 	cmn.w	r0, #84	@ 0x54
 800324c:	d0df      	beq.n	800320e <lfs_dir_fetchmatch+0x4a>
 800324e:	e231      	b.n	80036b4 <lfs_dir_fetchmatch+0x4f0>
    dir->pair[0] = pair[(r+0)%2];
 8003250:	f1b9 0f00 	cmp.w	r9, #0
 8003254:	f009 0301 	and.w	r3, r9, #1
 8003258:	bfb8      	it	lt
 800325a:	425b      	neglt	r3, r3
 800325c:	f857 2023 	ldr.w	r2, [r7, r3, lsl #2]
 8003260:	6032      	str	r2, [r6, #0]
    dir->pair[1] = pair[(r+1)%2];
 8003262:	f119 0201 	adds.w	r2, r9, #1
 8003266:	f002 0201 	and.w	r2, r2, #1
 800326a:	bf48      	it	mi
 800326c:	4252      	negmi	r2, r2
 800326e:	f857 1022 	ldr.w	r1, [r7, r2, lsl #2]
 8003272:	6071      	str	r1, [r6, #4]
    dir->rev = revs[(r+0)%2];
 8003274:	a916      	add	r1, sp, #88	@ 0x58
 8003276:	eb01 0383 	add.w	r3, r1, r3, lsl #2
 800327a:	f853 3c10 	ldr.w	r3, [r3, #-16]
 800327e:	60b3      	str	r3, [r6, #8]
    dir->off = 0; // nonzero = found some commits
 8003280:	2400      	movs	r4, #0
 8003282:	60f4      	str	r4, [r6, #12]
    lfs_stag_t besttag = -1;
 8003284:	f04f 3bff 	mov.w	fp, #4294967295	@ 0xffffffff
 8003288:	9207      	str	r2, [sp, #28]
 800328a:	46a1      	mov	r9, r4
    for (int i = 0; i < 2; i++) {
 800328c:	f1b9 0f01 	cmp.w	r9, #1
 8003290:	f300 8203 	bgt.w	800369a <lfs_dir_fetchmatch+0x4d6>
        lfs_block_t temptail[2] = {LFS_BLOCK_NULL, LFS_BLOCK_NULL};
 8003294:	4a9c      	ldr	r2, [pc, #624]	@ (8003508 <lfs_dir_fetchmatch+0x344>)
 8003296:	ab0e      	add	r3, sp, #56	@ 0x38
 8003298:	e892 0003 	ldmia.w	r2, {r0, r1}
 800329c:	e883 0003 	stmia.w	r3, {r0, r1}
        uint32_t crc = lfs_crc(0xffffffff, &dir->rev, sizeof(dir->rev));
 80032a0:	2204      	movs	r2, #4
 80032a2:	f106 0108 	add.w	r1, r6, #8
 80032a6:	f04f 30ff 	mov.w	r0, #4294967295	@ 0xffffffff
 80032aa:	f002 fb65 	bl	8005978 <lfs_crc>
 80032ae:	900b      	str	r0, [sp, #44]	@ 0x2c
        lfs_stag_t tempbesttag = besttag;
 80032b0:	f8cd b014 	str.w	fp, [sp, #20]
        bool hasfcrc = false;
 80032b4:	2300      	movs	r3, #0
 80032b6:	461c      	mov	r4, r3
 80032b8:	9308      	str	r3, [sp, #32]
        bool tempsplit = false;
 80032ba:	9309      	str	r3, [sp, #36]	@ 0x24
        lfs_tag_t ptag = 0xffffffff;
 80032bc:	f04f 38ff 	mov.w	r8, #4294967295	@ 0xffffffff
        lfs_off_t off = 0;
 80032c0:	461f      	mov	r7, r3
 80032c2:	e12f      	b.n	8003524 <lfs_dir_fetchmatch+0x360>
                if (err == LFS_ERR_CORRUPT) {
 80032c4:	f110 0f54 	cmn.w	r0, #84	@ 0x54
 80032c8:	d101      	bne.n	80032ce <lfs_dir_fetchmatch+0x10a>
        bool maybeerased = false;
 80032ca:	2300      	movs	r3, #0
 80032cc:	e01f      	b.n	800330e <lfs_dir_fetchmatch+0x14a>
                return err;
 80032ce:	4683      	mov	fp, r0
 80032d0:	e1f0      	b.n	80036b4 <lfs_dir_fetchmatch+0x4f0>
    return (tag & 0x78000000) >> 20;
 80032d2:	ea4f 5318 	mov.w	r3, r8, lsr #20
 80032d6:	f403 63f0 	and.w	r3, r3, #1920	@ 0x780
                maybeerased = (lfs_tag_type2(ptag) == LFS_TYPE_CCRC);
 80032da:	f5b3 6fa0 	cmp.w	r3, #1280	@ 0x500
 80032de:	bf14      	ite	ne
 80032e0:	2300      	movne	r3, #0
 80032e2:	2301      	moveq	r3, #1
                break;
 80032e4:	e013      	b.n	800330e <lfs_dir_fetchmatch+0x14a>
                        dir->pair[0], off+sizeof(tag), &dcrc, sizeof(dcrc));
 80032e6:	1d22      	adds	r2, r4, #4
                err = lfs_bd_read(lfs,
 80032e8:	2104      	movs	r1, #4
 80032ea:	9103      	str	r1, [sp, #12]
 80032ec:	a90d      	add	r1, sp, #52	@ 0x34
 80032ee:	9102      	str	r1, [sp, #8]
 80032f0:	9201      	str	r2, [sp, #4]
 80032f2:	6832      	ldr	r2, [r6, #0]
 80032f4:	9200      	str	r2, [sp, #0]
 80032f6:	462a      	mov	r2, r5
 80032f8:	2100      	movs	r1, #0
 80032fa:	4628      	mov	r0, r5
 80032fc:	f7ff f890 	bl	8002420 <lfs_bd_read>
                if (err) {
 8003300:	2800      	cmp	r0, #0
 8003302:	d141      	bne.n	8003388 <lfs_dir_fetchmatch+0x1c4>
                if (crc != dcrc) {
 8003304:	9a0d      	ldr	r2, [sp, #52]	@ 0x34
 8003306:	9b0b      	ldr	r3, [sp, #44]	@ 0x2c
 8003308:	429a      	cmp	r2, r3
 800330a:	d042      	beq.n	8003392 <lfs_dir_fetchmatch+0x1ce>
        bool maybeerased = false;
 800330c:	2300      	movs	r3, #0
        if (dir->off == 0) {
 800330e:	68f1      	ldr	r1, [r6, #12]
 8003310:	2900      	cmp	r1, #0
 8003312:	f000 8185 	beq.w	8003620 <lfs_dir_fetchmatch+0x45c>
        dir->erased = false;
 8003316:	2200      	movs	r2, #0
 8003318:	75b2      	strb	r2, [r6, #22]
        if (maybeerased && dir->off % lfs->cfg->prog_size == 0) {
 800331a:	b153      	cbz	r3, 8003332 <lfs_dir_fetchmatch+0x16e>
 800331c:	6ea8      	ldr	r0, [r5, #104]	@ 0x68
 800331e:	6982      	ldr	r2, [r0, #24]
 8003320:	fbb1 f3f2 	udiv	r3, r1, r2
 8003324:	fb02 1313 	mls	r3, r2, r3, r1
 8003328:	b91b      	cbnz	r3, 8003332 <lfs_dir_fetchmatch+0x16e>
            if (hasfcrc) {
 800332a:	9b08      	ldr	r3, [sp, #32]
 800332c:	2b00      	cmp	r3, #0
 800332e:	f040 8185 	bne.w	800363c <lfs_dir_fetchmatch+0x478>
        if (lfs_gstate_hasmovehere(&lfs->gdisk, dir->pair)) {
 8003332:	4631      	mov	r1, r6
 8003334:	f105 003c 	add.w	r0, r5, #60	@ 0x3c
 8003338:	f7fe fef0 	bl	800211c <lfs_gstate_hasmovehere>
 800333c:	b168      	cbz	r0, 800335a <lfs_dir_fetchmatch+0x196>
            if (lfs_tag_id(lfs->gdisk.tag) == lfs_tag_id(besttag)) {
 800333e:	6beb      	ldr	r3, [r5, #60]	@ 0x3c
    return (tag & 0x000ffc00) >> 10;
 8003340:	f3c3 238f 	ubfx	r3, r3, #10, #16
 8003344:	f3cb 218f 	ubfx	r1, fp, #10, #16
            if (lfs_tag_id(lfs->gdisk.tag) == lfs_tag_id(besttag)) {
 8003348:	ea81 0203 	eor.w	r2, r1, r3
 800334c:	f3c2 0209 	ubfx	r2, r2, #0, #10
 8003350:	2a00      	cmp	r2, #0
 8003352:	f040 8191 	bne.w	8003678 <lfs_dir_fetchmatch+0x4b4>
                besttag |= 0x80000000;
 8003356:	f04b 4b00 	orr.w	fp, fp, #2147483648	@ 0x80000000
        if (id) {
 800335a:	9b21      	ldr	r3, [sp, #132]	@ 0x84
 800335c:	b13b      	cbz	r3, 800336e <lfs_dir_fetchmatch+0x1aa>
    return (tag & 0x000ffc00) >> 10;
 800335e:	f3cb 2389 	ubfx	r3, fp, #10, #10
            *id = lfs_min(lfs_tag_id(besttag), dir->count);
 8003362:	8ab2      	ldrh	r2, [r6, #20]
    return (a < b) ? a : b;
 8003364:	4293      	cmp	r3, r2
 8003366:	bf28      	it	cs
 8003368:	4613      	movcs	r3, r2
 800336a:	9a21      	ldr	r2, [sp, #132]	@ 0x84
 800336c:	8013      	strh	r3, [r2, #0]
        if (lfs_tag_isvalid(besttag)) {
 800336e:	f1bb 0f00 	cmp.w	fp, #0
 8003372:	f280 819f 	bge.w	80036b4 <lfs_dir_fetchmatch+0x4f0>
    return (tag & 0x000ffc00) >> 10;
 8003376:	f3cb 2389 	ubfx	r3, fp, #10, #10
        } else if (lfs_tag_id(besttag) < dir->count) {
 800337a:	8ab2      	ldrh	r2, [r6, #20]
 800337c:	429a      	cmp	r2, r3
 800337e:	f240 8189 	bls.w	8003694 <lfs_dir_fetchmatch+0x4d0>
            return LFS_ERR_NOENT;
 8003382:	f06f 0b01 	mvn.w	fp, #1
 8003386:	e195      	b.n	80036b4 <lfs_dir_fetchmatch+0x4f0>
                    if (err == LFS_ERR_CORRUPT) {
 8003388:	f110 0f54 	cmn.w	r0, #84	@ 0x54
 800338c:	d0be      	beq.n	800330c <lfs_dir_fetchmatch+0x148>
                    return err;
 800338e:	4683      	mov	fp, r0
 8003390:	e190      	b.n	80036b4 <lfs_dir_fetchmatch+0x4f0>
                ptag ^= (lfs_tag_t)(lfs_tag_chunk(tag) & 1U) << 31;
 8003392:	9b0c      	ldr	r3, [sp, #48]	@ 0x30
 8003394:	f3c3 5307 	ubfx	r3, r3, #20, #8
 8003398:	ea8a 78c3 	eor.w	r8, sl, r3, lsl #31
                lfs->seed = lfs_crc(lfs->seed, &crc, sizeof(crc));
 800339c:	2204      	movs	r2, #4
 800339e:	a90b      	add	r1, sp, #44	@ 0x2c
 80033a0:	6ae8      	ldr	r0, [r5, #44]	@ 0x2c
 80033a2:	f002 fae9 	bl	8005978 <lfs_crc>
 80033a6:	62e8      	str	r0, [r5, #44]	@ 0x2c
                dir->off = off + lfs_tag_dsize(tag);
 80033a8:	9b0c      	ldr	r3, [sp, #48]	@ 0x30
    return ((int32_t)(tag << 22) >> 22) == -1;
 80033aa:	f343 0209 	sbfx	r2, r3, #0, #10
    return sizeof(tag) + lfs_tag_size(tag + lfs_tag_isdelete(tag));
 80033ae:	f1b2 3fff 	cmp.w	r2, #4294967295	@ 0xffffffff
 80033b2:	bf08      	it	eq
 80033b4:	3301      	addeq	r3, #1
    return tag & 0x000003ff;
 80033b6:	f3c3 0309 	ubfx	r3, r3, #0, #10
    return sizeof(tag) + lfs_tag_size(tag + lfs_tag_isdelete(tag));
 80033ba:	3304      	adds	r3, #4
                dir->off = off + lfs_tag_dsize(tag);
 80033bc:	4423      	add	r3, r4
 80033be:	60f3      	str	r3, [r6, #12]
                dir->etag = ptag;
 80033c0:	f8c6 8010 	str.w	r8, [r6, #16]
                dir->count = tempcount;
 80033c4:	82b7      	strh	r7, [r6, #20]
                dir->tail[0] = temptail[0];
 80033c6:	9b0e      	ldr	r3, [sp, #56]	@ 0x38
 80033c8:	61b3      	str	r3, [r6, #24]
                dir->tail[1] = temptail[1];
 80033ca:	9b0f      	ldr	r3, [sp, #60]	@ 0x3c
 80033cc:	61f3      	str	r3, [r6, #28]
                dir->split = tempsplit;
 80033ce:	9b09      	ldr	r3, [sp, #36]	@ 0x24
 80033d0:	75f3      	strb	r3, [r6, #23]
                crc = 0xffffffff;
 80033d2:	f04f 33ff 	mov.w	r3, #4294967295	@ 0xffffffff
 80033d6:	930b      	str	r3, [sp, #44]	@ 0x2c
                besttag = tempbesttag;
 80033d8:	f8dd b014 	ldr.w	fp, [sp, #20]
 80033dc:	e0a2      	b.n	8003524 <lfs_dir_fetchmatch+0x360>
                if (err == LFS_ERR_CORRUPT) {
 80033de:	f110 0f54 	cmn.w	r0, #84	@ 0x54
 80033e2:	d101      	bne.n	80033e8 <lfs_dir_fetchmatch+0x224>
        bool maybeerased = false;
 80033e4:	2300      	movs	r3, #0
 80033e6:	e792      	b.n	800330e <lfs_dir_fetchmatch+0x14a>
                return err;
 80033e8:	4683      	mov	fp, r0
 80033ea:	e163      	b.n	80036b4 <lfs_dir_fetchmatch+0x4f0>
            } else if (lfs_tag_type1(tag) == LFS_TYPE_SPLICE) {
 80033ec:	f5b1 6f80 	cmp.w	r1, #1024	@ 0x400
 80033f0:	d01d      	beq.n	800342e <lfs_dir_fetchmatch+0x26a>
            } else if (lfs_tag_type1(tag) == LFS_TYPE_TAIL) {
 80033f2:	f5b1 6fc0 	cmp.w	r1, #1536	@ 0x600
 80033f6:	d042      	beq.n	800347e <lfs_dir_fetchmatch+0x2ba>
    return (tag & 0x7ff00000) >> 20;
 80033f8:	f3c0 020a 	ubfx	r2, r0, #0, #11
            } else if (lfs_tag_type3(tag) == LFS_TYPE_FCRC) {
 80033fc:	f240 53ff 	movw	r3, #1535	@ 0x5ff
 8003400:	429a      	cmp	r2, r3
 8003402:	f040 80f0 	bne.w	80035e6 <lfs_dir_fetchmatch+0x422>
                        NULL, &lfs->rcache, lfs->cfg->block_size,
 8003406:	6eab      	ldr	r3, [r5, #104]	@ 0x68
 8003408:	69db      	ldr	r3, [r3, #28]
                err = lfs_bd_read(lfs,
 800340a:	2208      	movs	r2, #8
 800340c:	9203      	str	r2, [sp, #12]
 800340e:	aa10      	add	r2, sp, #64	@ 0x40
 8003410:	9202      	str	r2, [sp, #8]
 8003412:	f8cd 8004 	str.w	r8, [sp, #4]
 8003416:	6832      	ldr	r2, [r6, #0]
 8003418:	9200      	str	r2, [sp, #0]
 800341a:	462a      	mov	r2, r5
 800341c:	2100      	movs	r1, #0
 800341e:	4628      	mov	r0, r5
 8003420:	f7fe fffe 	bl	8002420 <lfs_bd_read>
                if (err) {
 8003424:	2800      	cmp	r0, #0
 8003426:	d146      	bne.n	80034b6 <lfs_dir_fetchmatch+0x2f2>
                hasfcrc = true;
 8003428:	2301      	movs	r3, #1
 800342a:	9308      	str	r3, [sp, #32]
 800342c:	e0db      	b.n	80035e6 <lfs_dir_fetchmatch+0x422>
    return (int8_t)lfs_tag_chunk(tag);
 800342e:	b240      	sxtb	r0, r0
                tempcount += lfs_tag_splice(tag);
 8003430:	fa17 f280 	uxtah	r2, r7, r0
 8003434:	b297      	uxth	r7, r2
                if (tag == (LFS_MKTAG(LFS_TYPE_DELETE, 0, 0) |
 8003436:	9a05      	ldr	r2, [sp, #20]
 8003438:	f022 427f 	bic.w	r2, r2, #4278190080	@ 0xff000000
 800343c:	f422 0270 	bic.w	r2, r2, #15728640	@ 0xf00000
 8003440:	f422 727f 	bic.w	r2, r2, #1020	@ 0x3fc
 8003444:	f022 0203 	bic.w	r2, r2, #3
 8003448:	f042 429f 	orr.w	r2, r2, #1333788672	@ 0x4f800000
 800344c:	f442 02e0 	orr.w	r2, r2, #7340032	@ 0x700000
 8003450:	4293      	cmp	r3, r2
 8003452:	d00f      	beq.n	8003474 <lfs_dir_fetchmatch+0x2b0>
                } else if (tempbesttag != -1 &&
 8003454:	9905      	ldr	r1, [sp, #20]
 8003456:	f1b1 3fff 	cmp.w	r1, #4294967295	@ 0xffffffff
 800345a:	f000 80c4 	beq.w	80035e6 <lfs_dir_fetchmatch+0x422>
    return (tag & 0x000ffc00) >> 10;
 800345e:	f3c3 2389 	ubfx	r3, r3, #10, #10
 8003462:	f3c1 2289 	ubfx	r2, r1, #10, #10
                } else if (tempbesttag != -1 &&
 8003466:	429a      	cmp	r2, r3
 8003468:	f0c0 80bd 	bcc.w	80035e6 <lfs_dir_fetchmatch+0x422>
                    tempbesttag += LFS_MKTAG(0, lfs_tag_splice(tag), 0);
 800346c:	eb01 2380 	add.w	r3, r1, r0, lsl #10
 8003470:	9305      	str	r3, [sp, #20]
 8003472:	e0b8      	b.n	80035e6 <lfs_dir_fetchmatch+0x422>
                    tempbesttag |= 0x80000000;
 8003474:	9b05      	ldr	r3, [sp, #20]
 8003476:	f043 4300 	orr.w	r3, r3, #2147483648	@ 0x80000000
 800347a:	9305      	str	r3, [sp, #20]
 800347c:	e0b3      	b.n	80035e6 <lfs_dir_fetchmatch+0x422>
                tempsplit = (lfs_tag_chunk(tag) & 1);
 800347e:	f000 0301 	and.w	r3, r0, #1
 8003482:	9309      	str	r3, [sp, #36]	@ 0x24
                        NULL, &lfs->rcache, lfs->cfg->block_size,
 8003484:	6eab      	ldr	r3, [r5, #104]	@ 0x68
 8003486:	69db      	ldr	r3, [r3, #28]
                err = lfs_bd_read(lfs,
 8003488:	2208      	movs	r2, #8
 800348a:	9203      	str	r2, [sp, #12]
 800348c:	aa0e      	add	r2, sp, #56	@ 0x38
 800348e:	9202      	str	r2, [sp, #8]
 8003490:	f8cd 8004 	str.w	r8, [sp, #4]
 8003494:	6832      	ldr	r2, [r6, #0]
 8003496:	9200      	str	r2, [sp, #0]
 8003498:	462a      	mov	r2, r5
 800349a:	2100      	movs	r1, #0
 800349c:	4628      	mov	r0, r5
 800349e:	f7fe ffbf 	bl	8002420 <lfs_bd_read>
                if (err) {
 80034a2:	2800      	cmp	r0, #0
 80034a4:	f000 809f 	beq.w	80035e6 <lfs_dir_fetchmatch+0x422>
                    if (err == LFS_ERR_CORRUPT) {
 80034a8:	f110 0f54 	cmn.w	r0, #84	@ 0x54
 80034ac:	d101      	bne.n	80034b2 <lfs_dir_fetchmatch+0x2ee>
        bool maybeerased = false;
 80034ae:	2300      	movs	r3, #0
 80034b0:	e72d      	b.n	800330e <lfs_dir_fetchmatch+0x14a>
                    return err;
 80034b2:	4683      	mov	fp, r0
 80034b4:	e0fe      	b.n	80036b4 <lfs_dir_fetchmatch+0x4f0>
                    if (err == LFS_ERR_CORRUPT) {
 80034b6:	f110 0f54 	cmn.w	r0, #84	@ 0x54
 80034ba:	d101      	bne.n	80034c0 <lfs_dir_fetchmatch+0x2fc>
        bool maybeerased = false;
 80034bc:	2300      	movs	r3, #0
 80034be:	e726      	b.n	800330e <lfs_dir_fetchmatch+0x14a>
                    return err;
 80034c0:	4683      	mov	fp, r0
 80034c2:	e0f7      	b.n	80036b4 <lfs_dir_fetchmatch+0x4f0>
                LFS_ASSERT(cb != NULL);
 80034c4:	4b11      	ldr	r3, [pc, #68]	@ (800350c <lfs_dir_fetchmatch+0x348>)
 80034c6:	4a12      	ldr	r2, [pc, #72]	@ (8003510 <lfs_dir_fetchmatch+0x34c>)
 80034c8:	f240 510e 	movw	r1, #1294	@ 0x50e
 80034cc:	4811      	ldr	r0, [pc, #68]	@ (8003514 <lfs_dir_fetchmatch+0x350>)
 80034ce:	f002 fce1 	bl	8005e94 <__assert_func>
                    if (res == LFS_ERR_CORRUPT) {
 80034d2:	f110 0f54 	cmn.w	r0, #84	@ 0x54
 80034d6:	d101      	bne.n	80034dc <lfs_dir_fetchmatch+0x318>
        bool maybeerased = false;
 80034d8:	2300      	movs	r3, #0
 80034da:	e718      	b.n	800330e <lfs_dir_fetchmatch+0x14a>
                    return res;
 80034dc:	4683      	mov	fp, r0
 80034de:	e0e9      	b.n	80036b4 <lfs_dir_fetchmatch+0x4f0>
                } else if ((LFS_MKTAG(0x7ff, 0x3ff, 0) & tag) ==
 80034e0:	9a0c      	ldr	r2, [sp, #48]	@ 0x30
 80034e2:	9b05      	ldr	r3, [sp, #20]
 80034e4:	ea82 0103 	eor.w	r1, r2, r3
 80034e8:	4b0b      	ldr	r3, [pc, #44]	@ (8003518 <lfs_dir_fetchmatch+0x354>)
 80034ea:	400b      	ands	r3, r1
 80034ec:	b1b3      	cbz	r3, 800351c <lfs_dir_fetchmatch+0x358>
                } else if (res == LFS_CMP_GT &&
 80034ee:	2802      	cmp	r0, #2
 80034f0:	d117      	bne.n	8003522 <lfs_dir_fetchmatch+0x35e>
    return (tag & 0x000ffc00) >> 10;
 80034f2:	f3c2 2389 	ubfx	r3, r2, #10, #10
 80034f6:	9905      	ldr	r1, [sp, #20]
 80034f8:	f3c1 2189 	ubfx	r1, r1, #10, #10
                } else if (res == LFS_CMP_GT &&
 80034fc:	4299      	cmp	r1, r3
 80034fe:	d310      	bcc.n	8003522 <lfs_dir_fetchmatch+0x35e>
                    tempbesttag = tag | 0x80000000;
 8003500:	f042 4300 	orr.w	r3, r2, #2147483648	@ 0x80000000
 8003504:	9305      	str	r3, [sp, #20]
 8003506:	e00c      	b.n	8003522 <lfs_dir_fetchmatch+0x35e>
 8003508:	08006f10 	.word	0x08006f10
 800350c:	08007294 	.word	0x08007294
 8003510:	08007e10 	.word	0x08007e10
 8003514:	080070fc 	.word	0x080070fc
 8003518:	7ffffc00 	.word	0x7ffffc00
                    tempbesttag = -1;
 800351c:	f04f 33ff 	mov.w	r3, #4294967295	@ 0xffffffff
 8003520:	9305      	str	r3, [sp, #20]
            ptag = tag;
 8003522:	46d0      	mov	r8, sl
    return ((int32_t)(tag << 22) >> 22) == -1;
 8003524:	f348 0209 	sbfx	r2, r8, #0, #10
    return sizeof(tag) + lfs_tag_size(tag + lfs_tag_isdelete(tag));
 8003528:	f1b2 3fff 	cmp.w	r2, #4294967295	@ 0xffffffff
 800352c:	bf14      	ite	ne
 800352e:	4643      	movne	r3, r8
 8003530:	f108 0301 	addeq.w	r3, r8, #1
    return tag & 0x000003ff;
 8003534:	f3c3 0309 	ubfx	r3, r3, #0, #10
    return sizeof(tag) + lfs_tag_size(tag + lfs_tag_isdelete(tag));
 8003538:	3304      	adds	r3, #4
            off += lfs_tag_dsize(ptag);
 800353a:	441c      	add	r4, r3
                    NULL, &lfs->rcache, lfs->cfg->block_size,
 800353c:	6eab      	ldr	r3, [r5, #104]	@ 0x68
 800353e:	69db      	ldr	r3, [r3, #28]
            int err = lfs_bd_read(lfs,
 8003540:	2204      	movs	r2, #4
 8003542:	9203      	str	r2, [sp, #12]
 8003544:	aa0c      	add	r2, sp, #48	@ 0x30
 8003546:	9202      	str	r2, [sp, #8]
 8003548:	9401      	str	r4, [sp, #4]
 800354a:	6832      	ldr	r2, [r6, #0]
 800354c:	9200      	str	r2, [sp, #0]
 800354e:	462a      	mov	r2, r5
 8003550:	2100      	movs	r1, #0
 8003552:	4628      	mov	r0, r5
 8003554:	f7fe ff64 	bl	8002420 <lfs_bd_read>
            if (err) {
 8003558:	2800      	cmp	r0, #0
 800355a:	f47f aeb3 	bne.w	80032c4 <lfs_dir_fetchmatch+0x100>
            crc = lfs_crc(crc, &tag, sizeof(tag));
 800355e:	2204      	movs	r2, #4
 8003560:	a90c      	add	r1, sp, #48	@ 0x30
 8003562:	980b      	ldr	r0, [sp, #44]	@ 0x2c
 8003564:	f002 fa08 	bl	8005978 <lfs_crc>
 8003568:	900b      	str	r0, [sp, #44]	@ 0x2c
            tag = lfs_frombe32(tag) ^ ptag;
 800356a:	9b0c      	ldr	r3, [sp, #48]	@ 0x30
    return __builtin_bswap32(a);
 800356c:	ba1b      	rev	r3, r3
 800356e:	ea88 0a03 	eor.w	sl, r8, r3
 8003572:	f8cd a030 	str.w	sl, [sp, #48]	@ 0x30
            if (!lfs_tag_isvalid(tag)) {
 8003576:	f1ba 0f00 	cmp.w	sl, #0
 800357a:	f6ff aeaa 	blt.w	80032d2 <lfs_dir_fetchmatch+0x10e>
    return ((int32_t)(tag << 22) >> 22) == -1;
 800357e:	f34a 0309 	sbfx	r3, sl, #0, #10
    return sizeof(tag) + lfs_tag_size(tag + lfs_tag_isdelete(tag));
 8003582:	f1b3 3fff 	cmp.w	r3, #4294967295	@ 0xffffffff
 8003586:	bf14      	ite	ne
 8003588:	4652      	movne	r2, sl
 800358a:	f10a 0201 	addeq.w	r2, sl, #1
    return tag & 0x000003ff;
 800358e:	f3c2 0209 	ubfx	r2, r2, #0, #10
    return sizeof(tag) + lfs_tag_size(tag + lfs_tag_isdelete(tag));
 8003592:	1d11      	adds	r1, r2, #4
            } else if (off + lfs_tag_dsize(tag) > lfs->cfg->block_size) {
 8003594:	4421      	add	r1, r4
 8003596:	6eab      	ldr	r3, [r5, #104]	@ 0x68
 8003598:	69db      	ldr	r3, [r3, #28]
 800359a:	4299      	cmp	r1, r3
 800359c:	d83e      	bhi.n	800361c <lfs_dir_fetchmatch+0x458>
    return (tag & 0x78000000) >> 20;
 800359e:	ea4f 511a 	mov.w	r1, sl, lsr #20
 80035a2:	f401 61f0 	and.w	r1, r1, #1920	@ 0x780
            if (lfs_tag_type2(tag) == LFS_TYPE_CCRC) {
 80035a6:	f5b1 6fa0 	cmp.w	r1, #1280	@ 0x500
 80035aa:	f43f ae9c 	beq.w	80032e6 <lfs_dir_fetchmatch+0x122>
                    dir->pair[0], off+sizeof(tag),
 80035ae:	f104 0804 	add.w	r8, r4, #4
            err = lfs_bd_crc(lfs,
 80035b2:	a90b      	add	r1, sp, #44	@ 0x2c
 80035b4:	9103      	str	r1, [sp, #12]
 80035b6:	9202      	str	r2, [sp, #8]
 80035b8:	f8cd 8004 	str.w	r8, [sp, #4]
 80035bc:	6832      	ldr	r2, [r6, #0]
 80035be:	9200      	str	r2, [sp, #0]
 80035c0:	462a      	mov	r2, r5
 80035c2:	2100      	movs	r1, #0
 80035c4:	4628      	mov	r0, r5
 80035c6:	f7ff fdcb 	bl	8003160 <lfs_bd_crc>
            if (err) {
 80035ca:	2800      	cmp	r0, #0
 80035cc:	f47f af07 	bne.w	80033de <lfs_dir_fetchmatch+0x21a>
            if (lfs_tag_type1(tag) == LFS_TYPE_NAME) {
 80035d0:	9b0c      	ldr	r3, [sp, #48]	@ 0x30
    return (tag & 0x70000000) >> 20;
 80035d2:	0d18      	lsrs	r0, r3, #20
            if (lfs_tag_type1(tag) == LFS_TYPE_NAME) {
 80035d4:	f410 61e0 	ands.w	r1, r0, #1792	@ 0x700
 80035d8:	f47f af08 	bne.w	80033ec <lfs_dir_fetchmatch+0x228>
    return (tag & 0x000ffc00) >> 10;
 80035dc:	f3c3 2389 	ubfx	r3, r3, #10, #10
                if (lfs_tag_id(tag) >= tempcount) {
 80035e0:	429f      	cmp	r7, r3
 80035e2:	d800      	bhi.n	80035e6 <lfs_dir_fetchmatch+0x422>
                    tempcount = lfs_tag_id(tag) + 1;
 80035e4:	1c5f      	adds	r7, r3, #1
            if ((fmask & tag) == (fmask & ftag)) {
 80035e6:	990c      	ldr	r1, [sp, #48]	@ 0x30
 80035e8:	9b20      	ldr	r3, [sp, #128]	@ 0x80
 80035ea:	404b      	eors	r3, r1
 80035ec:	9a06      	ldr	r2, [sp, #24]
 80035ee:	4213      	tst	r3, r2
 80035f0:	d197      	bne.n	8003522 <lfs_dir_fetchmatch+0x35e>
                LFS_ASSERT(cb != NULL);
 80035f2:	9b22      	ldr	r3, [sp, #136]	@ 0x88
 80035f4:	2b00      	cmp	r3, #0
 80035f6:	f43f af65 	beq.w	80034c4 <lfs_dir_fetchmatch+0x300>
                        dir->pair[0], off+sizeof(tag)});
 80035fa:	6833      	ldr	r3, [r6, #0]
                int res = cb(data, tag, &(struct lfs_diskoff){
 80035fc:	9314      	str	r3, [sp, #80]	@ 0x50
 80035fe:	f8cd 8054 	str.w	r8, [sp, #84]	@ 0x54
 8003602:	aa14      	add	r2, sp, #80	@ 0x50
 8003604:	9823      	ldr	r0, [sp, #140]	@ 0x8c
 8003606:	9b22      	ldr	r3, [sp, #136]	@ 0x88
 8003608:	4798      	blx	r3
                if (res < 0) {
 800360a:	2800      	cmp	r0, #0
 800360c:	f6ff af61 	blt.w	80034d2 <lfs_dir_fetchmatch+0x30e>
                if (res == LFS_CMP_EQ) {
 8003610:	2800      	cmp	r0, #0
 8003612:	f47f af65 	bne.w	80034e0 <lfs_dir_fetchmatch+0x31c>
                    tempbesttag = tag;
 8003616:	9b0c      	ldr	r3, [sp, #48]	@ 0x30
 8003618:	9305      	str	r3, [sp, #20]
 800361a:	e782      	b.n	8003522 <lfs_dir_fetchmatch+0x35e>
        bool maybeerased = false;
 800361c:	2300      	movs	r3, #0
 800361e:	e676      	b.n	800330e <lfs_dir_fetchmatch+0x14a>
    lfs_block_t t = pair[0];
 8003620:	6833      	ldr	r3, [r6, #0]
    pair[0] = pair[1];
 8003622:	6872      	ldr	r2, [r6, #4]
 8003624:	6032      	str	r2, [r6, #0]
    pair[1] = t;
 8003626:	6073      	str	r3, [r6, #4]
            dir->rev = revs[(r+1)%2];
 8003628:	aa16      	add	r2, sp, #88	@ 0x58
 800362a:	9b07      	ldr	r3, [sp, #28]
 800362c:	eb02 0383 	add.w	r3, r2, r3, lsl #2
 8003630:	f853 3c10 	ldr.w	r3, [r3, #-16]
 8003634:	60b3      	str	r3, [r6, #8]
    for (int i = 0; i < 2; i++) {
 8003636:	f109 0901 	add.w	r9, r9, #1
 800363a:	e627      	b.n	800328c <lfs_dir_fetchmatch+0xc8>
                uint32_t fcrc_ = 0xffffffff;
 800363c:	f04f 33ff 	mov.w	r3, #4294967295	@ 0xffffffff
 8003640:	930d      	str	r3, [sp, #52]	@ 0x34
                        NULL, &lfs->rcache, lfs->cfg->block_size,
 8003642:	69c3      	ldr	r3, [r0, #28]
                int err = lfs_bd_crc(lfs,
 8003644:	aa0d      	add	r2, sp, #52	@ 0x34
 8003646:	9203      	str	r2, [sp, #12]
 8003648:	9a10      	ldr	r2, [sp, #64]	@ 0x40
 800364a:	9202      	str	r2, [sp, #8]
 800364c:	9101      	str	r1, [sp, #4]
 800364e:	6832      	ldr	r2, [r6, #0]
 8003650:	9200      	str	r2, [sp, #0]
 8003652:	462a      	mov	r2, r5
 8003654:	2100      	movs	r1, #0
 8003656:	4628      	mov	r0, r5
 8003658:	f7ff fd82 	bl	8003160 <lfs_bd_crc>
                if (err && err != LFS_ERR_CORRUPT) {
 800365c:	b120      	cbz	r0, 8003668 <lfs_dir_fetchmatch+0x4a4>
 800365e:	f110 0f54 	cmn.w	r0, #84	@ 0x54
 8003662:	d001      	beq.n	8003668 <lfs_dir_fetchmatch+0x4a4>
                    return err;
 8003664:	4683      	mov	fp, r0
 8003666:	e025      	b.n	80036b4 <lfs_dir_fetchmatch+0x4f0>
                dir->erased = (fcrc_ == fcrc.crc);
 8003668:	9a11      	ldr	r2, [sp, #68]	@ 0x44
 800366a:	9b0d      	ldr	r3, [sp, #52]	@ 0x34
 800366c:	4293      	cmp	r3, r2
 800366e:	bf14      	ite	ne
 8003670:	2300      	movne	r3, #0
 8003672:	2301      	moveq	r3, #1
 8003674:	75b3      	strb	r3, [r6, #22]
 8003676:	e65c      	b.n	8003332 <lfs_dir_fetchmatch+0x16e>
            } else if (besttag != -1 &&
 8003678:	f1bb 3fff 	cmp.w	fp, #4294967295	@ 0xffffffff
 800367c:	f43f ae6d 	beq.w	800335a <lfs_dir_fetchmatch+0x196>
    return (tag & 0x000ffc00) >> 10;
 8003680:	f3c3 0309 	ubfx	r3, r3, #0, #10
 8003684:	f3c1 0109 	ubfx	r1, r1, #0, #10
            } else if (besttag != -1 &&
 8003688:	4299      	cmp	r1, r3
 800368a:	f67f ae66 	bls.w	800335a <lfs_dir_fetchmatch+0x196>
                besttag -= LFS_MKTAG(0, 1, 0);
 800368e:	f5ab 6b80 	sub.w	fp, fp, #1024	@ 0x400
 8003692:	e662      	b.n	800335a <lfs_dir_fetchmatch+0x196>
            return 0;
 8003694:	f04f 0b00 	mov.w	fp, #0
 8003698:	e00c      	b.n	80036b4 <lfs_dir_fetchmatch+0x4f0>
    LFS_ERROR("Corrupted dir pair at {0x%"PRIx32", 0x%"PRIx32"}",
 800369a:	4b0b      	ldr	r3, [pc, #44]	@ (80036c8 <lfs_dir_fetchmatch+0x504>)
 800369c:	9301      	str	r3, [sp, #4]
 800369e:	6873      	ldr	r3, [r6, #4]
 80036a0:	9300      	str	r3, [sp, #0]
 80036a2:	6833      	ldr	r3, [r6, #0]
 80036a4:	f240 5267 	movw	r2, #1383	@ 0x567
 80036a8:	4908      	ldr	r1, [pc, #32]	@ (80036cc <lfs_dir_fetchmatch+0x508>)
 80036aa:	4809      	ldr	r0, [pc, #36]	@ (80036d0 <lfs_dir_fetchmatch+0x50c>)
 80036ac:	f002 fda4 	bl	80061f8 <iprintf>
    return LFS_ERR_CORRUPT;
 80036b0:	f06f 0b53 	mvn.w	fp, #83	@ 0x53
}
 80036b4:	4658      	mov	r0, fp
 80036b6:	b017      	add	sp, #92	@ 0x5c
 80036b8:	e8bd 8ff0 	ldmia.w	sp!, {r4, r5, r6, r7, r8, r9, sl, fp, pc}
        return LFS_ERR_CORRUPT;
 80036bc:	f06f 0b53 	mvn.w	fp, #83	@ 0x53
 80036c0:	e7f8      	b.n	80036b4 <lfs_dir_fetchmatch+0x4f0>
 80036c2:	f06f 0b53 	mvn.w	fp, #83	@ 0x53
 80036c6:	e7f5      	b.n	80036b4 <lfs_dir_fetchmatch+0x4f0>
 80036c8:	0800708c 	.word	0x0800708c
 80036cc:	080070fc 	.word	0x080070fc
 80036d0:	080072a8 	.word	0x080072a8

080036d4 <lfs_fs_parent>:
        lfs_mdir_t *parent) {
 80036d4:	b570      	push	{r4, r5, r6, lr}
 80036d6:	b08c      	sub	sp, #48	@ 0x30
 80036d8:	4606      	mov	r6, r0
 80036da:	460d      	mov	r5, r1
 80036dc:	4614      	mov	r4, r2
    parent->tail[0] = 0;
 80036de:	2300      	movs	r3, #0
 80036e0:	6193      	str	r3, [r2, #24]
    parent->tail[1] = 1;
 80036e2:	2301      	movs	r3, #1
 80036e4:	61d3      	str	r3, [r2, #28]
    struct lfs_tortoise_t tortoise = {
 80036e6:	f10d 0c14 	add.w	ip, sp, #20
 80036ea:	4b19      	ldr	r3, [pc, #100]	@ (8003750 <lfs_fs_parent+0x7c>)
 80036ec:	cb0f      	ldmia	r3, {r0, r1, r2, r3}
 80036ee:	e88c 000f 	stmia.w	ip, {r0, r1, r2, r3}
    return pair[0] == LFS_BLOCK_NULL || pair[1] == LFS_BLOCK_NULL;
 80036f2:	69a3      	ldr	r3, [r4, #24]
 80036f4:	f1b3 3fff 	cmp.w	r3, #4294967295	@ 0xffffffff
 80036f8:	d023      	beq.n	8003742 <lfs_fs_parent+0x6e>
 80036fa:	69e3      	ldr	r3, [r4, #28]
 80036fc:	f1b3 3fff 	cmp.w	r3, #4294967295	@ 0xffffffff
 8003700:	d023      	beq.n	800374a <lfs_fs_parent+0x76>
        err = lfs_tortoise_detectcycles(parent, &tortoise);
 8003702:	a905      	add	r1, sp, #20
 8003704:	4620      	mov	r0, r4
 8003706:	f7fe fe43 	bl	8002390 <lfs_tortoise_detectcycles>
        if (err < 0) {
 800370a:	2800      	cmp	r0, #0
 800370c:	db1b      	blt.n	8003746 <lfs_fs_parent+0x72>
                lfs_fs_parent_match, &(struct lfs_fs_parent_match){
 800370e:	9609      	str	r6, [sp, #36]	@ 0x24
                    lfs, {pair[0], pair[1]}});
 8003710:	682b      	ldr	r3, [r5, #0]
                lfs_fs_parent_match, &(struct lfs_fs_parent_match){
 8003712:	930a      	str	r3, [sp, #40]	@ 0x28
                    lfs, {pair[0], pair[1]}});
 8003714:	686b      	ldr	r3, [r5, #4]
                lfs_fs_parent_match, &(struct lfs_fs_parent_match){
 8003716:	930b      	str	r3, [sp, #44]	@ 0x2c
        lfs_stag_t tag = lfs_dir_fetchmatch(lfs, parent, parent->tail,
 8003718:	ab09      	add	r3, sp, #36	@ 0x24
 800371a:	9303      	str	r3, [sp, #12]
 800371c:	4b0d      	ldr	r3, [pc, #52]	@ (8003754 <lfs_fs_parent+0x80>)
 800371e:	9302      	str	r3, [sp, #8]
 8003720:	2300      	movs	r3, #0
 8003722:	9301      	str	r3, [sp, #4]
 8003724:	4b0c      	ldr	r3, [pc, #48]	@ (8003758 <lfs_fs_parent+0x84>)
 8003726:	9300      	str	r3, [sp, #0]
 8003728:	4b0c      	ldr	r3, [pc, #48]	@ (800375c <lfs_fs_parent+0x88>)
 800372a:	f104 0218 	add.w	r2, r4, #24
 800372e:	4621      	mov	r1, r4
 8003730:	4630      	mov	r0, r6
 8003732:	f7ff fd47 	bl	80031c4 <lfs_dir_fetchmatch>
        if (tag && tag != LFS_ERR_NOENT) {
 8003736:	2800      	cmp	r0, #0
 8003738:	d0db      	beq.n	80036f2 <lfs_fs_parent+0x1e>
 800373a:	f110 0f02 	cmn.w	r0, #2
 800373e:	d0d8      	beq.n	80036f2 <lfs_fs_parent+0x1e>
 8003740:	e001      	b.n	8003746 <lfs_fs_parent+0x72>
    return LFS_ERR_NOENT;
 8003742:	f06f 0001 	mvn.w	r0, #1
}
 8003746:	b00c      	add	sp, #48	@ 0x30
 8003748:	bd70      	pop	{r4, r5, r6, pc}
    return LFS_ERR_NOENT;
 800374a:	f06f 0001 	mvn.w	r0, #1
 800374e:	e7fa      	b.n	8003746 <lfs_fs_parent+0x72>
 8003750:	08006f18 	.word	0x08006f18
 8003754:	08002899 	.word	0x08002899
 8003758:	20000008 	.word	0x20000008
 800375c:	7ff003ff 	.word	0x7ff003ff

08003760 <lfs_dir_fetch>:
        lfs_mdir_t *dir, const lfs_block_t pair[2]) {
 8003760:	b500      	push	{lr}
 8003762:	b085      	sub	sp, #20
    return (int)lfs_dir_fetchmatch(lfs, dir, pair,
 8003764:	2300      	movs	r3, #0
 8003766:	9303      	str	r3, [sp, #12]
 8003768:	9302      	str	r3, [sp, #8]
 800376a:	9301      	str	r3, [sp, #4]
 800376c:	f04f 33ff 	mov.w	r3, #4294967295	@ 0xffffffff
 8003770:	9300      	str	r3, [sp, #0]
 8003772:	f7ff fd27 	bl	80031c4 <lfs_dir_fetchmatch>
}
 8003776:	b005      	add	sp, #20
 8003778:	bd00      	pop	{pc}
	...

0800377c <lfs_fs_traverse_>:
        bool includeorphans) {
 800377c:	e92d 47f0 	stmdb	sp!, {r4, r5, r6, r7, r8, r9, sl, lr}
 8003780:	b092      	sub	sp, #72	@ 0x48
 8003782:	4605      	mov	r5, r0
 8003784:	460e      	mov	r6, r1
 8003786:	4617      	mov	r7, r2
 8003788:	4698      	mov	r8, r3
    lfs_mdir_t dir = {.tail = {0, 1}};
 800378a:	2220      	movs	r2, #32
 800378c:	2100      	movs	r1, #0
 800378e:	a80a      	add	r0, sp, #40	@ 0x28
 8003790:	f002 fe88 	bl	80064a4 <memset>
 8003794:	2301      	movs	r3, #1
 8003796:	9311      	str	r3, [sp, #68]	@ 0x44
    struct lfs_tortoise_t tortoise = {
 8003798:	ac06      	add	r4, sp, #24
 800379a:	4b54      	ldr	r3, [pc, #336]	@ (80038ec <lfs_fs_traverse_+0x170>)
 800379c:	cb0f      	ldmia	r3, {r0, r1, r2, r3}
 800379e:	e884 000f 	stmia.w	r4, {r0, r1, r2, r3}
    return pair[0] == LFS_BLOCK_NULL || pair[1] == LFS_BLOCK_NULL;
 80037a2:	9b10      	ldr	r3, [sp, #64]	@ 0x40
 80037a4:	f1b3 3fff 	cmp.w	r3, #4294967295	@ 0xffffffff
 80037a8:	d064      	beq.n	8003874 <lfs_fs_traverse_+0xf8>
 80037aa:	9b11      	ldr	r3, [sp, #68]	@ 0x44
 80037ac:	f1b3 3fff 	cmp.w	r3, #4294967295	@ 0xffffffff
 80037b0:	d060      	beq.n	8003874 <lfs_fs_traverse_+0xf8>
        err = lfs_tortoise_detectcycles(&dir, &tortoise);
 80037b2:	a906      	add	r1, sp, #24
 80037b4:	a80a      	add	r0, sp, #40	@ 0x28
 80037b6:	f7fe fdeb 	bl	8002390 <lfs_tortoise_detectcycles>
        if (err < 0) {
 80037ba:	2800      	cmp	r0, #0
 80037bc:	f2c0 8093 	blt.w	80038e6 <lfs_fs_traverse_+0x16a>
        for (int i = 0; i < 2; i++) {
 80037c0:	2400      	movs	r4, #0
 80037c2:	2c01      	cmp	r4, #1
 80037c4:	dc0c      	bgt.n	80037e0 <lfs_fs_traverse_+0x64>
            int err = cb(data, dir.tail[i]);
 80037c6:	1da3      	adds	r3, r4, #6
 80037c8:	aa12      	add	r2, sp, #72	@ 0x48
 80037ca:	eb02 0383 	add.w	r3, r2, r3, lsl #2
 80037ce:	f853 1c20 	ldr.w	r1, [r3, #-32]
 80037d2:	4638      	mov	r0, r7
 80037d4:	47b0      	blx	r6
            if (err) {
 80037d6:	4602      	mov	r2, r0
 80037d8:	2800      	cmp	r0, #0
 80037da:	d17e      	bne.n	80038da <lfs_fs_traverse_+0x15e>
        for (int i = 0; i < 2; i++) {
 80037dc:	3401      	adds	r4, #1
 80037de:	e7f0      	b.n	80037c2 <lfs_fs_traverse_+0x46>
        int err = lfs_dir_fetch(lfs, &dir, dir.tail);
 80037e0:	aa10      	add	r2, sp, #64	@ 0x40
 80037e2:	a90a      	add	r1, sp, #40	@ 0x28
 80037e4:	4628      	mov	r0, r5
 80037e6:	f7ff ffbb 	bl	8003760 <lfs_dir_fetch>
        if (err) {
 80037ea:	4681      	mov	r9, r0
 80037ec:	2800      	cmp	r0, #0
 80037ee:	d178      	bne.n	80038e2 <lfs_fs_traverse_+0x166>
        for (uint16_t id = 0; id < dir.count; id++) {
 80037f0:	2400      	movs	r4, #0
 80037f2:	e004      	b.n	80037fe <lfs_fs_traverse_+0x82>
                if (tag == LFS_ERR_NOENT) {
 80037f4:	f112 0f02 	cmn.w	r2, #2
 80037f8:	d16f      	bne.n	80038da <lfs_fs_traverse_+0x15e>
        for (uint16_t id = 0; id < dir.count; id++) {
 80037fa:	3401      	adds	r4, #1
 80037fc:	b2a4      	uxth	r4, r4
 80037fe:	f8bd 303c 	ldrh.w	r3, [sp, #60]	@ 0x3c
 8003802:	42a3      	cmp	r3, r4
 8003804:	d9cd      	bls.n	80037a2 <lfs_fs_traverse_+0x26>
                    LFS_MKTAG(LFS_TYPE_STRUCT, id, sizeof(ctz)), &ctz);
 8003806:	02a3      	lsls	r3, r4, #10
            lfs_stag_t tag = lfs_dir_get(lfs, &dir, LFS_MKTAG(0x700, 0x3ff, 0),
 8003808:	aa04      	add	r2, sp, #16
 800380a:	9200      	str	r2, [sp, #0]
 800380c:	f043 5300 	orr.w	r3, r3, #536870912	@ 0x20000000
 8003810:	f043 0308 	orr.w	r3, r3, #8
 8003814:	4a36      	ldr	r2, [pc, #216]	@ (80038f0 <lfs_fs_traverse_+0x174>)
 8003816:	a90a      	add	r1, sp, #40	@ 0x28
 8003818:	4628      	mov	r0, r5
 800381a:	f7fe ffbf 	bl	800279c <lfs_dir_get>
            if (tag < 0) {
 800381e:	1e02      	subs	r2, r0, #0
 8003820:	dbe8      	blt.n	80037f4 <lfs_fs_traverse_+0x78>
    return (tag & 0x7ff00000) >> 20;
 8003822:	f3c2 520a 	ubfx	r2, r2, #20, #11
            if (lfs_tag_type3(tag) == LFS_TYPE_CTZSTRUCT) {
 8003826:	f240 2302 	movw	r3, #514	@ 0x202
 800382a:	429a      	cmp	r2, r3
 800382c:	d014      	beq.n	8003858 <lfs_fs_traverse_+0xdc>
            } else if (includeorphans &&
 800382e:	f1b8 0f00 	cmp.w	r8, #0
 8003832:	d0e2      	beq.n	80037fa <lfs_fs_traverse_+0x7e>
 8003834:	f5b2 7f00 	cmp.w	r2, #512	@ 0x200
 8003838:	d1df      	bne.n	80037fa <lfs_fs_traverse_+0x7e>
                for (int i = 0; i < 2; i++) {
 800383a:	46ca      	mov	sl, r9
 800383c:	f1ba 0f01 	cmp.w	sl, #1
 8003840:	dcdb      	bgt.n	80037fa <lfs_fs_traverse_+0x7e>
                    err = cb(data, (&ctz.head)[i]);
 8003842:	ab04      	add	r3, sp, #16
 8003844:	f853 102a 	ldr.w	r1, [r3, sl, lsl #2]
 8003848:	4638      	mov	r0, r7
 800384a:	47b0      	blx	r6
                    if (err) {
 800384c:	4602      	mov	r2, r0
 800384e:	2800      	cmp	r0, #0
 8003850:	d143      	bne.n	80038da <lfs_fs_traverse_+0x15e>
                for (int i = 0; i < 2; i++) {
 8003852:	f10a 0a01 	add.w	sl, sl, #1
 8003856:	e7f1      	b.n	800383c <lfs_fs_traverse_+0xc0>
                err = lfs_ctz_traverse(lfs, NULL, &lfs->rcache,
 8003858:	9702      	str	r7, [sp, #8]
 800385a:	9601      	str	r6, [sp, #4]
 800385c:	9b05      	ldr	r3, [sp, #20]
 800385e:	9300      	str	r3, [sp, #0]
 8003860:	9b04      	ldr	r3, [sp, #16]
 8003862:	462a      	mov	r2, r5
 8003864:	2100      	movs	r1, #0
 8003866:	4628      	mov	r0, r5
 8003868:	f7fe ffca 	bl	8002800 <lfs_ctz_traverse>
                if (err) {
 800386c:	4602      	mov	r2, r0
 800386e:	2800      	cmp	r0, #0
 8003870:	d0c3      	beq.n	80037fa <lfs_fs_traverse_+0x7e>
 8003872:	e032      	b.n	80038da <lfs_fs_traverse_+0x15e>
    for (lfs_file_t *f = (lfs_file_t*)lfs->mlist; f; f = f->next) {
 8003874:	6aac      	ldr	r4, [r5, #40]	@ 0x28
 8003876:	e006      	b.n	8003886 <lfs_fs_traverse_+0x10a>
        if ((f->flags & LFS_F_WRITING) && !(f->flags & LFS_F_INLINE)) {
 8003878:	6b23      	ldr	r3, [r4, #48]	@ 0x30
 800387a:	f003 7382 	and.w	r3, r3, #17039360	@ 0x1040000
 800387e:	f5b3 2f80 	cmp.w	r3, #262144	@ 0x40000
 8003882:	d01a      	beq.n	80038ba <lfs_fs_traverse_+0x13e>
    for (lfs_file_t *f = (lfs_file_t*)lfs->mlist; f; f = f->next) {
 8003884:	6824      	ldr	r4, [r4, #0]
 8003886:	b33c      	cbz	r4, 80038d8 <lfs_fs_traverse_+0x15c>
        if (f->type != LFS_TYPE_REG) {
 8003888:	79a3      	ldrb	r3, [r4, #6]
 800388a:	2b01      	cmp	r3, #1
 800388c:	d1fa      	bne.n	8003884 <lfs_fs_traverse_+0x108>
        if (((f->flags & LFS_F_DIRTY) || (f->flags & LFS_F_DUSTY))
 800388e:	6b23      	ldr	r3, [r4, #48]	@ 0x30
 8003890:	f413 3f40 	tst.w	r3, #196608	@ 0x30000
 8003894:	d0f0      	beq.n	8003878 <lfs_fs_traverse_+0xfc>
                && !(f->flags & LFS_F_INLINE)) {
 8003896:	f013 7f80 	tst.w	r3, #16777216	@ 0x1000000
 800389a:	d1ed      	bne.n	8003878 <lfs_fs_traverse_+0xfc>
            int err = lfs_ctz_traverse(lfs, &f->cache, &lfs->rcache,
 800389c:	6aa3      	ldr	r3, [r4, #40]	@ 0x28
 800389e:	9702      	str	r7, [sp, #8]
 80038a0:	9601      	str	r6, [sp, #4]
 80038a2:	6ae2      	ldr	r2, [r4, #44]	@ 0x2c
 80038a4:	9200      	str	r2, [sp, #0]
 80038a6:	462a      	mov	r2, r5
 80038a8:	f104 0140 	add.w	r1, r4, #64	@ 0x40
 80038ac:	4628      	mov	r0, r5
 80038ae:	f7fe ffa7 	bl	8002800 <lfs_ctz_traverse>
            if (err) {
 80038b2:	4602      	mov	r2, r0
 80038b4:	2800      	cmp	r0, #0
 80038b6:	d0df      	beq.n	8003878 <lfs_fs_traverse_+0xfc>
 80038b8:	e00f      	b.n	80038da <lfs_fs_traverse_+0x15e>
                    f->block, f->pos, cb, data);
 80038ba:	6b62      	ldr	r2, [r4, #52]	@ 0x34
            int err = lfs_ctz_traverse(lfs, &f->cache, &lfs->rcache,
 80038bc:	6ba3      	ldr	r3, [r4, #56]	@ 0x38
 80038be:	9702      	str	r7, [sp, #8]
 80038c0:	9601      	str	r6, [sp, #4]
 80038c2:	9200      	str	r2, [sp, #0]
 80038c4:	462a      	mov	r2, r5
 80038c6:	f104 0140 	add.w	r1, r4, #64	@ 0x40
 80038ca:	4628      	mov	r0, r5
 80038cc:	f7fe ff98 	bl	8002800 <lfs_ctz_traverse>
            if (err) {
 80038d0:	4602      	mov	r2, r0
 80038d2:	2800      	cmp	r0, #0
 80038d4:	d0d6      	beq.n	8003884 <lfs_fs_traverse_+0x108>
 80038d6:	e000      	b.n	80038da <lfs_fs_traverse_+0x15e>
    return 0;
 80038d8:	2200      	movs	r2, #0
}
 80038da:	4610      	mov	r0, r2
 80038dc:	b012      	add	sp, #72	@ 0x48
 80038de:	e8bd 87f0 	ldmia.w	sp!, {r4, r5, r6, r7, r8, r9, sl, pc}
            return err;
 80038e2:	4602      	mov	r2, r0
 80038e4:	e7f9      	b.n	80038da <lfs_fs_traverse_+0x15e>
            return LFS_ERR_CORRUPT;
 80038e6:	f06f 0253 	mvn.w	r2, #83	@ 0x53
 80038ea:	e7f6      	b.n	80038da <lfs_fs_traverse_+0x15e>
 80038ec:	08006f18 	.word	0x08006f18
 80038f0:	700ffc00 	.word	0x700ffc00

080038f4 <lfs_alloc_scan>:
static int lfs_alloc_scan(lfs_t *lfs) {
 80038f4:	b538      	push	{r3, r4, r5, lr}
 80038f6:	4604      	mov	r4, r0
    lfs->lookahead.start = (lfs->lookahead.start + lfs->lookahead.next) 
 80038f8:	6d43      	ldr	r3, [r0, #84]	@ 0x54
 80038fa:	6dc2      	ldr	r2, [r0, #92]	@ 0x5c
 80038fc:	4413      	add	r3, r2
            % lfs->block_count;
 80038fe:	6ec2      	ldr	r2, [r0, #108]	@ 0x6c
 8003900:	fbb3 f1f2 	udiv	r1, r3, r2
 8003904:	fb02 3311 	mls	r3, r2, r1, r3
    lfs->lookahead.start = (lfs->lookahead.start + lfs->lookahead.next) 
 8003908:	6543      	str	r3, [r0, #84]	@ 0x54
    lfs->lookahead.next = 0;
 800390a:	2100      	movs	r1, #0
 800390c:	65c1      	str	r1, [r0, #92]	@ 0x5c
            8*lfs->cfg->lookahead_size,
 800390e:	6e82      	ldr	r2, [r0, #104]	@ 0x68
 8003910:	6ad3      	ldr	r3, [r2, #44]	@ 0x2c
 8003912:	00db      	lsls	r3, r3, #3
            lfs->lookahead.ckpoint);
 8003914:	6e00      	ldr	r0, [r0, #96]	@ 0x60
    return (a < b) ? a : b;
 8003916:	4283      	cmp	r3, r0
 8003918:	bf28      	it	cs
 800391a:	4603      	movcs	r3, r0
    lfs->lookahead.size = lfs_min(
 800391c:	65a3      	str	r3, [r4, #88]	@ 0x58
    memset(lfs->lookahead.buffer, 0, lfs->cfg->lookahead_size);
 800391e:	6ad2      	ldr	r2, [r2, #44]	@ 0x2c
 8003920:	6e60      	ldr	r0, [r4, #100]	@ 0x64
 8003922:	f002 fdbf 	bl	80064a4 <memset>
    int err = lfs_fs_traverse_(lfs, lfs_alloc_lookahead, lfs, true);
 8003926:	2301      	movs	r3, #1
 8003928:	4622      	mov	r2, r4
 800392a:	4906      	ldr	r1, [pc, #24]	@ (8003944 <lfs_alloc_scan+0x50>)
 800392c:	4620      	mov	r0, r4
 800392e:	f7ff ff25 	bl	800377c <lfs_fs_traverse_>
    if (err) {
 8003932:	4605      	mov	r5, r0
 8003934:	b908      	cbnz	r0, 800393a <lfs_alloc_scan+0x46>
}
 8003936:	4628      	mov	r0, r5
 8003938:	bd38      	pop	{r3, r4, r5, pc}
        lfs_alloc_drop(lfs);
 800393a:	4620      	mov	r0, r4
 800393c:	f7fe fc1d 	bl	800217a <lfs_alloc_drop>
        return err;
 8003940:	e7f9      	b.n	8003936 <lfs_alloc_scan+0x42>
 8003942:	bf00      	nop
 8003944:	08002189 	.word	0x08002189

08003948 <lfs_alloc>:
static int lfs_alloc(lfs_t *lfs, lfs_block_t *block) {
 8003948:	b530      	push	{r4, r5, lr}
 800394a:	b083      	sub	sp, #12
 800394c:	4604      	mov	r4, r0
 800394e:	460d      	mov	r5, r1
        while (lfs->lookahead.next < lfs->lookahead.size) {
 8003950:	6de3      	ldr	r3, [r4, #92]	@ 0x5c
 8003952:	6da2      	ldr	r2, [r4, #88]	@ 0x58
 8003954:	4293      	cmp	r3, r2
 8003956:	d22b      	bcs.n	80039b0 <lfs_alloc+0x68>
            if (!(lfs->lookahead.buffer[lfs->lookahead.next / 8]
 8003958:	6e61      	ldr	r1, [r4, #100]	@ 0x64
 800395a:	08da      	lsrs	r2, r3, #3
 800395c:	5c8a      	ldrb	r2, [r1, r2]
                    & (1U << (lfs->lookahead.next % 8)))) {
 800395e:	f003 0107 	and.w	r1, r3, #7
            if (!(lfs->lookahead.buffer[lfs->lookahead.next / 8]
 8003962:	40ca      	lsrs	r2, r1
 8003964:	f012 0f01 	tst.w	r2, #1
 8003968:	d005      	beq.n	8003976 <lfs_alloc+0x2e>
            lfs->lookahead.next += 1;
 800396a:	3301      	adds	r3, #1
 800396c:	65e3      	str	r3, [r4, #92]	@ 0x5c
            lfs->lookahead.ckpoint -= 1;
 800396e:	6e23      	ldr	r3, [r4, #96]	@ 0x60
 8003970:	3b01      	subs	r3, #1
 8003972:	6623      	str	r3, [r4, #96]	@ 0x60
 8003974:	e7ec      	b.n	8003950 <lfs_alloc+0x8>
                *block = (lfs->lookahead.start + lfs->lookahead.next)
 8003976:	6d62      	ldr	r2, [r4, #84]	@ 0x54
 8003978:	4413      	add	r3, r2
                        % lfs->block_count;
 800397a:	6ee2      	ldr	r2, [r4, #108]	@ 0x6c
 800397c:	fbb3 f1f2 	udiv	r1, r3, r2
 8003980:	fb02 3311 	mls	r3, r2, r1, r3
                *block = (lfs->lookahead.start + lfs->lookahead.next)
 8003984:	602b      	str	r3, [r5, #0]
                    lfs->lookahead.next += 1;
 8003986:	6de3      	ldr	r3, [r4, #92]	@ 0x5c
 8003988:	3301      	adds	r3, #1
 800398a:	65e3      	str	r3, [r4, #92]	@ 0x5c
                    lfs->lookahead.ckpoint -= 1;
 800398c:	6e22      	ldr	r2, [r4, #96]	@ 0x60
 800398e:	3a01      	subs	r2, #1
 8003990:	6622      	str	r2, [r4, #96]	@ 0x60
                    if (lfs->lookahead.next >= lfs->lookahead.size
 8003992:	6da2      	ldr	r2, [r4, #88]	@ 0x58
 8003994:	4293      	cmp	r3, r2
 8003996:	d225      	bcs.n	80039e4 <lfs_alloc+0x9c>
                            || !(lfs->lookahead.buffer[lfs->lookahead.next / 8]
 8003998:	6e61      	ldr	r1, [r4, #100]	@ 0x64
 800399a:	08da      	lsrs	r2, r3, #3
 800399c:	5c8a      	ldrb	r2, [r1, r2]
                                & (1U << (lfs->lookahead.next % 8)))) {
 800399e:	f003 0307 	and.w	r3, r3, #7
                            || !(lfs->lookahead.buffer[lfs->lookahead.next / 8]
 80039a2:	fa22 f303 	lsr.w	r3, r2, r3
 80039a6:	f013 0f01 	tst.w	r3, #1
 80039aa:	d1ec      	bne.n	8003986 <lfs_alloc+0x3e>
                        return 0;
 80039ac:	2000      	movs	r0, #0
 80039ae:	e01a      	b.n	80039e6 <lfs_alloc+0x9e>
        if (lfs->lookahead.ckpoint <= 0) {
 80039b0:	6e22      	ldr	r2, [r4, #96]	@ 0x60
 80039b2:	b12a      	cbz	r2, 80039c0 <lfs_alloc+0x78>
        int err = lfs_alloc_scan(lfs);
 80039b4:	4620      	mov	r0, r4
 80039b6:	f7ff ff9d 	bl	80038f4 <lfs_alloc_scan>
        if(err) {
 80039ba:	2800      	cmp	r0, #0
 80039bc:	d0c8      	beq.n	8003950 <lfs_alloc+0x8>
 80039be:	e012      	b.n	80039e6 <lfs_alloc+0x9e>
            LFS_ERROR("No more free space 0x%"PRIx32,
 80039c0:	6d62      	ldr	r2, [r4, #84]	@ 0x54
 80039c2:	4413      	add	r3, r2
 80039c4:	6ee2      	ldr	r2, [r4, #108]	@ 0x6c
 80039c6:	fbb3 f1f2 	udiv	r1, r3, r2
 80039ca:	4808      	ldr	r0, [pc, #32]	@ (80039ec <lfs_alloc+0xa4>)
 80039cc:	9000      	str	r0, [sp, #0]
 80039ce:	fb02 3311 	mls	r3, r2, r1, r3
 80039d2:	f240 22be 	movw	r2, #702	@ 0x2be
 80039d6:	4906      	ldr	r1, [pc, #24]	@ (80039f0 <lfs_alloc+0xa8>)
 80039d8:	4806      	ldr	r0, [pc, #24]	@ (80039f4 <lfs_alloc+0xac>)
 80039da:	f002 fc0d 	bl	80061f8 <iprintf>
            return LFS_ERR_NOSPC;
 80039de:	f06f 001b 	mvn.w	r0, #27
 80039e2:	e000      	b.n	80039e6 <lfs_alloc+0x9e>
                        return 0;
 80039e4:	2000      	movs	r0, #0
}
 80039e6:	b003      	add	sp, #12
 80039e8:	bd30      	pop	{r4, r5, pc}
 80039ea:	bf00      	nop
 80039ec:	0800708c 	.word	0x0800708c
 80039f0:	080070fc 	.word	0x080070fc
 80039f4:	080072e0 	.word	0x080072e0

080039f8 <lfs_dir_alloc>:
static int lfs_dir_alloc(lfs_t *lfs, lfs_mdir_t *dir) {
 80039f8:	b570      	push	{r4, r5, r6, lr}
 80039fa:	b084      	sub	sp, #16
 80039fc:	4606      	mov	r6, r0
 80039fe:	460c      	mov	r4, r1
    for (int i = 0; i < 2; i++) {
 8003a00:	2500      	movs	r5, #0
 8003a02:	2d01      	cmp	r5, #1
 8003a04:	dc0d      	bgt.n	8003a22 <lfs_dir_alloc+0x2a>
        int err = lfs_alloc(lfs, &dir->pair[(i+1)%2]);
 8003a06:	3501      	adds	r5, #1
 8003a08:	f005 0101 	and.w	r1, r5, #1
 8003a0c:	bf48      	it	mi
 8003a0e:	4249      	negmi	r1, r1
 8003a10:	eb04 0181 	add.w	r1, r4, r1, lsl #2
 8003a14:	4630      	mov	r0, r6
 8003a16:	f7ff ff97 	bl	8003948 <lfs_alloc>
        if (err) {
 8003a1a:	4603      	mov	r3, r0
 8003a1c:	2800      	cmp	r0, #0
 8003a1e:	d0f0      	beq.n	8003a02 <lfs_dir_alloc+0xa>
 8003a20:	e02c      	b.n	8003a7c <lfs_dir_alloc+0x84>
    dir->rev = 0;
 8003a22:	2100      	movs	r1, #0
 8003a24:	4622      	mov	r2, r4
 8003a26:	f842 1f08 	str.w	r1, [r2, #8]!
    int err = lfs_bd_read(lfs,
 8003a2a:	2304      	movs	r3, #4
 8003a2c:	9303      	str	r3, [sp, #12]
 8003a2e:	9202      	str	r2, [sp, #8]
 8003a30:	9101      	str	r1, [sp, #4]
 8003a32:	6822      	ldr	r2, [r4, #0]
 8003a34:	9200      	str	r2, [sp, #0]
 8003a36:	4632      	mov	r2, r6
 8003a38:	4630      	mov	r0, r6
 8003a3a:	f7fe fcf1 	bl	8002420 <lfs_bd_read>
    dir->rev = lfs_fromle32(dir->rev);
 8003a3e:	68a2      	ldr	r2, [r4, #8]
    if (err && err != LFS_ERR_CORRUPT) {
 8003a40:	4603      	mov	r3, r0
 8003a42:	b110      	cbz	r0, 8003a4a <lfs_dir_alloc+0x52>
 8003a44:	f110 0f54 	cmn.w	r0, #84	@ 0x54
 8003a48:	d118      	bne.n	8003a7c <lfs_dir_alloc+0x84>
    if (lfs->cfg->block_cycles > 0) {
 8003a4a:	6eb3      	ldr	r3, [r6, #104]	@ 0x68
 8003a4c:	6a5b      	ldr	r3, [r3, #36]	@ 0x24
 8003a4e:	2b00      	cmp	r3, #0
 8003a50:	dd09      	ble.n	8003a66 <lfs_dir_alloc+0x6e>
        dir->rev = lfs_alignup(dir->rev, ((lfs->cfg->block_cycles+1)|1));
 8003a52:	3301      	adds	r3, #1
 8003a54:	f043 0101 	orr.w	r1, r3, #1
    return lfs_aligndown(a + alignment-1, alignment);
 8003a58:	1853      	adds	r3, r2, r1
 8003a5a:	3b01      	subs	r3, #1
    return a - (a % alignment);
 8003a5c:	fbb3 f3f1 	udiv	r3, r3, r1
 8003a60:	fb01 f303 	mul.w	r3, r1, r3
 8003a64:	60a3      	str	r3, [r4, #8]
    dir->off = sizeof(dir->rev);
 8003a66:	2304      	movs	r3, #4
 8003a68:	60e3      	str	r3, [r4, #12]
    dir->etag = 0xffffffff;
 8003a6a:	f04f 32ff 	mov.w	r2, #4294967295	@ 0xffffffff
 8003a6e:	6122      	str	r2, [r4, #16]
    dir->count = 0;
 8003a70:	2300      	movs	r3, #0
 8003a72:	82a3      	strh	r3, [r4, #20]
    dir->tail[0] = LFS_BLOCK_NULL;
 8003a74:	61a2      	str	r2, [r4, #24]
    dir->tail[1] = LFS_BLOCK_NULL;
 8003a76:	61e2      	str	r2, [r4, #28]
    dir->erased = false;
 8003a78:	75a3      	strb	r3, [r4, #22]
    dir->split = false;
 8003a7a:	75e3      	strb	r3, [r4, #23]
}
 8003a7c:	4618      	mov	r0, r3
 8003a7e:	b004      	add	sp, #16
 8003a80:	bd70      	pop	{r4, r5, r6, pc}
	...

08003a84 <lfs_file_relocate>:
static int lfs_file_relocate(lfs_t *lfs, lfs_file_t *file) {
 8003a84:	b5f0      	push	{r4, r5, r6, r7, lr}
 8003a86:	b089      	sub	sp, #36	@ 0x24
 8003a88:	4605      	mov	r5, r0
 8003a8a:	460e      	mov	r6, r1
 8003a8c:	e053      	b.n	8003b36 <lfs_file_relocate+0xb2>
                err = lfs_bd_read(lfs,
 8003a8e:	2201      	movs	r2, #1
 8003a90:	9203      	str	r2, [sp, #12]
 8003a92:	f10d 021b 	add.w	r2, sp, #27
 8003a96:	9202      	str	r2, [sp, #8]
 8003a98:	9401      	str	r4, [sp, #4]
 8003a9a:	6bb2      	ldr	r2, [r6, #56]	@ 0x38
 8003a9c:	9200      	str	r2, [sp, #0]
 8003a9e:	1b1b      	subs	r3, r3, r4
 8003aa0:	462a      	mov	r2, r5
 8003aa2:	f106 0140 	add.w	r1, r6, #64	@ 0x40
 8003aa6:	4628      	mov	r0, r5
 8003aa8:	f7fe fcba 	bl	8002420 <lfs_bd_read>
                if (err) {
 8003aac:	2800      	cmp	r0, #0
 8003aae:	d152      	bne.n	8003b56 <lfs_file_relocate+0xd2>
            err = lfs_bd_prog(lfs,
 8003ab0:	2301      	movs	r3, #1
 8003ab2:	9303      	str	r3, [sp, #12]
 8003ab4:	f10d 021b 	add.w	r2, sp, #27
 8003ab8:	9202      	str	r2, [sp, #8]
 8003aba:	9401      	str	r4, [sp, #4]
 8003abc:	9a07      	ldr	r2, [sp, #28]
 8003abe:	9200      	str	r2, [sp, #0]
 8003ac0:	462a      	mov	r2, r5
 8003ac2:	f105 0110 	add.w	r1, r5, #16
 8003ac6:	4628      	mov	r0, r5
 8003ac8:	f7ff f9c6 	bl	8002e58 <lfs_bd_prog>
            if (err) {
 8003acc:	bb20      	cbnz	r0, 8003b18 <lfs_file_relocate+0x94>
        for (lfs_off_t i = 0; i < file->off; i++) {
 8003ace:	3401      	adds	r4, #1
 8003ad0:	6bf3      	ldr	r3, [r6, #60]	@ 0x3c
 8003ad2:	42a3      	cmp	r3, r4
 8003ad4:	d945      	bls.n	8003b62 <lfs_file_relocate+0xde>
            if (file->flags & LFS_F_INLINE) {
 8003ad6:	6b32      	ldr	r2, [r6, #48]	@ 0x30
 8003ad8:	f012 7f80 	tst.w	r2, #16777216	@ 0x1000000
 8003adc:	d0d7      	beq.n	8003a8e <lfs_file_relocate+0xa>
                        NULL, &file->cache, file->off-i,
 8003ade:	1b1b      	subs	r3, r3, r4
                        LFS_MKTAG(LFS_TYPE_INLINESTRUCT, file->id, 0),
 8003ae0:	88b2      	ldrh	r2, [r6, #4]
 8003ae2:	0292      	lsls	r2, r2, #10
 8003ae4:	f042 5200 	orr.w	r2, r2, #536870912	@ 0x20000000
 8003ae8:	f442 1280 	orr.w	r2, r2, #1048576	@ 0x100000
                err = lfs_dir_getread(lfs, &file->m,
 8003aec:	2101      	movs	r1, #1
 8003aee:	9105      	str	r1, [sp, #20]
 8003af0:	f10d 011b 	add.w	r1, sp, #27
 8003af4:	9104      	str	r1, [sp, #16]
 8003af6:	9403      	str	r4, [sp, #12]
 8003af8:	9202      	str	r2, [sp, #8]
 8003afa:	4a27      	ldr	r2, [pc, #156]	@ (8003b98 <lfs_file_relocate+0x114>)
 8003afc:	9201      	str	r2, [sp, #4]
 8003afe:	9300      	str	r3, [sp, #0]
 8003b00:	f106 0340 	add.w	r3, r6, #64	@ 0x40
 8003b04:	2200      	movs	r2, #0
 8003b06:	f106 0108 	add.w	r1, r6, #8
 8003b0a:	4628      	mov	r0, r5
 8003b0c:	f7ff f882 	bl	8002c14 <lfs_dir_getread>
                if (err) {
 8003b10:	2800      	cmp	r0, #0
 8003b12:	d0cd      	beq.n	8003ab0 <lfs_file_relocate+0x2c>
                    return err;
 8003b14:	4607      	mov	r7, r0
 8003b16:	e03b      	b.n	8003b90 <lfs_file_relocate+0x10c>
                if (err == LFS_ERR_CORRUPT) {
 8003b18:	f110 0f54 	cmn.w	r0, #84	@ 0x54
 8003b1c:	d11d      	bne.n	8003b5a <lfs_file_relocate+0xd6>
        LFS_DEBUG("Bad block at 0x%"PRIx32, nblock);
 8003b1e:	4b1f      	ldr	r3, [pc, #124]	@ (8003b9c <lfs_file_relocate+0x118>)
 8003b20:	9300      	str	r3, [sp, #0]
 8003b22:	9b07      	ldr	r3, [sp, #28]
 8003b24:	f640 5203 	movw	r2, #3331	@ 0xd03
 8003b28:	491d      	ldr	r1, [pc, #116]	@ (8003ba0 <lfs_file_relocate+0x11c>)
 8003b2a:	481e      	ldr	r0, [pc, #120]	@ (8003ba4 <lfs_file_relocate+0x120>)
 8003b2c:	f002 fb64 	bl	80061f8 <iprintf>
    rcache->block = LFS_BLOCK_NULL;
 8003b30:	f04f 33ff 	mov.w	r3, #4294967295	@ 0xffffffff
 8003b34:	612b      	str	r3, [r5, #16]
        int err = lfs_alloc(lfs, &nblock);
 8003b36:	a907      	add	r1, sp, #28
 8003b38:	4628      	mov	r0, r5
 8003b3a:	f7ff ff05 	bl	8003948 <lfs_alloc>
        if (err) {
 8003b3e:	4607      	mov	r7, r0
 8003b40:	bb30      	cbnz	r0, 8003b90 <lfs_file_relocate+0x10c>
        err = lfs_bd_erase(lfs, nblock);
 8003b42:	9907      	ldr	r1, [sp, #28]
 8003b44:	4628      	mov	r0, r5
 8003b46:	f7fe fbc7 	bl	80022d8 <lfs_bd_erase>
        if (err) {
 8003b4a:	4607      	mov	r7, r0
 8003b4c:	b138      	cbz	r0, 8003b5e <lfs_file_relocate+0xda>
            if (err == LFS_ERR_CORRUPT) {
 8003b4e:	f110 0f54 	cmn.w	r0, #84	@ 0x54
 8003b52:	d0e4      	beq.n	8003b1e <lfs_file_relocate+0x9a>
 8003b54:	e01c      	b.n	8003b90 <lfs_file_relocate+0x10c>
                    return err;
 8003b56:	4607      	mov	r7, r0
 8003b58:	e01a      	b.n	8003b90 <lfs_file_relocate+0x10c>
                return err;
 8003b5a:	4607      	mov	r7, r0
 8003b5c:	e018      	b.n	8003b90 <lfs_file_relocate+0x10c>
        for (lfs_off_t i = 0; i < file->off; i++) {
 8003b5e:	2400      	movs	r4, #0
 8003b60:	e7b6      	b.n	8003ad0 <lfs_file_relocate+0x4c>
        memcpy(file->cache.buffer, lfs->pcache.buffer, lfs->cfg->cache_size);
 8003b62:	6eab      	ldr	r3, [r5, #104]	@ 0x68
 8003b64:	6a9a      	ldr	r2, [r3, #40]	@ 0x28
 8003b66:	69e9      	ldr	r1, [r5, #28]
 8003b68:	6cf0      	ldr	r0, [r6, #76]	@ 0x4c
 8003b6a:	f002 fd26 	bl	80065ba <memcpy>
        file->cache.block = lfs->pcache.block;
 8003b6e:	692b      	ldr	r3, [r5, #16]
 8003b70:	6433      	str	r3, [r6, #64]	@ 0x40
        file->cache.off = lfs->pcache.off;
 8003b72:	696b      	ldr	r3, [r5, #20]
 8003b74:	6473      	str	r3, [r6, #68]	@ 0x44
        file->cache.size = lfs->pcache.size;
 8003b76:	69ab      	ldr	r3, [r5, #24]
 8003b78:	64b3      	str	r3, [r6, #72]	@ 0x48
        lfs_cache_zero(lfs, &lfs->pcache);
 8003b7a:	f105 0110 	add.w	r1, r5, #16
 8003b7e:	4628      	mov	r0, r5
 8003b80:	f7fe fbfa 	bl	8002378 <lfs_cache_zero>
        file->block = nblock;
 8003b84:	9b07      	ldr	r3, [sp, #28]
 8003b86:	63b3      	str	r3, [r6, #56]	@ 0x38
        file->flags |= LFS_F_WRITING;
 8003b88:	6b33      	ldr	r3, [r6, #48]	@ 0x30
 8003b8a:	f443 2380 	orr.w	r3, r3, #262144	@ 0x40000
 8003b8e:	6333      	str	r3, [r6, #48]	@ 0x30
}
 8003b90:	4638      	mov	r0, r7
 8003b92:	b009      	add	sp, #36	@ 0x24
 8003b94:	bdf0      	pop	{r4, r5, r6, r7, pc}
 8003b96:	bf00      	nop
 8003b98:	fff7fc00 	.word	0xfff7fc00
 8003b9c:	0800708c 	.word	0x0800708c
 8003ba0:	080070fc 	.word	0x080070fc
 8003ba4:	0800730c 	.word	0x0800730c

08003ba8 <lfs_file_outline>:
static int lfs_file_outline(lfs_t *lfs, lfs_file_t *file) {
 8003ba8:	b538      	push	{r3, r4, r5, lr}
 8003baa:	4605      	mov	r5, r0
 8003bac:	460c      	mov	r4, r1
    file->off = file->pos;
 8003bae:	6b4b      	ldr	r3, [r1, #52]	@ 0x34
 8003bb0:	63cb      	str	r3, [r1, #60]	@ 0x3c
    lfs_alloc_ckpoint(lfs);
 8003bb2:	f7fe fadf 	bl	8002174 <lfs_alloc_ckpoint>
    int err = lfs_file_relocate(lfs, file);
 8003bb6:	4621      	mov	r1, r4
 8003bb8:	4628      	mov	r0, r5
 8003bba:	f7ff ff63 	bl	8003a84 <lfs_file_relocate>
    if (err) {
 8003bbe:	b918      	cbnz	r0, 8003bc8 <lfs_file_outline+0x20>
    file->flags &= ~LFS_F_INLINE;
 8003bc0:	6b23      	ldr	r3, [r4, #48]	@ 0x30
 8003bc2:	f023 7380 	bic.w	r3, r3, #16777216	@ 0x1000000
 8003bc6:	6323      	str	r3, [r4, #48]	@ 0x30
}
 8003bc8:	bd38      	pop	{r3, r4, r5, pc}
	...

08003bcc <lfs_ctz_extend>:
        lfs_block_t *block, lfs_off_t *off) {
 8003bcc:	e92d 4ff0 	stmdb	sp!, {r4, r5, r6, r7, r8, r9, sl, fp, lr}
 8003bd0:	b08b      	sub	sp, #44	@ 0x2c
 8003bd2:	4605      	mov	r5, r0
 8003bd4:	460f      	mov	r7, r1
 8003bd6:	4616      	mov	r6, r2
 8003bd8:	9305      	str	r3, [sp, #20]
 8003bda:	e04d      	b.n	8003c78 <lfs_ctz_extend+0xac>
            if (size == 0) {
 8003bdc:	9b14      	ldr	r3, [sp, #80]	@ 0x50
 8003bde:	2b00      	cmp	r3, #0
 8003be0:	d032      	beq.n	8003c48 <lfs_ctz_extend+0x7c>
            lfs_size_t noff = size - 1;
 8003be2:	9b14      	ldr	r3, [sp, #80]	@ 0x50
 8003be4:	3b01      	subs	r3, #1
 8003be6:	9308      	str	r3, [sp, #32]
            lfs_off_t index = lfs_ctz_index(lfs, &noff);
 8003be8:	a908      	add	r1, sp, #32
 8003bea:	4628      	mov	r0, r5
 8003bec:	f7fe fbfa 	bl	80023e4 <lfs_ctz_index>
            noff = noff + 1;
 8003bf0:	9b08      	ldr	r3, [sp, #32]
 8003bf2:	3301      	adds	r3, #1
 8003bf4:	9308      	str	r3, [sp, #32]
            if (noff != lfs->cfg->block_size) {
 8003bf6:	6eaa      	ldr	r2, [r5, #104]	@ 0x68
 8003bf8:	69d2      	ldr	r2, [r2, #28]
 8003bfa:	4293      	cmp	r3, r2
 8003bfc:	d05b      	beq.n	8003cb6 <lfs_ctz_extend+0xea>
                for (lfs_off_t i = 0; i < noff; i++) {
 8003bfe:	2400      	movs	r4, #0
 8003c00:	46b9      	mov	r9, r7
 8003c02:	9f05      	ldr	r7, [sp, #20]
 8003c04:	9b08      	ldr	r3, [sp, #32]
 8003c06:	42a3      	cmp	r3, r4
 8003c08:	d94a      	bls.n	8003ca0 <lfs_ctz_extend+0xd4>
                    err = lfs_bd_read(lfs,
 8003c0a:	2201      	movs	r2, #1
 8003c0c:	9203      	str	r2, [sp, #12]
 8003c0e:	aa09      	add	r2, sp, #36	@ 0x24
 8003c10:	9202      	str	r2, [sp, #8]
 8003c12:	9401      	str	r4, [sp, #4]
 8003c14:	9700      	str	r7, [sp, #0]
 8003c16:	1b1b      	subs	r3, r3, r4
 8003c18:	4632      	mov	r2, r6
 8003c1a:	2100      	movs	r1, #0
 8003c1c:	4628      	mov	r0, r5
 8003c1e:	f7fe fbff 	bl	8002420 <lfs_bd_read>
                    if (err) {
 8003c22:	4603      	mov	r3, r0
 8003c24:	2800      	cmp	r0, #0
 8003c26:	d139      	bne.n	8003c9c <lfs_ctz_extend+0xd0>
                    err = lfs_bd_prog(lfs,
 8003c28:	2301      	movs	r3, #1
 8003c2a:	9303      	str	r3, [sp, #12]
 8003c2c:	aa09      	add	r2, sp, #36	@ 0x24
 8003c2e:	9202      	str	r2, [sp, #8]
 8003c30:	9401      	str	r4, [sp, #4]
 8003c32:	9a07      	ldr	r2, [sp, #28]
 8003c34:	9200      	str	r2, [sp, #0]
 8003c36:	4632      	mov	r2, r6
 8003c38:	4649      	mov	r1, r9
 8003c3a:	4628      	mov	r0, r5
 8003c3c:	f7ff f90c 	bl	8002e58 <lfs_bd_prog>
                    if (err) {
 8003c40:	4603      	mov	r3, r0
 8003c42:	b948      	cbnz	r0, 8003c58 <lfs_ctz_extend+0x8c>
                for (lfs_off_t i = 0; i < noff; i++) {
 8003c44:	3401      	adds	r4, #1
 8003c46:	e7dd      	b.n	8003c04 <lfs_ctz_extend+0x38>
                *block = nblock;
 8003c48:	4682      	mov	sl, r0
 8003c4a:	9b07      	ldr	r3, [sp, #28]
 8003c4c:	9a15      	ldr	r2, [sp, #84]	@ 0x54
 8003c4e:	6013      	str	r3, [r2, #0]
                *off = 0;
 8003c50:	2300      	movs	r3, #0
 8003c52:	9a16      	ldr	r2, [sp, #88]	@ 0x58
 8003c54:	6013      	str	r3, [r2, #0]
                return 0;
 8003c56:	e02a      	b.n	8003cae <lfs_ctz_extend+0xe2>
                        if (err == LFS_ERR_CORRUPT) {
 8003c58:	464f      	mov	r7, r9
 8003c5a:	f110 0f54 	cmn.w	r0, #84	@ 0x54
 8003c5e:	d11d      	bne.n	8003c9c <lfs_ctz_extend+0xd0>
        LFS_DEBUG("Bad block at 0x%"PRIx32, nblock);
 8003c60:	4b36      	ldr	r3, [pc, #216]	@ (8003d3c <lfs_ctz_extend+0x170>)
 8003c62:	9300      	str	r3, [sp, #0]
 8003c64:	9b07      	ldr	r3, [sp, #28]
 8003c66:	f640 32c5 	movw	r2, #3013	@ 0xbc5
 8003c6a:	4935      	ldr	r1, [pc, #212]	@ (8003d40 <lfs_ctz_extend+0x174>)
 8003c6c:	4835      	ldr	r0, [pc, #212]	@ (8003d44 <lfs_ctz_extend+0x178>)
 8003c6e:	f002 fac3 	bl	80061f8 <iprintf>
    rcache->block = LFS_BLOCK_NULL;
 8003c72:	f04f 33ff 	mov.w	r3, #4294967295	@ 0xffffffff
 8003c76:	603b      	str	r3, [r7, #0]
        int err = lfs_alloc(lfs, &nblock);
 8003c78:	a907      	add	r1, sp, #28
 8003c7a:	4628      	mov	r0, r5
 8003c7c:	f7ff fe64 	bl	8003948 <lfs_alloc>
        if (err) {
 8003c80:	2800      	cmp	r0, #0
 8003c82:	d159      	bne.n	8003d38 <lfs_ctz_extend+0x16c>
            err = lfs_bd_erase(lfs, nblock);
 8003c84:	9907      	ldr	r1, [sp, #28]
 8003c86:	4628      	mov	r0, r5
 8003c88:	f7fe fb26 	bl	80022d8 <lfs_bd_erase>
            if (err) {
 8003c8c:	4680      	mov	r8, r0
 8003c8e:	2800      	cmp	r0, #0
 8003c90:	d0a4      	beq.n	8003bdc <lfs_ctz_extend+0x10>
                if (err == LFS_ERR_CORRUPT) {
 8003c92:	f110 0f54 	cmn.w	r0, #84	@ 0x54
 8003c96:	d0e3      	beq.n	8003c60 <lfs_ctz_extend+0x94>
 8003c98:	4682      	mov	sl, r0
 8003c9a:	e008      	b.n	8003cae <lfs_ctz_extend+0xe2>
                        return err;
 8003c9c:	469a      	mov	sl, r3
 8003c9e:	e006      	b.n	8003cae <lfs_ctz_extend+0xe2>
                *block = nblock;
 8003ca0:	46c2      	mov	sl, r8
 8003ca2:	9b07      	ldr	r3, [sp, #28]
 8003ca4:	9a15      	ldr	r2, [sp, #84]	@ 0x54
 8003ca6:	6013      	str	r3, [r2, #0]
                *off = noff;
 8003ca8:	9b08      	ldr	r3, [sp, #32]
 8003caa:	9a16      	ldr	r2, [sp, #88]	@ 0x58
 8003cac:	6013      	str	r3, [r2, #0]
}
 8003cae:	4650      	mov	r0, sl
 8003cb0:	b00b      	add	sp, #44	@ 0x2c
 8003cb2:	e8bd 8ff0 	ldmia.w	sp!, {r4, r5, r6, r7, r8, r9, sl, fp, pc}
            index += 1;
 8003cb6:	3001      	adds	r0, #1
    return __builtin_ctz(a);
 8003cb8:	fa90 f9a0 	rbit	r9, r0
 8003cbc:	fab9 f989 	clz	r9, r9
            lfs_size_t skips = lfs_ctz(index) + 1;
 8003cc0:	f109 0a01 	add.w	sl, r9, #1
            lfs_block_t nhead = head;
 8003cc4:	9b05      	ldr	r3, [sp, #20]
 8003cc6:	9309      	str	r3, [sp, #36]	@ 0x24
            for (lfs_off_t i = 0; i < skips; i++) {
 8003cc8:	2400      	movs	r4, #0
 8003cca:	46ab      	mov	fp, r5
 8003ccc:	e006      	b.n	8003cdc <lfs_ctz_extend+0x110>
                    if (err == LFS_ERR_CORRUPT) {
 8003cce:	465d      	mov	r5, fp
 8003cd0:	f110 0f54 	cmn.w	r0, #84	@ 0x54
 8003cd4:	d0c4      	beq.n	8003c60 <lfs_ctz_extend+0x94>
                    return err;
 8003cd6:	4682      	mov	sl, r0
 8003cd8:	e7e9      	b.n	8003cae <lfs_ctz_extend+0xe2>
            for (lfs_off_t i = 0; i < skips; i++) {
 8003cda:	3401      	adds	r4, #1
 8003cdc:	4554      	cmp	r4, sl
 8003cde:	d221      	bcs.n	8003d24 <lfs_ctz_extend+0x158>
                        nblock, 4*i, &nhead, 4);
 8003ce0:	00a5      	lsls	r5, r4, #2
                err = lfs_bd_prog(lfs, pcache, rcache, true,
 8003ce2:	2304      	movs	r3, #4
 8003ce4:	9303      	str	r3, [sp, #12]
 8003ce6:	ab09      	add	r3, sp, #36	@ 0x24
 8003ce8:	9302      	str	r3, [sp, #8]
 8003cea:	9501      	str	r5, [sp, #4]
 8003cec:	9b07      	ldr	r3, [sp, #28]
 8003cee:	9300      	str	r3, [sp, #0]
 8003cf0:	2301      	movs	r3, #1
 8003cf2:	4632      	mov	r2, r6
 8003cf4:	4639      	mov	r1, r7
 8003cf6:	4658      	mov	r0, fp
 8003cf8:	f7ff f8ae 	bl	8002e58 <lfs_bd_prog>
                nhead = lfs_fromle32(nhead);
 8003cfc:	9a09      	ldr	r2, [sp, #36]	@ 0x24
                if (err) {
 8003cfe:	2800      	cmp	r0, #0
 8003d00:	d1e5      	bne.n	8003cce <lfs_ctz_extend+0x102>
                if (i != skips-1) {
 8003d02:	454c      	cmp	r4, r9
 8003d04:	d0e9      	beq.n	8003cda <lfs_ctz_extend+0x10e>
                    err = lfs_bd_read(lfs,
 8003d06:	2304      	movs	r3, #4
 8003d08:	9303      	str	r3, [sp, #12]
 8003d0a:	a909      	add	r1, sp, #36	@ 0x24
 8003d0c:	9102      	str	r1, [sp, #8]
 8003d0e:	9501      	str	r5, [sp, #4]
 8003d10:	9200      	str	r2, [sp, #0]
 8003d12:	4632      	mov	r2, r6
 8003d14:	2100      	movs	r1, #0
 8003d16:	4658      	mov	r0, fp
 8003d18:	f7fe fb82 	bl	8002420 <lfs_bd_read>
                    if (err) {
 8003d1c:	2800      	cmp	r0, #0
 8003d1e:	d0dc      	beq.n	8003cda <lfs_ctz_extend+0x10e>
                        return err;
 8003d20:	4682      	mov	sl, r0
 8003d22:	e7c4      	b.n	8003cae <lfs_ctz_extend+0xe2>
            *block = nblock;
 8003d24:	46d1      	mov	r9, sl
 8003d26:	46c2      	mov	sl, r8
 8003d28:	9b07      	ldr	r3, [sp, #28]
 8003d2a:	9a15      	ldr	r2, [sp, #84]	@ 0x54
 8003d2c:	6013      	str	r3, [r2, #0]
            *off = 4*skips;
 8003d2e:	ea4f 0189 	mov.w	r1, r9, lsl #2
 8003d32:	9b16      	ldr	r3, [sp, #88]	@ 0x58
 8003d34:	6019      	str	r1, [r3, #0]
            return 0;
 8003d36:	e7ba      	b.n	8003cae <lfs_ctz_extend+0xe2>
 8003d38:	4682      	mov	sl, r0
 8003d3a:	e7b8      	b.n	8003cae <lfs_ctz_extend+0xe2>
 8003d3c:	0800708c 	.word	0x0800708c
 8003d40:	080070fc 	.word	0x080070fc
 8003d44:	0800730c 	.word	0x0800730c

08003d48 <lfs_file_flushedwrite>:
        const void *buffer, lfs_size_t size) {
 8003d48:	e92d 43f0 	stmdb	sp!, {r4, r5, r6, r7, r8, r9, lr}
 8003d4c:	b087      	sub	sp, #28
 8003d4e:	4605      	mov	r5, r0
 8003d50:	460c      	mov	r4, r1
 8003d52:	4617      	mov	r7, r2
 8003d54:	4699      	mov	r9, r3
    if ((file->flags & LFS_F_INLINE) &&
 8003d56:	6b0b      	ldr	r3, [r1, #48]	@ 0x30
 8003d58:	f013 7f80 	tst.w	r3, #16777216	@ 0x1000000
 8003d5c:	d008      	beq.n	8003d70 <lfs_file_flushedwrite+0x28>
            lfs_max(file->pos+nsize, file->ctz.size) > lfs->inline_max) {
 8003d5e:	6b4b      	ldr	r3, [r1, #52]	@ 0x34
 8003d60:	444b      	add	r3, r9
 8003d62:	6aca      	ldr	r2, [r1, #44]	@ 0x2c
    return (a > b) ? a : b;
 8003d64:	4293      	cmp	r3, r2
 8003d66:	bf38      	it	cc
 8003d68:	4613      	movcc	r3, r2
 8003d6a:	6fc2      	ldr	r2, [r0, #124]	@ 0x7c
    if ((file->flags & LFS_F_INLINE) &&
 8003d6c:	429a      	cmp	r2, r3
 8003d6e:	d32d      	bcc.n	8003dcc <lfs_file_flushedwrite+0x84>
        const void *buffer, lfs_size_t size) {
 8003d70:	46c8      	mov	r8, r9
    while (nsize > 0) {
 8003d72:	f1b8 0f00 	cmp.w	r8, #0
 8003d76:	f000 8094 	beq.w	8003ea2 <lfs_file_flushedwrite+0x15a>
        if (!(file->flags & LFS_F_WRITING) ||
 8003d7a:	6b23      	ldr	r3, [r4, #48]	@ 0x30
 8003d7c:	f413 2280 	ands.w	r2, r3, #262144	@ 0x40000
 8003d80:	d004      	beq.n	8003d8c <lfs_file_flushedwrite+0x44>
                file->off == lfs->cfg->block_size) {
 8003d82:	6be0      	ldr	r0, [r4, #60]	@ 0x3c
 8003d84:	6ea9      	ldr	r1, [r5, #104]	@ 0x68
 8003d86:	69c9      	ldr	r1, [r1, #28]
        if (!(file->flags & LFS_F_WRITING) ||
 8003d88:	4288      	cmp	r0, r1
 8003d8a:	d150      	bne.n	8003e2e <lfs_file_flushedwrite+0xe6>
            if (!(file->flags & LFS_F_INLINE)) {
 8003d8c:	f013 7f80 	tst.w	r3, #16777216	@ 0x1000000
 8003d90:	d144      	bne.n	8003e1c <lfs_file_flushedwrite+0xd4>
                if (!(file->flags & LFS_F_WRITING) && file->pos > 0) {
 8003d92:	b90a      	cbnz	r2, 8003d98 <lfs_file_flushedwrite+0x50>
 8003d94:	6b63      	ldr	r3, [r4, #52]	@ 0x34
 8003d96:	bb1b      	cbnz	r3, 8003de0 <lfs_file_flushedwrite+0x98>
                lfs_alloc_ckpoint(lfs);
 8003d98:	4628      	mov	r0, r5
 8003d9a:	f7fe f9eb 	bl	8002174 <lfs_alloc_ckpoint>
                        file->block, file->pos,
 8003d9e:	6b63      	ldr	r3, [r4, #52]	@ 0x34
                int err = lfs_ctz_extend(lfs, &file->cache, &lfs->rcache,
 8003da0:	f104 023c 	add.w	r2, r4, #60	@ 0x3c
 8003da4:	9202      	str	r2, [sp, #8]
 8003da6:	f104 0238 	add.w	r2, r4, #56	@ 0x38
 8003daa:	9201      	str	r2, [sp, #4]
 8003dac:	9300      	str	r3, [sp, #0]
 8003dae:	6ba3      	ldr	r3, [r4, #56]	@ 0x38
 8003db0:	462a      	mov	r2, r5
 8003db2:	f104 0140 	add.w	r1, r4, #64	@ 0x40
 8003db6:	4628      	mov	r0, r5
 8003db8:	f7ff ff08 	bl	8003bcc <lfs_ctz_extend>
                if (err) {
 8003dbc:	4601      	mov	r1, r0
 8003dbe:	2800      	cmp	r0, #0
 8003dc0:	d031      	beq.n	8003e26 <lfs_file_flushedwrite+0xde>
                    file->flags |= LFS_F_ERRED;
 8003dc2:	6b23      	ldr	r3, [r4, #48]	@ 0x30
 8003dc4:	f443 1380 	orr.w	r3, r3, #1048576	@ 0x100000
 8003dc8:	6323      	str	r3, [r4, #48]	@ 0x30
                    return err;
 8003dca:	e059      	b.n	8003e80 <lfs_file_flushedwrite+0x138>
        int err = lfs_file_outline(lfs, file);
 8003dcc:	f7ff feec 	bl	8003ba8 <lfs_file_outline>
        if (err) {
 8003dd0:	4601      	mov	r1, r0
 8003dd2:	2800      	cmp	r0, #0
 8003dd4:	d0cc      	beq.n	8003d70 <lfs_file_flushedwrite+0x28>
            file->flags |= LFS_F_ERRED;
 8003dd6:	6b23      	ldr	r3, [r4, #48]	@ 0x30
 8003dd8:	f443 1380 	orr.w	r3, r3, #1048576	@ 0x100000
 8003ddc:	6323      	str	r3, [r4, #48]	@ 0x30
            return err;
 8003dde:	e04f      	b.n	8003e80 <lfs_file_flushedwrite+0x138>
                    int err = lfs_ctz_find(lfs, NULL, &file->cache,
 8003de0:	f104 0640 	add.w	r6, r4, #64	@ 0x40
 8003de4:	6ae2      	ldr	r2, [r4, #44]	@ 0x2c
                            file->pos-1, &file->block, &(lfs_off_t){0});
 8003de6:	3b01      	subs	r3, #1
 8003de8:	2100      	movs	r1, #0
 8003dea:	9105      	str	r1, [sp, #20]
                    int err = lfs_ctz_find(lfs, NULL, &file->cache,
 8003dec:	a805      	add	r0, sp, #20
 8003dee:	9003      	str	r0, [sp, #12]
 8003df0:	f104 0038 	add.w	r0, r4, #56	@ 0x38
 8003df4:	9002      	str	r0, [sp, #8]
 8003df6:	9301      	str	r3, [sp, #4]
 8003df8:	9200      	str	r2, [sp, #0]
 8003dfa:	6aa3      	ldr	r3, [r4, #40]	@ 0x28
 8003dfc:	4632      	mov	r2, r6
 8003dfe:	4628      	mov	r0, r5
 8003e00:	f7ff f8e1 	bl	8002fc6 <lfs_ctz_find>
                    if (err) {
 8003e04:	4601      	mov	r1, r0
 8003e06:	b920      	cbnz	r0, 8003e12 <lfs_file_flushedwrite+0xca>
                    lfs_cache_zero(lfs, &file->cache);
 8003e08:	4631      	mov	r1, r6
 8003e0a:	4628      	mov	r0, r5
 8003e0c:	f7fe fab4 	bl	8002378 <lfs_cache_zero>
 8003e10:	e7c2      	b.n	8003d98 <lfs_file_flushedwrite+0x50>
                        file->flags |= LFS_F_ERRED;
 8003e12:	6b23      	ldr	r3, [r4, #48]	@ 0x30
 8003e14:	f443 1380 	orr.w	r3, r3, #1048576	@ 0x100000
 8003e18:	6323      	str	r3, [r4, #48]	@ 0x30
                        return err;
 8003e1a:	e031      	b.n	8003e80 <lfs_file_flushedwrite+0x138>
                file->block = LFS_BLOCK_INLINE;
 8003e1c:	f06f 0301 	mvn.w	r3, #1
 8003e20:	63a3      	str	r3, [r4, #56]	@ 0x38
                file->off = file->pos;
 8003e22:	6b63      	ldr	r3, [r4, #52]	@ 0x34
 8003e24:	63e3      	str	r3, [r4, #60]	@ 0x3c
            file->flags |= LFS_F_WRITING;
 8003e26:	6b23      	ldr	r3, [r4, #48]	@ 0x30
 8003e28:	f443 2380 	orr.w	r3, r3, #262144	@ 0x40000
 8003e2c:	6323      	str	r3, [r4, #48]	@ 0x30
        lfs_size_t diff = lfs_min(nsize, lfs->cfg->block_size - file->off);
 8003e2e:	6eab      	ldr	r3, [r5, #104]	@ 0x68
 8003e30:	69de      	ldr	r6, [r3, #28]
 8003e32:	6be3      	ldr	r3, [r4, #60]	@ 0x3c
 8003e34:	1af6      	subs	r6, r6, r3
    return (a < b) ? a : b;
 8003e36:	4546      	cmp	r6, r8
 8003e38:	bf28      	it	cs
 8003e3a:	4646      	movcs	r6, r8
            int err = lfs_bd_prog(lfs, &file->cache, &lfs->rcache, true,
 8003e3c:	9603      	str	r6, [sp, #12]
 8003e3e:	9702      	str	r7, [sp, #8]
 8003e40:	6be3      	ldr	r3, [r4, #60]	@ 0x3c
 8003e42:	9301      	str	r3, [sp, #4]
 8003e44:	6ba3      	ldr	r3, [r4, #56]	@ 0x38
 8003e46:	9300      	str	r3, [sp, #0]
 8003e48:	2301      	movs	r3, #1
 8003e4a:	462a      	mov	r2, r5
 8003e4c:	f104 0140 	add.w	r1, r4, #64	@ 0x40
 8003e50:	4628      	mov	r0, r5
 8003e52:	f7ff f801 	bl	8002e58 <lfs_bd_prog>
            if (err) {
 8003e56:	4601      	mov	r1, r0
 8003e58:	b1b0      	cbz	r0, 8003e88 <lfs_file_flushedwrite+0x140>
                if (err == LFS_ERR_CORRUPT) {
 8003e5a:	f110 0f54 	cmn.w	r0, #84	@ 0x54
 8003e5e:	d10b      	bne.n	8003e78 <lfs_file_flushedwrite+0x130>
            err = lfs_file_relocate(lfs, file);
 8003e60:	4621      	mov	r1, r4
 8003e62:	4628      	mov	r0, r5
 8003e64:	f7ff fe0e 	bl	8003a84 <lfs_file_relocate>
            if (err) {
 8003e68:	4601      	mov	r1, r0
 8003e6a:	2800      	cmp	r0, #0
 8003e6c:	d0e6      	beq.n	8003e3c <lfs_file_flushedwrite+0xf4>
                file->flags |= LFS_F_ERRED;
 8003e6e:	6b23      	ldr	r3, [r4, #48]	@ 0x30
 8003e70:	f443 1380 	orr.w	r3, r3, #1048576	@ 0x100000
 8003e74:	6323      	str	r3, [r4, #48]	@ 0x30
                return err;
 8003e76:	e003      	b.n	8003e80 <lfs_file_flushedwrite+0x138>
                file->flags |= LFS_F_ERRED;
 8003e78:	6b23      	ldr	r3, [r4, #48]	@ 0x30
 8003e7a:	f443 1380 	orr.w	r3, r3, #1048576	@ 0x100000
 8003e7e:	6323      	str	r3, [r4, #48]	@ 0x30
}
 8003e80:	4608      	mov	r0, r1
 8003e82:	b007      	add	sp, #28
 8003e84:	e8bd 83f0 	ldmia.w	sp!, {r4, r5, r6, r7, r8, r9, pc}
        file->pos += diff;
 8003e88:	6b63      	ldr	r3, [r4, #52]	@ 0x34
 8003e8a:	4433      	add	r3, r6
 8003e8c:	6363      	str	r3, [r4, #52]	@ 0x34
        file->off += diff;
 8003e8e:	6be3      	ldr	r3, [r4, #60]	@ 0x3c
 8003e90:	4433      	add	r3, r6
 8003e92:	63e3      	str	r3, [r4, #60]	@ 0x3c
        data += diff;
 8003e94:	4437      	add	r7, r6
        nsize -= diff;
 8003e96:	eba8 0806 	sub.w	r8, r8, r6
        lfs_alloc_ckpoint(lfs);
 8003e9a:	4628      	mov	r0, r5
 8003e9c:	f7fe f96a 	bl	8002174 <lfs_alloc_ckpoint>
 8003ea0:	e767      	b.n	8003d72 <lfs_file_flushedwrite+0x2a>
    return size;
 8003ea2:	4649      	mov	r1, r9
 8003ea4:	e7ec      	b.n	8003e80 <lfs_file_flushedwrite+0x138>
	...

08003ea8 <lfs_file_flush>:
static int lfs_file_flush(lfs_t *lfs, lfs_file_t *file) {
 8003ea8:	b570      	push	{r4, r5, r6, lr}
 8003eaa:	b098      	sub	sp, #96	@ 0x60
 8003eac:	4605      	mov	r5, r0
 8003eae:	460c      	mov	r4, r1
    if (file->flags & LFS_F_READING) {
 8003eb0:	6b0b      	ldr	r3, [r1, #48]	@ 0x30
 8003eb2:	f413 2f00 	tst.w	r3, #524288	@ 0x80000
 8003eb6:	d008      	beq.n	8003eca <lfs_file_flush+0x22>
        if (!(file->flags & LFS_F_INLINE)) {
 8003eb8:	f013 7f80 	tst.w	r3, #16777216	@ 0x1000000
 8003ebc:	d102      	bne.n	8003ec4 <lfs_file_flush+0x1c>
    rcache->block = LFS_BLOCK_NULL;
 8003ebe:	f04f 32ff 	mov.w	r2, #4294967295	@ 0xffffffff
 8003ec2:	640a      	str	r2, [r1, #64]	@ 0x40
        file->flags &= ~LFS_F_READING;
 8003ec4:	f423 2300 	bic.w	r3, r3, #524288	@ 0x80000
 8003ec8:	6323      	str	r3, [r4, #48]	@ 0x30
    if (file->flags & LFS_F_WRITING) {
 8003eca:	6b23      	ldr	r3, [r4, #48]	@ 0x30
 8003ecc:	f413 2f80 	tst.w	r3, #262144	@ 0x40000
 8003ed0:	d068      	beq.n	8003fa4 <lfs_file_flush+0xfc>
        lfs_off_t pos = file->pos;
 8003ed2:	6b66      	ldr	r6, [r4, #52]	@ 0x34
        if (!(file->flags & LFS_F_INLINE)) {
 8003ed4:	f013 7f80 	tst.w	r3, #16777216	@ 0x1000000
 8003ed8:	d151      	bne.n	8003f7e <lfs_file_flush+0xd6>
            lfs_file_t orig = {
 8003eda:	2254      	movs	r2, #84	@ 0x54
 8003edc:	2100      	movs	r1, #0
 8003ede:	a803      	add	r0, sp, #12
 8003ee0:	f002 fae0 	bl	80064a4 <memset>
                .ctz.head = file->ctz.head,
 8003ee4:	6aa3      	ldr	r3, [r4, #40]	@ 0x28
            lfs_file_t orig = {
 8003ee6:	930d      	str	r3, [sp, #52]	@ 0x34
                .ctz.size = file->ctz.size,
 8003ee8:	6ae3      	ldr	r3, [r4, #44]	@ 0x2c
            lfs_file_t orig = {
 8003eea:	930e      	str	r3, [sp, #56]	@ 0x38
 8003eec:	2301      	movs	r3, #1
 8003eee:	930f      	str	r3, [sp, #60]	@ 0x3c
                .pos = file->pos,
 8003ef0:	6b63      	ldr	r3, [r4, #52]	@ 0x34
            lfs_file_t orig = {
 8003ef2:	9310      	str	r3, [sp, #64]	@ 0x40
 8003ef4:	f10d 0c4c 	add.w	ip, sp, #76	@ 0x4c
 8003ef8:	e895 000f 	ldmia.w	r5, {r0, r1, r2, r3}
 8003efc:	e88c 000f 	stmia.w	ip, {r0, r1, r2, r3}
    rcache->block = LFS_BLOCK_NULL;
 8003f00:	f04f 33ff 	mov.w	r3, #4294967295	@ 0xffffffff
 8003f04:	602b      	str	r3, [r5, #0]
            while (file->pos < file->ctz.size) {
 8003f06:	6b62      	ldr	r2, [r4, #52]	@ 0x34
 8003f08:	6ae3      	ldr	r3, [r4, #44]	@ 0x2c
 8003f0a:	429a      	cmp	r2, r3
 8003f0c:	d21a      	bcs.n	8003f44 <lfs_file_flush+0x9c>
                lfs_ssize_t res = lfs_file_flushedread(lfs, &orig, &data, 1);
 8003f0e:	2301      	movs	r3, #1
 8003f10:	f10d 020b 	add.w	r2, sp, #11
 8003f14:	a903      	add	r1, sp, #12
 8003f16:	4628      	mov	r0, r5
 8003f18:	f7ff f89e 	bl	8003058 <lfs_file_flushedread>
                if (res < 0) {
 8003f1c:	1e03      	subs	r3, r0, #0
 8003f1e:	db42      	blt.n	8003fa6 <lfs_file_flush+0xfe>
                res = lfs_file_flushedwrite(lfs, file, &data, 1);
 8003f20:	2301      	movs	r3, #1
 8003f22:	f10d 020b 	add.w	r2, sp, #11
 8003f26:	4621      	mov	r1, r4
 8003f28:	4628      	mov	r0, r5
 8003f2a:	f7ff ff0d 	bl	8003d48 <lfs_file_flushedwrite>
                if (res < 0) {
 8003f2e:	1e03      	subs	r3, r0, #0
 8003f30:	db39      	blt.n	8003fa6 <lfs_file_flush+0xfe>
                if (lfs->rcache.block != LFS_BLOCK_NULL) {
 8003f32:	682b      	ldr	r3, [r5, #0]
 8003f34:	f1b3 3fff 	cmp.w	r3, #4294967295	@ 0xffffffff
 8003f38:	d0e5      	beq.n	8003f06 <lfs_file_flush+0x5e>
    rcache->block = LFS_BLOCK_NULL;
 8003f3a:	f04f 33ff 	mov.w	r3, #4294967295	@ 0xffffffff
 8003f3e:	9313      	str	r3, [sp, #76]	@ 0x4c
 8003f40:	602b      	str	r3, [r5, #0]
}
 8003f42:	e7e0      	b.n	8003f06 <lfs_file_flush+0x5e>
                int err = lfs_bd_flush(lfs, &file->cache, &lfs->rcache, true);
 8003f44:	2301      	movs	r3, #1
 8003f46:	462a      	mov	r2, r5
 8003f48:	f104 0140 	add.w	r1, r4, #64	@ 0x40
 8003f4c:	4628      	mov	r0, r5
 8003f4e:	f7fe ff29 	bl	8002da4 <lfs_bd_flush>
                if (err) {
 8003f52:	4603      	mov	r3, r0
 8003f54:	b1c0      	cbz	r0, 8003f88 <lfs_file_flush+0xe0>
                    if (err == LFS_ERR_CORRUPT) {
 8003f56:	f110 0f54 	cmn.w	r0, #84	@ 0x54
 8003f5a:	d124      	bne.n	8003fa6 <lfs_file_flush+0xfe>
                LFS_DEBUG("Bad block at 0x%"PRIx32, file->block);
 8003f5c:	4b13      	ldr	r3, [pc, #76]	@ (8003fac <lfs_file_flush+0x104>)
 8003f5e:	9300      	str	r3, [sp, #0]
 8003f60:	6ba3      	ldr	r3, [r4, #56]	@ 0x38
 8003f62:	f640 5252 	movw	r2, #3410	@ 0xd52
 8003f66:	4912      	ldr	r1, [pc, #72]	@ (8003fb0 <lfs_file_flush+0x108>)
 8003f68:	4812      	ldr	r0, [pc, #72]	@ (8003fb4 <lfs_file_flush+0x10c>)
 8003f6a:	f002 f945 	bl	80061f8 <iprintf>
                err = lfs_file_relocate(lfs, file);
 8003f6e:	4621      	mov	r1, r4
 8003f70:	4628      	mov	r0, r5
 8003f72:	f7ff fd87 	bl	8003a84 <lfs_file_relocate>
                if (err) {
 8003f76:	4603      	mov	r3, r0
 8003f78:	2800      	cmp	r0, #0
 8003f7a:	d0e3      	beq.n	8003f44 <lfs_file_flush+0x9c>
 8003f7c:	e013      	b.n	8003fa6 <lfs_file_flush+0xfe>
            file->pos = lfs_max(file->pos, file->ctz.size);
 8003f7e:	6ae3      	ldr	r3, [r4, #44]	@ 0x2c
    return (a > b) ? a : b;
 8003f80:	42b3      	cmp	r3, r6
 8003f82:	bf38      	it	cc
 8003f84:	4633      	movcc	r3, r6
 8003f86:	6363      	str	r3, [r4, #52]	@ 0x34
        file->ctz.head = file->block;
 8003f88:	6ba3      	ldr	r3, [r4, #56]	@ 0x38
 8003f8a:	62a3      	str	r3, [r4, #40]	@ 0x28
        file->ctz.size = file->pos;
 8003f8c:	6b63      	ldr	r3, [r4, #52]	@ 0x34
 8003f8e:	62e3      	str	r3, [r4, #44]	@ 0x2c
        file->flags &= ~LFS_F_WRITING;
 8003f90:	6b23      	ldr	r3, [r4, #48]	@ 0x30
 8003f92:	f423 2380 	bic.w	r3, r3, #262144	@ 0x40000
 8003f96:	6323      	str	r3, [r4, #48]	@ 0x30
        file->flags |= LFS_F_DIRTY;
 8003f98:	f443 3380 	orr.w	r3, r3, #65536	@ 0x10000
 8003f9c:	6323      	str	r3, [r4, #48]	@ 0x30
        file->pos = pos;
 8003f9e:	6366      	str	r6, [r4, #52]	@ 0x34
    return 0;
 8003fa0:	2300      	movs	r3, #0
 8003fa2:	e000      	b.n	8003fa6 <lfs_file_flush+0xfe>
 8003fa4:	2300      	movs	r3, #0
}
 8003fa6:	4618      	mov	r0, r3
 8003fa8:	b018      	add	sp, #96	@ 0x60
 8003faa:	bd70      	pop	{r4, r5, r6, pc}
 8003fac:	0800708c 	.word	0x0800708c
 8003fb0:	080070fc 	.word	0x080070fc
 8003fb4:	0800730c 	.word	0x0800730c

08003fb8 <lfs_fs_size_>:

static lfs_ssize_t lfs_fs_size_(lfs_t *lfs) {
 8003fb8:	b500      	push	{lr}
 8003fba:	b083      	sub	sp, #12
    lfs_size_t size = 0;
 8003fbc:	2300      	movs	r3, #0
 8003fbe:	9301      	str	r3, [sp, #4]
    int err = lfs_fs_traverse_(lfs, lfs_fs_size_count, &size, false);
 8003fc0:	aa01      	add	r2, sp, #4
 8003fc2:	4903      	ldr	r1, [pc, #12]	@ (8003fd0 <lfs_fs_size_+0x18>)
 8003fc4:	f7ff fbda 	bl	800377c <lfs_fs_traverse_>
    if (err) {
 8003fc8:	b900      	cbnz	r0, 8003fcc <lfs_fs_size_+0x14>
        return err;
    }

    return size;
 8003fca:	9801      	ldr	r0, [sp, #4]
}
 8003fcc:	b003      	add	sp, #12
 8003fce:	bd00      	pop	{pc}
 8003fd0:	080022cd 	.word	0x080022cd

08003fd4 <lfs_fs_pred>:
        const lfs_block_t pair[2], lfs_mdir_t *pdir) {
 8003fd4:	b570      	push	{r4, r5, r6, lr}
 8003fd6:	b084      	sub	sp, #16
 8003fd8:	4606      	mov	r6, r0
 8003fda:	460d      	mov	r5, r1
 8003fdc:	4614      	mov	r4, r2
    pdir->tail[0] = 0;
 8003fde:	2300      	movs	r3, #0
 8003fe0:	6193      	str	r3, [r2, #24]
    pdir->tail[1] = 1;
 8003fe2:	2301      	movs	r3, #1
 8003fe4:	61d3      	str	r3, [r2, #28]
    struct lfs_tortoise_t tortoise = {
 8003fe6:	4b1d      	ldr	r3, [pc, #116]	@ (800405c <lfs_fs_pred+0x88>)
 8003fe8:	cb0f      	ldmia	r3, {r0, r1, r2, r3}
 8003fea:	f10d 0c10 	add.w	ip, sp, #16
 8003fee:	e90c 000f 	stmdb	ip, {r0, r1, r2, r3}
    return pair[0] == LFS_BLOCK_NULL || pair[1] == LFS_BLOCK_NULL;
 8003ff2:	69a3      	ldr	r3, [r4, #24]
 8003ff4:	f1b3 3fff 	cmp.w	r3, #4294967295	@ 0xffffffff
 8003ff8:	d029      	beq.n	800404e <lfs_fs_pred+0x7a>
 8003ffa:	69e3      	ldr	r3, [r4, #28]
 8003ffc:	f1b3 3fff 	cmp.w	r3, #4294967295	@ 0xffffffff
 8004000:	d029      	beq.n	8004056 <lfs_fs_pred+0x82>
        err = lfs_tortoise_detectcycles(pdir, &tortoise);
 8004002:	4669      	mov	r1, sp
 8004004:	4620      	mov	r0, r4
 8004006:	f7fe f9c3 	bl	8002390 <lfs_tortoise_detectcycles>
        if (err < 0) {
 800400a:	2800      	cmp	r0, #0
 800400c:	db14      	blt.n	8004038 <lfs_fs_pred+0x64>
    return !(paira[0] == pairb[0] || paira[1] == pairb[1] ||
 800400e:	69a3      	ldr	r3, [r4, #24]
 8004010:	682a      	ldr	r2, [r5, #0]
 8004012:	4293      	cmp	r3, r2
 8004014:	d013      	beq.n	800403e <lfs_fs_pred+0x6a>
 8004016:	69e0      	ldr	r0, [r4, #28]
 8004018:	6869      	ldr	r1, [r5, #4]
 800401a:	4288      	cmp	r0, r1
 800401c:	d011      	beq.n	8004042 <lfs_fs_pred+0x6e>
 800401e:	428b      	cmp	r3, r1
 8004020:	d011      	beq.n	8004046 <lfs_fs_pred+0x72>
 8004022:	4282      	cmp	r2, r0
 8004024:	d011      	beq.n	800404a <lfs_fs_pred+0x76>
        int err = lfs_dir_fetch(lfs, pdir, pdir->tail);
 8004026:	f104 0218 	add.w	r2, r4, #24
 800402a:	4621      	mov	r1, r4
 800402c:	4630      	mov	r0, r6
 800402e:	f7ff fb97 	bl	8003760 <lfs_dir_fetch>
        if (err) {
 8004032:	2800      	cmp	r0, #0
 8004034:	d0dd      	beq.n	8003ff2 <lfs_fs_pred+0x1e>
 8004036:	e00c      	b.n	8004052 <lfs_fs_pred+0x7e>
            return LFS_ERR_CORRUPT;
 8004038:	f06f 0053 	mvn.w	r0, #83	@ 0x53
 800403c:	e009      	b.n	8004052 <lfs_fs_pred+0x7e>
            return 0;
 800403e:	2000      	movs	r0, #0
 8004040:	e007      	b.n	8004052 <lfs_fs_pred+0x7e>
 8004042:	2000      	movs	r0, #0
 8004044:	e005      	b.n	8004052 <lfs_fs_pred+0x7e>
 8004046:	2000      	movs	r0, #0
 8004048:	e003      	b.n	8004052 <lfs_fs_pred+0x7e>
 800404a:	2000      	movs	r0, #0
 800404c:	e001      	b.n	8004052 <lfs_fs_pred+0x7e>
    return LFS_ERR_NOENT;
 800404e:	f06f 0001 	mvn.w	r0, #1
}
 8004052:	b004      	add	sp, #16
 8004054:	bd70      	pop	{r4, r5, r6, pc}
    return LFS_ERR_NOENT;
 8004056:	f06f 0001 	mvn.w	r0, #1
 800405a:	e7fa      	b.n	8004052 <lfs_fs_pred+0x7e>
 800405c:	08006f18 	.word	0x08006f18

08004060 <lfs_dir_commitprog>:
        const void *buffer, lfs_size_t size) {
 8004060:	b5f0      	push	{r4, r5, r6, r7, lr}
 8004062:	b085      	sub	sp, #20
 8004064:	460c      	mov	r4, r1
 8004066:	4616      	mov	r6, r2
 8004068:	461d      	mov	r5, r3
    int err = lfs_bd_prog(lfs,
 800406a:	9303      	str	r3, [sp, #12]
 800406c:	9202      	str	r2, [sp, #8]
 800406e:	684b      	ldr	r3, [r1, #4]
 8004070:	9301      	str	r3, [sp, #4]
 8004072:	680b      	ldr	r3, [r1, #0]
 8004074:	9300      	str	r3, [sp, #0]
 8004076:	2300      	movs	r3, #0
 8004078:	4602      	mov	r2, r0
 800407a:	f100 0110 	add.w	r1, r0, #16
 800407e:	f7fe feeb 	bl	8002e58 <lfs_bd_prog>
    if (err) {
 8004082:	4607      	mov	r7, r0
 8004084:	b110      	cbz	r0, 800408c <lfs_dir_commitprog+0x2c>
}
 8004086:	4638      	mov	r0, r7
 8004088:	b005      	add	sp, #20
 800408a:	bdf0      	pop	{r4, r5, r6, r7, pc}
    commit->crc = lfs_crc(commit->crc, buffer, size);
 800408c:	462a      	mov	r2, r5
 800408e:	4631      	mov	r1, r6
 8004090:	68e0      	ldr	r0, [r4, #12]
 8004092:	f001 fc71 	bl	8005978 <lfs_crc>
 8004096:	60e0      	str	r0, [r4, #12]
    commit->off += size;
 8004098:	6863      	ldr	r3, [r4, #4]
 800409a:	442b      	add	r3, r5
 800409c:	6063      	str	r3, [r4, #4]
    return 0;
 800409e:	e7f2      	b.n	8004086 <lfs_dir_commitprog+0x26>

080040a0 <lfs_dir_commitattr>:
        lfs_tag_t tag, const void *buffer) {
 80040a0:	e92d 4ff0 	stmdb	sp!, {r4, r5, r6, r7, r8, r9, sl, fp, lr}
 80040a4:	b087      	sub	sp, #28
 80040a6:	4614      	mov	r4, r2
 80040a8:	461f      	mov	r7, r3
    return ((int32_t)(tag << 22) >> 22) == -1;
 80040aa:	f342 0309 	sbfx	r3, r2, #0, #10
    return sizeof(tag) + lfs_tag_size(tag + lfs_tag_isdelete(tag));
 80040ae:	f1b3 3fff 	cmp.w	r3, #4294967295	@ 0xffffffff
 80040b2:	bf14      	ite	ne
 80040b4:	4690      	movne	r8, r2
 80040b6:	f102 0801 	addeq.w	r8, r2, #1
    return tag & 0x000003ff;
 80040ba:	f3c8 0809 	ubfx	r8, r8, #0, #10
    return sizeof(tag) + lfs_tag_size(tag + lfs_tag_isdelete(tag));
 80040be:	f108 0904 	add.w	r9, r8, #4
    if (commit->off + dsize > commit->end) {
 80040c2:	684b      	ldr	r3, [r1, #4]
 80040c4:	444b      	add	r3, r9
 80040c6:	694a      	ldr	r2, [r1, #20]
 80040c8:	4293      	cmp	r3, r2
 80040ca:	d841      	bhi.n	8004150 <lfs_dir_commitattr+0xb0>
 80040cc:	4605      	mov	r5, r0
 80040ce:	460e      	mov	r6, r1
    lfs_tag_t ntag = lfs_tobe32((tag & 0x7fffffff) ^ commit->ptag);
 80040d0:	f024 4b00 	bic.w	fp, r4, #2147483648	@ 0x80000000
 80040d4:	688b      	ldr	r3, [r1, #8]
 80040d6:	ea8b 0303 	eor.w	r3, fp, r3
    return __builtin_bswap32(a);
 80040da:	ba1b      	rev	r3, r3
 80040dc:	9305      	str	r3, [sp, #20]
    int err = lfs_dir_commitprog(lfs, commit, &ntag, sizeof(ntag));
 80040de:	2304      	movs	r3, #4
 80040e0:	aa05      	add	r2, sp, #20
 80040e2:	f7ff ffbd 	bl	8004060 <lfs_dir_commitprog>
    if (err) {
 80040e6:	4682      	mov	sl, r0
 80040e8:	bb60      	cbnz	r0, 8004144 <lfs_dir_commitattr+0xa4>
    if (!(tag & 0x80000000)) {
 80040ea:	2c00      	cmp	r4, #0
 80040ec:	da21      	bge.n	8004132 <lfs_dir_commitattr+0x92>
        for (lfs_off_t i = 0; i < dsize-sizeof(tag); i++) {
 80040ee:	2400      	movs	r4, #0
 80040f0:	4544      	cmp	r4, r8
 80040f2:	d225      	bcs.n	8004140 <lfs_dir_commitattr+0xa0>
                    NULL, &lfs->rcache, dsize-sizeof(tag)-i,
 80040f4:	eba9 0304 	sub.w	r3, r9, r4
                    disk->block, disk->off+i, &dat, 1);
 80040f8:	6839      	ldr	r1, [r7, #0]
 80040fa:	687a      	ldr	r2, [r7, #4]
            err = lfs_bd_read(lfs,
 80040fc:	2001      	movs	r0, #1
 80040fe:	9003      	str	r0, [sp, #12]
 8004100:	f10d 0013 	add.w	r0, sp, #19
 8004104:	9002      	str	r0, [sp, #8]
 8004106:	4422      	add	r2, r4
 8004108:	9201      	str	r2, [sp, #4]
 800410a:	9100      	str	r1, [sp, #0]
 800410c:	3b04      	subs	r3, #4
 800410e:	462a      	mov	r2, r5
 8004110:	2100      	movs	r1, #0
 8004112:	4628      	mov	r0, r5
 8004114:	f7fe f984 	bl	8002420 <lfs_bd_read>
            if (err) {
 8004118:	4603      	mov	r3, r0
 800411a:	b9b8      	cbnz	r0, 800414c <lfs_dir_commitattr+0xac>
            err = lfs_dir_commitprog(lfs, commit, &dat, 1);
 800411c:	2301      	movs	r3, #1
 800411e:	f10d 0213 	add.w	r2, sp, #19
 8004122:	4631      	mov	r1, r6
 8004124:	4628      	mov	r0, r5
 8004126:	f7ff ff9b 	bl	8004060 <lfs_dir_commitprog>
            if (err) {
 800412a:	4603      	mov	r3, r0
 800412c:	b970      	cbnz	r0, 800414c <lfs_dir_commitattr+0xac>
        for (lfs_off_t i = 0; i < dsize-sizeof(tag); i++) {
 800412e:	3401      	adds	r4, #1
 8004130:	e7de      	b.n	80040f0 <lfs_dir_commitattr+0x50>
        err = lfs_dir_commitprog(lfs, commit, buffer, dsize-sizeof(tag));
 8004132:	4643      	mov	r3, r8
 8004134:	463a      	mov	r2, r7
 8004136:	4631      	mov	r1, r6
 8004138:	4628      	mov	r0, r5
 800413a:	f7ff ff91 	bl	8004060 <lfs_dir_commitprog>
        if (err) {
 800413e:	b950      	cbnz	r0, 8004156 <lfs_dir_commitattr+0xb6>
    commit->ptag = tag & 0x7fffffff;
 8004140:	f8c6 b008 	str.w	fp, [r6, #8]
}
 8004144:	4650      	mov	r0, sl
 8004146:	b007      	add	sp, #28
 8004148:	e8bd 8ff0 	ldmia.w	sp!, {r4, r5, r6, r7, r8, r9, sl, fp, pc}
                return err;
 800414c:	469a      	mov	sl, r3
 800414e:	e7f9      	b.n	8004144 <lfs_dir_commitattr+0xa4>
        return LFS_ERR_NOSPC;
 8004150:	f06f 0a1b 	mvn.w	sl, #27
 8004154:	e7f6      	b.n	8004144 <lfs_dir_commitattr+0xa4>
            return err;
 8004156:	4682      	mov	sl, r0
 8004158:	e7f4      	b.n	8004144 <lfs_dir_commitattr+0xa4>

0800415a <lfs_dir_commit_commit>:
static int lfs_dir_commit_commit(void *p, lfs_tag_t tag, const void *buffer) {
 800415a:	b508      	push	{r3, lr}
 800415c:	4613      	mov	r3, r2
    return lfs_dir_commitattr(commit->lfs, commit->commit, tag, buffer);
 800415e:	460a      	mov	r2, r1
 8004160:	6841      	ldr	r1, [r0, #4]
 8004162:	6800      	ldr	r0, [r0, #0]
 8004164:	f7ff ff9c 	bl	80040a0 <lfs_dir_commitattr>
}
 8004168:	bd08      	pop	{r3, pc}
	...

0800416c <lfs_dir_commitcrc>:
static int lfs_dir_commitcrc(lfs_t *lfs, struct lfs_commit *commit) {
 800416c:	e92d 4ff0 	stmdb	sp!, {r4, r5, r6, r7, r8, r9, sl, fp, lr}
 8004170:	b08b      	sub	sp, #44	@ 0x2c
 8004172:	4607      	mov	r7, r0
 8004174:	460e      	mov	r6, r1
            lfs_min(commit->off + 5*sizeof(uint32_t), lfs->cfg->block_size),
 8004176:	684b      	ldr	r3, [r1, #4]
 8004178:	f103 0214 	add.w	r2, r3, #20
 800417c:	6e83      	ldr	r3, [r0, #104]	@ 0x68
 800417e:	69d9      	ldr	r1, [r3, #28]
            lfs->cfg->prog_size);
 8004180:	699b      	ldr	r3, [r3, #24]
    return lfs_aligndown(a + alignment-1, alignment);
 8004182:	428a      	cmp	r2, r1
 8004184:	bf94      	ite	ls
 8004186:	eb03 0802 	addls.w	r8, r3, r2
 800418a:	eb03 0801 	addhi.w	r8, r3, r1
 800418e:	f108 38ff 	add.w	r8, r8, #4294967295	@ 0xffffffff
    return a - (a % alignment);
 8004192:	fbb8 f8f3 	udiv	r8, r8, r3
 8004196:	fb03 f808 	mul.w	r8, r3, r8
    uint32_t crc1 = 0;
 800419a:	2300      	movs	r3, #0
 800419c:	9305      	str	r3, [sp, #20]
    lfs_off_t off1 = 0;
 800419e:	469b      	mov	fp, r3
    while (commit->off < end) {
 80041a0:	e03c      	b.n	800421c <lfs_dir_commitcrc+0xb0>
            int err = lfs_bd_read(lfs,
 80041a2:	2201      	movs	r2, #1
 80041a4:	9203      	str	r2, [sp, #12]
 80041a6:	f10d 021b 	add.w	r2, sp, #27
 80041aa:	9202      	str	r2, [sp, #8]
 80041ac:	9401      	str	r4, [sp, #4]
 80041ae:	6832      	ldr	r2, [r6, #0]
 80041b0:	9200      	str	r2, [sp, #0]
 80041b2:	463a      	mov	r2, r7
 80041b4:	2100      	movs	r1, #0
 80041b6:	4638      	mov	r0, r7
 80041b8:	f7fe f932 	bl	8002420 <lfs_bd_read>
            if (err && err != LFS_ERR_CORRUPT) {
 80041bc:	4603      	mov	r3, r0
 80041be:	b118      	cbz	r0, 80041c8 <lfs_dir_commitcrc+0x5c>
 80041c0:	f110 0f54 	cmn.w	r0, #84	@ 0x54
 80041c4:	f040 80c0 	bne.w	8004348 <lfs_dir_commitcrc+0x1dc>
                    .size = lfs->cfg->prog_size,
 80041c8:	6ebb      	ldr	r3, [r7, #104]	@ 0x68
 80041ca:	699b      	ldr	r3, [r3, #24]
                struct lfs_fcrc fcrc = {
 80041cc:	9307      	str	r3, [sp, #28]
 80041ce:	f04f 32ff 	mov.w	r2, #4294967295	@ 0xffffffff
 80041d2:	9208      	str	r2, [sp, #32]
                err = lfs_bd_crc(lfs,
 80041d4:	aa08      	add	r2, sp, #32
 80041d6:	9203      	str	r2, [sp, #12]
 80041d8:	9302      	str	r3, [sp, #8]
 80041da:	9401      	str	r4, [sp, #4]
 80041dc:	6832      	ldr	r2, [r6, #0]
 80041de:	9200      	str	r2, [sp, #0]
 80041e0:	463a      	mov	r2, r7
 80041e2:	2100      	movs	r1, #0
 80041e4:	4638      	mov	r0, r7
 80041e6:	f7fe ffbb 	bl	8003160 <lfs_bd_crc>
                if (err && err != LFS_ERR_CORRUPT) {
 80041ea:	4603      	mov	r3, r0
 80041ec:	b118      	cbz	r0, 80041f6 <lfs_dir_commitcrc+0x8a>
 80041ee:	f110 0f54 	cmn.w	r0, #84	@ 0x54
 80041f2:	f040 80a9 	bne.w	8004348 <lfs_dir_commitcrc+0x1dc>
                err = lfs_dir_commitattr(lfs, commit,
 80041f6:	ab07      	add	r3, sp, #28
 80041f8:	4a58      	ldr	r2, [pc, #352]	@ (800435c <lfs_dir_commitcrc+0x1f0>)
 80041fa:	4631      	mov	r1, r6
 80041fc:	4638      	mov	r0, r7
 80041fe:	f7ff ff4f 	bl	80040a0 <lfs_dir_commitattr>
                if (err) {
 8004202:	4603      	mov	r3, r0
 8004204:	b348      	cbz	r0, 800425a <lfs_dir_commitcrc+0xee>
 8004206:	e09f      	b.n	8004348 <lfs_dir_commitcrc+0x1dc>
            int err = lfs_bd_sync(lfs, &lfs->pcache, &lfs->rcache, false);
 8004208:	2300      	movs	r3, #0
 800420a:	463a      	mov	r2, r7
 800420c:	4651      	mov	r1, sl
 800420e:	4638      	mov	r0, r7
 8004210:	f7fe fe9c 	bl	8002f4c <lfs_bd_sync>
            if (err) {
 8004214:	4603      	mov	r3, r0
 8004216:	2800      	cmp	r0, #0
 8004218:	f040 8096 	bne.w	8004348 <lfs_dir_commitcrc+0x1dc>
    while (commit->off < end) {
 800421c:	6874      	ldr	r4, [r6, #4]
 800421e:	4544      	cmp	r4, r8
 8004220:	d268      	bcs.n	80042f4 <lfs_dir_commitcrc+0x188>
                lfs_min(end - (commit->off+sizeof(lfs_tag_t)), 0x3fe)
 8004222:	eba8 0304 	sub.w	r3, r8, r4
 8004226:	3b04      	subs	r3, #4
                + (commit->off+sizeof(lfs_tag_t)));
 8004228:	f240 32fe 	movw	r2, #1022	@ 0x3fe
 800422c:	4293      	cmp	r3, r2
 800422e:	bf94      	ite	ls
 8004230:	18e4      	addls	r4, r4, r3
 8004232:	18a4      	addhi	r4, r4, r2
        lfs_off_t noff = (
 8004234:	3404      	adds	r4, #4
        if (noff < end) {
 8004236:	4544      	cmp	r4, r8
 8004238:	d204      	bcs.n	8004244 <lfs_dir_commitcrc+0xd8>
            noff = lfs_min(noff, end - 5*sizeof(uint32_t));
 800423a:	f1a8 0314 	sub.w	r3, r8, #20
    return (a < b) ? a : b;
 800423e:	429c      	cmp	r4, r3
 8004240:	bf28      	it	cs
 8004242:	461c      	movcs	r4, r3
        uint8_t eperturb = (uint8_t)-1;
 8004244:	23ff      	movs	r3, #255	@ 0xff
 8004246:	f88d 301b 	strb.w	r3, [sp, #27]
        if (noff >= end && noff <= lfs->cfg->block_size - lfs->cfg->prog_size) {
 800424a:	4544      	cmp	r4, r8
 800424c:	d305      	bcc.n	800425a <lfs_dir_commitcrc+0xee>
 800424e:	6ebb      	ldr	r3, [r7, #104]	@ 0x68
 8004250:	69da      	ldr	r2, [r3, #28]
 8004252:	699b      	ldr	r3, [r3, #24]
 8004254:	1ad2      	subs	r2, r2, r3
 8004256:	42a2      	cmp	r2, r4
 8004258:	d2a3      	bcs.n	80041a2 <lfs_dir_commitcrc+0x36>
        lfs_tag_t ntag = LFS_MKTAG(
 800425a:	f89d 201b 	ldrb.w	r2, [sp, #27]
 800425e:	43d2      	mvns	r2, r2
 8004260:	f3c2 12c0 	ubfx	r2, r2, #7, #1
 8004264:	f502 62a0 	add.w	r2, r2, #1280	@ 0x500
 8004268:	6873      	ldr	r3, [r6, #4]
 800426a:	1ae5      	subs	r5, r4, r3
 800426c:	3d04      	subs	r5, #4
 800426e:	ea45 5502 	orr.w	r5, r5, r2, lsl #20
 8004272:	f445 257f 	orr.w	r5, r5, #1044480	@ 0xff000
 8004276:	f445 6540 	orr.w	r5, r5, #3072	@ 0xc00
        ccrc.tag = lfs_tobe32(ntag ^ commit->ptag);
 800427a:	68b3      	ldr	r3, [r6, #8]
 800427c:	406b      	eors	r3, r5
    return __builtin_bswap32(a);
 800427e:	ba1b      	rev	r3, r3
 8004280:	9307      	str	r3, [sp, #28]
        commit->crc = lfs_crc(commit->crc, &ccrc.tag, sizeof(lfs_tag_t));
 8004282:	f10d 091c 	add.w	r9, sp, #28
 8004286:	2204      	movs	r2, #4
 8004288:	4649      	mov	r1, r9
 800428a:	68f0      	ldr	r0, [r6, #12]
 800428c:	f001 fb74 	bl	8005978 <lfs_crc>
 8004290:	60f0      	str	r0, [r6, #12]
        ccrc.crc = lfs_tole32(commit->crc);
 8004292:	9008      	str	r0, [sp, #32]
        int err = lfs_bd_prog(lfs,
 8004294:	f107 0a10 	add.w	sl, r7, #16
 8004298:	2308      	movs	r3, #8
 800429a:	9303      	str	r3, [sp, #12]
 800429c:	f8cd 9008 	str.w	r9, [sp, #8]
 80042a0:	6873      	ldr	r3, [r6, #4]
 80042a2:	9301      	str	r3, [sp, #4]
 80042a4:	6833      	ldr	r3, [r6, #0]
 80042a6:	9300      	str	r3, [sp, #0]
 80042a8:	2300      	movs	r3, #0
 80042aa:	463a      	mov	r2, r7
 80042ac:	4651      	mov	r1, sl
 80042ae:	4638      	mov	r0, r7
 80042b0:	f7fe fdd2 	bl	8002e58 <lfs_bd_prog>
        if (err) {
 80042b4:	4603      	mov	r3, r0
 80042b6:	2800      	cmp	r0, #0
 80042b8:	d146      	bne.n	8004348 <lfs_dir_commitcrc+0x1dc>
        if (off1 == 0) {
 80042ba:	f1bb 0f00 	cmp.w	fp, #0
 80042be:	d104      	bne.n	80042ca <lfs_dir_commitcrc+0x15e>
            off1 = commit->off + sizeof(lfs_tag_t);
 80042c0:	6873      	ldr	r3, [r6, #4]
 80042c2:	f103 0b04 	add.w	fp, r3, #4
            crc1 = commit->crc;
 80042c6:	68f3      	ldr	r3, [r6, #12]
 80042c8:	9305      	str	r3, [sp, #20]
        commit->off = noff;
 80042ca:	6074      	str	r4, [r6, #4]
        commit->ptag = ntag ^ ((lfs_tag_t)(0x80 & ~eperturb) << 24);
 80042cc:	f89d 301b 	ldrb.w	r3, [sp, #27]
 80042d0:	43db      	mvns	r3, r3
 80042d2:	061b      	lsls	r3, r3, #24
 80042d4:	f003 4300 	and.w	r3, r3, #2147483648	@ 0x80000000
 80042d8:	406b      	eors	r3, r5
 80042da:	60b3      	str	r3, [r6, #8]
        commit->crc = 0xffffffff;
 80042dc:	f04f 33ff 	mov.w	r3, #4294967295	@ 0xffffffff
 80042e0:	60f3      	str	r3, [r6, #12]
        if (noff >= end || noff >= lfs->pcache.off + lfs->cfg->cache_size) {
 80042e2:	4544      	cmp	r4, r8
 80042e4:	d290      	bcs.n	8004208 <lfs_dir_commitcrc+0x9c>
 80042e6:	697b      	ldr	r3, [r7, #20]
 80042e8:	6eba      	ldr	r2, [r7, #104]	@ 0x68
 80042ea:	6a92      	ldr	r2, [r2, #40]	@ 0x28
 80042ec:	4413      	add	r3, r2
 80042ee:	42a3      	cmp	r3, r4
 80042f0:	d894      	bhi.n	800421c <lfs_dir_commitcrc+0xb0>
 80042f2:	e789      	b.n	8004208 <lfs_dir_commitcrc+0x9c>
    lfs_off_t off = commit->begin;
 80042f4:	6933      	ldr	r3, [r6, #16]
    uint32_t crc = 0xffffffff;
 80042f6:	f04f 32ff 	mov.w	r2, #4294967295	@ 0xffffffff
 80042fa:	9209      	str	r2, [sp, #36]	@ 0x24
            commit->block, off, off1-off, &crc);
 80042fc:	ebab 0203 	sub.w	r2, fp, r3
    int err = lfs_bd_crc(lfs,
 8004300:	a909      	add	r1, sp, #36	@ 0x24
 8004302:	9103      	str	r1, [sp, #12]
 8004304:	9202      	str	r2, [sp, #8]
 8004306:	9301      	str	r3, [sp, #4]
 8004308:	6833      	ldr	r3, [r6, #0]
 800430a:	9300      	str	r3, [sp, #0]
 800430c:	f10b 0304 	add.w	r3, fp, #4
 8004310:	463a      	mov	r2, r7
 8004312:	2100      	movs	r1, #0
 8004314:	4638      	mov	r0, r7
 8004316:	f7fe ff23 	bl	8003160 <lfs_bd_crc>
    if (err) {
 800431a:	4603      	mov	r3, r0
 800431c:	b9a0      	cbnz	r0, 8004348 <lfs_dir_commitcrc+0x1dc>
    if (crc != crc1) {
 800431e:	9b09      	ldr	r3, [sp, #36]	@ 0x24
 8004320:	9a05      	ldr	r2, [sp, #20]
 8004322:	4293      	cmp	r3, r2
 8004324:	d114      	bne.n	8004350 <lfs_dir_commitcrc+0x1e4>
    err = lfs_bd_crc(lfs,
 8004326:	ab09      	add	r3, sp, #36	@ 0x24
 8004328:	9303      	str	r3, [sp, #12]
 800432a:	2304      	movs	r3, #4
 800432c:	9302      	str	r3, [sp, #8]
 800432e:	f8cd b004 	str.w	fp, [sp, #4]
 8004332:	6832      	ldr	r2, [r6, #0]
 8004334:	9200      	str	r2, [sp, #0]
 8004336:	463a      	mov	r2, r7
 8004338:	2100      	movs	r1, #0
 800433a:	4638      	mov	r0, r7
 800433c:	f7fe ff10 	bl	8003160 <lfs_bd_crc>
    if (err) {
 8004340:	4603      	mov	r3, r0
 8004342:	b908      	cbnz	r0, 8004348 <lfs_dir_commitcrc+0x1dc>
    if (crc != 0) {
 8004344:	9a09      	ldr	r2, [sp, #36]	@ 0x24
 8004346:	b932      	cbnz	r2, 8004356 <lfs_dir_commitcrc+0x1ea>
}
 8004348:	4618      	mov	r0, r3
 800434a:	b00b      	add	sp, #44	@ 0x2c
 800434c:	e8bd 8ff0 	ldmia.w	sp!, {r4, r5, r6, r7, r8, r9, sl, fp, pc}
        return LFS_ERR_CORRUPT;
 8004350:	f06f 0353 	mvn.w	r3, #83	@ 0x53
 8004354:	e7f8      	b.n	8004348 <lfs_dir_commitcrc+0x1dc>
        return LFS_ERR_CORRUPT;
 8004356:	f06f 0353 	mvn.w	r3, #83	@ 0x53
 800435a:	e7f5      	b.n	8004348 <lfs_dir_commitcrc+0x1dc>
 800435c:	5ffffc08 	.word	0x5ffffc08

08004360 <lfs_dir_compact>:
        lfs_mdir_t *source, uint16_t begin, uint16_t end) {
 8004360:	e92d 4ff0 	stmdb	sp!, {r4, r5, r6, r7, r8, r9, sl, fp, lr}
 8004364:	b09b      	sub	sp, #108	@ 0x6c
 8004366:	4605      	mov	r5, r0
 8004368:	460c      	mov	r4, r1
 800436a:	4616      	mov	r6, r2
 800436c:	461f      	mov	r7, r3
 800436e:	f8bd 8094 	ldrh.w	r8, [sp, #148]	@ 0x94
 8004372:	f8bd a098 	ldrh.w	sl, [sp, #152]	@ 0x98
    bool tired = lfs_dir_needsrelocation(lfs, dir);
 8004376:	f7fd ff6f 	bl	8002258 <lfs_dir_needsrelocation>
    dir->rev += 1;
 800437a:	68a3      	ldr	r3, [r4, #8]
 800437c:	3301      	adds	r3, #1
 800437e:	60a3      	str	r3, [r4, #8]
    if (tired && lfs_pair_cmp(dir->pair, (const lfs_block_t[2]){0, 1}) != 0) {
 8004380:	4681      	mov	r9, r0
 8004382:	2800      	cmp	r0, #0
 8004384:	d034      	beq.n	80043f0 <lfs_dir_compact+0x90>
 8004386:	2300      	movs	r3, #0
 8004388:	9314      	str	r3, [sp, #80]	@ 0x50
 800438a:	2301      	movs	r3, #1
 800438c:	9315      	str	r3, [sp, #84]	@ 0x54
    return !(paira[0] == pairb[0] || paira[1] == pairb[1] ||
 800438e:	6823      	ldr	r3, [r4, #0]
 8004390:	b373      	cbz	r3, 80043f0 <lfs_dir_compact+0x90>
 8004392:	6862      	ldr	r2, [r4, #4]
 8004394:	2a01      	cmp	r2, #1
 8004396:	d02b      	beq.n	80043f0 <lfs_dir_compact+0x90>
 8004398:	2b01      	cmp	r3, #1
 800439a:	d029      	beq.n	80043f0 <lfs_dir_compact+0x90>
 800439c:	b342      	cbz	r2, 80043f0 <lfs_dir_compact+0x90>
    rcache->block = LFS_BLOCK_NULL;
 800439e:	f04f 33ff 	mov.w	r3, #4294967295	@ 0xffffffff
 80043a2:	612b      	str	r3, [r5, #16]
        if (!tired) {
 80043a4:	f1b9 0f00 	cmp.w	r9, #0
 80043a8:	f000 8106 	beq.w	80045b8 <lfs_dir_compact+0x258>
        if (lfs_pair_cmp(dir->pair, (const lfs_block_t[2]){0, 1}) == 0) {
 80043ac:	2300      	movs	r3, #0
 80043ae:	9318      	str	r3, [sp, #96]	@ 0x60
 80043b0:	2301      	movs	r3, #1
 80043b2:	9319      	str	r3, [sp, #100]	@ 0x64
    return !(paira[0] == pairb[0] || paira[1] == pairb[1] ||
 80043b4:	6823      	ldr	r3, [r4, #0]
 80043b6:	2b00      	cmp	r3, #0
 80043b8:	f000 8108 	beq.w	80045cc <lfs_dir_compact+0x26c>
 80043bc:	6862      	ldr	r2, [r4, #4]
 80043be:	2a01      	cmp	r2, #1
 80043c0:	f000 8104 	beq.w	80045cc <lfs_dir_compact+0x26c>
 80043c4:	2b01      	cmp	r3, #1
 80043c6:	f000 8101 	beq.w	80045cc <lfs_dir_compact+0x26c>
 80043ca:	2a00      	cmp	r2, #0
 80043cc:	f000 80fe 	beq.w	80045cc <lfs_dir_compact+0x26c>
        int err = lfs_alloc(lfs, &dir->pair[1]);
 80043d0:	1d21      	adds	r1, r4, #4
 80043d2:	4628      	mov	r0, r5
 80043d4:	f7ff fab8 	bl	8003948 <lfs_alloc>
        if (err && (err != LFS_ERR_NOSPC || !tired)) {
 80043d8:	4603      	mov	r3, r0
 80043da:	b330      	cbz	r0, 800442a <lfs_dir_compact+0xca>
 80043dc:	f110 0f1c 	cmn.w	r0, #28
 80043e0:	d11f      	bne.n	8004422 <lfs_dir_compact+0xc2>
 80043e2:	f1b9 0f00 	cmp.w	r9, #0
 80043e6:	d01c      	beq.n	8004422 <lfs_dir_compact+0xc2>
        relocated = true;
 80043e8:	46cb      	mov	fp, r9
        tired = false;
 80043ea:	f04f 0900 	mov.w	r9, #0
 80043ee:	e001      	b.n	80043f4 <lfs_dir_compact+0x94>
    bool relocated = false;
 80043f0:	f04f 0b00 	mov.w	fp, #0
                .block = dir->pair[1],
 80043f4:	6863      	ldr	r3, [r4, #4]
            struct lfs_commit commit = {
 80043f6:	930e      	str	r3, [sp, #56]	@ 0x38
 80043f8:	2300      	movs	r3, #0
 80043fa:	930f      	str	r3, [sp, #60]	@ 0x3c
 80043fc:	f04f 32ff 	mov.w	r2, #4294967295	@ 0xffffffff
 8004400:	9210      	str	r2, [sp, #64]	@ 0x40
 8004402:	9211      	str	r2, [sp, #68]	@ 0x44
 8004404:	9312      	str	r3, [sp, #72]	@ 0x48
                .end = (lfs->cfg->metadata_max ?
 8004406:	6eaa      	ldr	r2, [r5, #104]	@ 0x68
 8004408:	6cd3      	ldr	r3, [r2, #76]	@ 0x4c
                    lfs->cfg->metadata_max : lfs->cfg->block_size) - 8,
 800440a:	b19b      	cbz	r3, 8004434 <lfs_dir_compact+0xd4>
 800440c:	3b08      	subs	r3, #8
            struct lfs_commit commit = {
 800440e:	9313      	str	r3, [sp, #76]	@ 0x4c
            int err = lfs_bd_erase(lfs, dir->pair[1]);
 8004410:	6861      	ldr	r1, [r4, #4]
 8004412:	4628      	mov	r0, r5
 8004414:	f7fd ff60 	bl	80022d8 <lfs_bd_erase>
            if (err) {
 8004418:	4603      	mov	r3, r0
 800441a:	b170      	cbz	r0, 800443a <lfs_dir_compact+0xda>
                if (err == LFS_ERR_CORRUPT) {
 800441c:	f110 0f54 	cmn.w	r0, #84	@ 0x54
 8004420:	d0bd      	beq.n	800439e <lfs_dir_compact+0x3e>
}
 8004422:	4618      	mov	r0, r3
 8004424:	b01b      	add	sp, #108	@ 0x6c
 8004426:	e8bd 8ff0 	ldmia.w	sp!, {r4, r5, r6, r7, r8, r9, sl, fp, pc}
        tired = false;
 800442a:	f04f 0900 	mov.w	r9, #0
        relocated = true;
 800442e:	f04f 0b01 	mov.w	fp, #1
 8004432:	e7df      	b.n	80043f4 <lfs_dir_compact+0x94>
                    lfs->cfg->metadata_max : lfs->cfg->block_size) - 8,
 8004434:	69d3      	ldr	r3, [r2, #28]
 8004436:	3b08      	subs	r3, #8
 8004438:	e7e9      	b.n	800440e <lfs_dir_compact+0xae>
            err = lfs_dir_commitprog(lfs, &commit,
 800443a:	2304      	movs	r3, #4
 800443c:	f104 0208 	add.w	r2, r4, #8
 8004440:	a90e      	add	r1, sp, #56	@ 0x38
 8004442:	4628      	mov	r0, r5
 8004444:	f7ff fe0c 	bl	8004060 <lfs_dir_commitprog>
            if (err) {
 8004448:	4603      	mov	r3, r0
 800444a:	b118      	cbz	r0, 8004454 <lfs_dir_compact+0xf4>
                if (err == LFS_ERR_CORRUPT) {
 800444c:	f110 0f54 	cmn.w	r0, #84	@ 0x54
 8004450:	d1e7      	bne.n	8004422 <lfs_dir_compact+0xc2>
 8004452:	e7a4      	b.n	800439e <lfs_dir_compact+0x3e>
                    lfs_dir_commit_commit, &(struct lfs_dir_commit_commit){
 8004454:	9516      	str	r5, [sp, #88]	@ 0x58
 8004456:	ab0e      	add	r3, sp, #56	@ 0x38
 8004458:	9317      	str	r3, [sp, #92]	@ 0x5c
            err = lfs_dir_traverse(lfs,
 800445a:	ab16      	add	r3, sp, #88	@ 0x58
 800445c:	9308      	str	r3, [sp, #32]
 800445e:	4b61      	ldr	r3, [pc, #388]	@ (80045e4 <lfs_dir_compact+0x284>)
 8004460:	9307      	str	r3, [sp, #28]
 8004462:	f1c8 0300 	rsb	r3, r8, #0
 8004466:	b21b      	sxth	r3, r3
 8004468:	9306      	str	r3, [sp, #24]
 800446a:	f8cd a014 	str.w	sl, [sp, #20]
 800446e:	f8cd 8010 	str.w	r8, [sp, #16]
 8004472:	2200      	movs	r2, #0
 8004474:	9203      	str	r2, [sp, #12]
 8004476:	4b5c      	ldr	r3, [pc, #368]	@ (80045e8 <lfs_dir_compact+0x288>)
 8004478:	9302      	str	r3, [sp, #8]
 800447a:	9701      	str	r7, [sp, #4]
 800447c:	9600      	str	r6, [sp, #0]
 800447e:	f04f 33ff 	mov.w	r3, #4294967295	@ 0xffffffff
 8004482:	9924      	ldr	r1, [sp, #144]	@ 0x90
 8004484:	4628      	mov	r0, r5
 8004486:	f7fe fa2f 	bl	80028e8 <lfs_dir_traverse>
            if (err) {
 800448a:	4603      	mov	r3, r0
 800448c:	b118      	cbz	r0, 8004496 <lfs_dir_compact+0x136>
                if (err == LFS_ERR_CORRUPT) {
 800448e:	f110 0f54 	cmn.w	r0, #84	@ 0x54
 8004492:	d1c6      	bne.n	8004422 <lfs_dir_compact+0xc2>
 8004494:	e783      	b.n	800439e <lfs_dir_compact+0x3e>
    return pair[0] == LFS_BLOCK_NULL || pair[1] == LFS_BLOCK_NULL;
 8004496:	69a3      	ldr	r3, [r4, #24]
 8004498:	f1b3 3fff 	cmp.w	r3, #4294967295	@ 0xffffffff
 800449c:	d015      	beq.n	80044ca <lfs_dir_compact+0x16a>
 800449e:	69e3      	ldr	r3, [r4, #28]
 80044a0:	f1b3 3fff 	cmp.w	r3, #4294967295	@ 0xffffffff
 80044a4:	d011      	beq.n	80044ca <lfs_dir_compact+0x16a>
                        LFS_MKTAG(LFS_TYPE_TAIL + dir->split, 0x3ff, 8),
 80044a6:	7de2      	ldrb	r2, [r4, #23]
 80044a8:	f502 62c0 	add.w	r2, r2, #1536	@ 0x600
                err = lfs_dir_commitattr(lfs, &commit,
 80044ac:	f104 0318 	add.w	r3, r4, #24
 80044b0:	494e      	ldr	r1, [pc, #312]	@ (80045ec <lfs_dir_compact+0x28c>)
 80044b2:	ea41 5202 	orr.w	r2, r1, r2, lsl #20
 80044b6:	a90e      	add	r1, sp, #56	@ 0x38
 80044b8:	4628      	mov	r0, r5
 80044ba:	f7ff fdf1 	bl	80040a0 <lfs_dir_commitattr>
                if (err) {
 80044be:	4603      	mov	r3, r0
 80044c0:	b118      	cbz	r0, 80044ca <lfs_dir_compact+0x16a>
                    if (err == LFS_ERR_CORRUPT) {
 80044c2:	f110 0f54 	cmn.w	r0, #84	@ 0x54
 80044c6:	d1ac      	bne.n	8004422 <lfs_dir_compact+0xc2>
 80044c8:	e769      	b.n	800439e <lfs_dir_compact+0x3e>
            lfs_gstate_t delta = {0};
 80044ca:	2300      	movs	r3, #0
 80044cc:	930b      	str	r3, [sp, #44]	@ 0x2c
 80044ce:	930c      	str	r3, [sp, #48]	@ 0x30
 80044d0:	930d      	str	r3, [sp, #52]	@ 0x34
            if (!relocated) {
 80044d2:	f1bb 0f00 	cmp.w	fp, #0
 80044d6:	d10e      	bne.n	80044f6 <lfs_dir_compact+0x196>
    a->tag ^= b->tag;
 80044d8:	6be8      	ldr	r0, [r5, #60]	@ 0x3c
 80044da:	900b      	str	r0, [sp, #44]	@ 0x2c
    a->pair[0] ^= b->pair[0];
 80044dc:	6c29      	ldr	r1, [r5, #64]	@ 0x40
 80044de:	910c      	str	r1, [sp, #48]	@ 0x30
    a->pair[1] ^= b->pair[1];
 80044e0:	6c6a      	ldr	r2, [r5, #68]	@ 0x44
 80044e2:	920d      	str	r2, [sp, #52]	@ 0x34
    a->tag ^= b->tag;
 80044e4:	6b2b      	ldr	r3, [r5, #48]	@ 0x30
 80044e6:	4043      	eors	r3, r0
 80044e8:	930b      	str	r3, [sp, #44]	@ 0x2c
    a->pair[0] ^= b->pair[0];
 80044ea:	6b6b      	ldr	r3, [r5, #52]	@ 0x34
 80044ec:	404b      	eors	r3, r1
 80044ee:	930c      	str	r3, [sp, #48]	@ 0x30
    a->pair[1] ^= b->pair[1];
 80044f0:	6bab      	ldr	r3, [r5, #56]	@ 0x38
 80044f2:	4053      	eors	r3, r2
 80044f4:	930d      	str	r3, [sp, #52]	@ 0x34
    a->tag ^= b->tag;
 80044f6:	6caa      	ldr	r2, [r5, #72]	@ 0x48
 80044f8:	9b0b      	ldr	r3, [sp, #44]	@ 0x2c
 80044fa:	4053      	eors	r3, r2
 80044fc:	930b      	str	r3, [sp, #44]	@ 0x2c
    a->pair[0] ^= b->pair[0];
 80044fe:	6ce9      	ldr	r1, [r5, #76]	@ 0x4c
 8004500:	9a0c      	ldr	r2, [sp, #48]	@ 0x30
 8004502:	404a      	eors	r2, r1
 8004504:	920c      	str	r2, [sp, #48]	@ 0x30
    a->pair[1] ^= b->pair[1];
 8004506:	6d29      	ldr	r1, [r5, #80]	@ 0x50
 8004508:	9a0d      	ldr	r2, [sp, #52]	@ 0x34
 800450a:	404a      	eors	r2, r1
 800450c:	920d      	str	r2, [sp, #52]	@ 0x34
            delta.tag &= ~LFS_MKTAG(0, 0, 0x3ff);
 800450e:	f36f 0309 	bfc	r3, #0, #10
 8004512:	930b      	str	r3, [sp, #44]	@ 0x2c
            err = lfs_dir_getgstate(lfs, dir, &delta);
 8004514:	aa0b      	add	r2, sp, #44	@ 0x2c
 8004516:	4621      	mov	r1, r4
 8004518:	4628      	mov	r0, r5
 800451a:	f7fe f94d 	bl	80027b8 <lfs_dir_getgstate>
            if (err) {
 800451e:	4603      	mov	r3, r0
 8004520:	2800      	cmp	r0, #0
 8004522:	f47f af7e 	bne.w	8004422 <lfs_dir_compact+0xc2>
    return a->tag == 0
 8004526:	9b0b      	ldr	r3, [sp, #44]	@ 0x2c
            && a->pair[1] == 0;
 8004528:	b91b      	cbnz	r3, 8004532 <lfs_dir_compact+0x1d2>
            && a->pair[0] == 0
 800452a:	9b0c      	ldr	r3, [sp, #48]	@ 0x30
 800452c:	b90b      	cbnz	r3, 8004532 <lfs_dir_compact+0x1d2>
            && a->pair[1] == 0;
 800452e:	9b0d      	ldr	r3, [sp, #52]	@ 0x34
 8004530:	b163      	cbz	r3, 800454c <lfs_dir_compact+0x1ec>
                err = lfs_dir_commitattr(lfs, &commit,
 8004532:	ab0b      	add	r3, sp, #44	@ 0x2c
 8004534:	4a2e      	ldr	r2, [pc, #184]	@ (80045f0 <lfs_dir_compact+0x290>)
 8004536:	a90e      	add	r1, sp, #56	@ 0x38
 8004538:	4628      	mov	r0, r5
 800453a:	f7ff fdb1 	bl	80040a0 <lfs_dir_commitattr>
                if (err) {
 800453e:	4603      	mov	r3, r0
 8004540:	b120      	cbz	r0, 800454c <lfs_dir_compact+0x1ec>
                    if (err == LFS_ERR_CORRUPT) {
 8004542:	f110 0f54 	cmn.w	r0, #84	@ 0x54
 8004546:	f47f af6c 	bne.w	8004422 <lfs_dir_compact+0xc2>
 800454a:	e728      	b.n	800439e <lfs_dir_compact+0x3e>
            err = lfs_dir_commitcrc(lfs, &commit);
 800454c:	a90e      	add	r1, sp, #56	@ 0x38
 800454e:	4628      	mov	r0, r5
 8004550:	f7ff fe0c 	bl	800416c <lfs_dir_commitcrc>
            if (err) {
 8004554:	4603      	mov	r3, r0
 8004556:	b120      	cbz	r0, 8004562 <lfs_dir_compact+0x202>
                if (err == LFS_ERR_CORRUPT) {
 8004558:	f110 0f54 	cmn.w	r0, #84	@ 0x54
 800455c:	f47f af61 	bne.w	8004422 <lfs_dir_compact+0xc2>
 8004560:	e71d      	b.n	800439e <lfs_dir_compact+0x3e>
            LFS_ASSERT(commit.off % lfs->cfg->prog_size == 0);
 8004562:	9b0f      	ldr	r3, [sp, #60]	@ 0x3c
 8004564:	6eaa      	ldr	r2, [r5, #104]	@ 0x68
 8004566:	6992      	ldr	r2, [r2, #24]
 8004568:	fbb3 f1f2 	udiv	r1, r3, r2
 800456c:	fb02 3311 	mls	r3, r2, r1, r3
 8004570:	b9db      	cbnz	r3, 80045aa <lfs_dir_compact+0x24a>
    lfs_block_t t = pair[0];
 8004572:	6823      	ldr	r3, [r4, #0]
    pair[0] = pair[1];
 8004574:	6862      	ldr	r2, [r4, #4]
 8004576:	6022      	str	r2, [r4, #0]
    pair[1] = t;
 8004578:	6063      	str	r3, [r4, #4]
            dir->count = end - begin;
 800457a:	ebaa 0808 	sub.w	r8, sl, r8
 800457e:	f8a4 8014 	strh.w	r8, [r4, #20]
            dir->off = commit.off;
 8004582:	9b0f      	ldr	r3, [sp, #60]	@ 0x3c
 8004584:	60e3      	str	r3, [r4, #12]
            dir->etag = commit.ptag;
 8004586:	9b10      	ldr	r3, [sp, #64]	@ 0x40
 8004588:	6123      	str	r3, [r4, #16]
            lfs->gdelta = (lfs_gstate_t){0};
 800458a:	2200      	movs	r2, #0
 800458c:	64aa      	str	r2, [r5, #72]	@ 0x48
 800458e:	64ea      	str	r2, [r5, #76]	@ 0x4c
 8004590:	652a      	str	r2, [r5, #80]	@ 0x50
            if (!relocated) {
 8004592:	f1bb 0f00 	cmp.w	fp, #0
 8004596:	d106      	bne.n	80045a6 <lfs_dir_compact+0x246>
                lfs->gdisk = lfs->gstate;
 8004598:	f105 033c 	add.w	r3, r5, #60	@ 0x3c
 800459c:	3530      	adds	r5, #48	@ 0x30
 800459e:	e895 0007 	ldmia.w	r5, {r0, r1, r2}
 80045a2:	e883 0007 	stmia.w	r3, {r0, r1, r2}
    return relocated ? LFS_OK_RELOCATED : 0;
 80045a6:	465b      	mov	r3, fp
 80045a8:	e73b      	b.n	8004422 <lfs_dir_compact+0xc2>
            LFS_ASSERT(commit.off % lfs->cfg->prog_size == 0);
 80045aa:	4b12      	ldr	r3, [pc, #72]	@ (80045f4 <lfs_dir_compact+0x294>)
 80045ac:	4a12      	ldr	r2, [pc, #72]	@ (80045f8 <lfs_dir_compact+0x298>)
 80045ae:	f640 0123 	movw	r1, #2083	@ 0x823
 80045b2:	4812      	ldr	r0, [pc, #72]	@ (80045fc <lfs_dir_compact+0x29c>)
 80045b4:	f001 fc6e 	bl	8005e94 <__assert_func>
            LFS_DEBUG("Bad block at 0x%"PRIx32, dir->pair[1]);
 80045b8:	4b11      	ldr	r3, [pc, #68]	@ (8004600 <lfs_dir_compact+0x2a0>)
 80045ba:	9300      	str	r3, [sp, #0]
 80045bc:	6863      	ldr	r3, [r4, #4]
 80045be:	f640 0235 	movw	r2, #2101	@ 0x835
 80045c2:	490e      	ldr	r1, [pc, #56]	@ (80045fc <lfs_dir_compact+0x29c>)
 80045c4:	480f      	ldr	r0, [pc, #60]	@ (8004604 <lfs_dir_compact+0x2a4>)
 80045c6:	f001 fe17 	bl	80061f8 <iprintf>
 80045ca:	e6ef      	b.n	80043ac <lfs_dir_compact+0x4c>
            LFS_WARN("Superblock 0x%"PRIx32" has become unwritable",
 80045cc:	4b0c      	ldr	r3, [pc, #48]	@ (8004600 <lfs_dir_compact+0x2a0>)
 80045ce:	9300      	str	r3, [sp, #0]
 80045d0:	6863      	ldr	r3, [r4, #4]
 80045d2:	f640 023a 	movw	r2, #2106	@ 0x83a
 80045d6:	4909      	ldr	r1, [pc, #36]	@ (80045fc <lfs_dir_compact+0x29c>)
 80045d8:	480b      	ldr	r0, [pc, #44]	@ (8004608 <lfs_dir_compact+0x2a8>)
 80045da:	f001 fe0d 	bl	80061f8 <iprintf>
            return LFS_ERR_NOSPC;
 80045de:	f06f 031b 	mvn.w	r3, #27
 80045e2:	e71e      	b.n	8004422 <lfs_dir_compact+0xc2>
 80045e4:	0800415b 	.word	0x0800415b
 80045e8:	400ffc00 	.word	0x400ffc00
 80045ec:	000ffc08 	.word	0x000ffc08
 80045f0:	7ffffc0c 	.word	0x7ffffc0c
 80045f4:	08007330 	.word	0x08007330
 80045f8:	08007db0 	.word	0x08007db0
 80045fc:	080070fc 	.word	0x080070fc
 8004600:	0800708c 	.word	0x0800708c
 8004604:	0800730c 	.word	0x0800730c
 8004608:	08007358 	.word	0x08007358

0800460c <lfs_dir_split>:
        lfs_mdir_t *source, uint16_t split, uint16_t end) {
 800460c:	e92d 43f0 	stmdb	sp!, {r4, r5, r6, r7, r8, r9, lr}
 8004610:	b08d      	sub	sp, #52	@ 0x34
 8004612:	4605      	mov	r5, r0
 8004614:	460c      	mov	r4, r1
 8004616:	4691      	mov	r9, r2
 8004618:	461e      	mov	r6, r3
 800461a:	f8bd 8054 	ldrh.w	r8, [sp, #84]	@ 0x54
    int err = lfs_dir_alloc(lfs, &tail);
 800461e:	a904      	add	r1, sp, #16
 8004620:	f7ff f9ea 	bl	80039f8 <lfs_dir_alloc>
    if (err) {
 8004624:	4607      	mov	r7, r0
 8004626:	b118      	cbz	r0, 8004630 <lfs_dir_split+0x24>
}
 8004628:	4638      	mov	r0, r7
 800462a:	b00d      	add	sp, #52	@ 0x34
 800462c:	e8bd 83f0 	ldmia.w	sp!, {r4, r5, r6, r7, r8, r9, pc}
    tail.split = dir->split;
 8004630:	7de3      	ldrb	r3, [r4, #23]
 8004632:	f88d 3027 	strb.w	r3, [sp, #39]	@ 0x27
    tail.tail[0] = dir->tail[0];
 8004636:	69a3      	ldr	r3, [r4, #24]
 8004638:	930a      	str	r3, [sp, #40]	@ 0x28
    tail.tail[1] = dir->tail[1];
 800463a:	69e3      	ldr	r3, [r4, #28]
 800463c:	930b      	str	r3, [sp, #44]	@ 0x2c
    int res = lfs_dir_compact(lfs, &tail, attrs, attrcount, source, split, end);
 800463e:	f8bd 3058 	ldrh.w	r3, [sp, #88]	@ 0x58
 8004642:	9302      	str	r3, [sp, #8]
 8004644:	f8cd 8004 	str.w	r8, [sp, #4]
 8004648:	9b14      	ldr	r3, [sp, #80]	@ 0x50
 800464a:	9300      	str	r3, [sp, #0]
 800464c:	4633      	mov	r3, r6
 800464e:	464a      	mov	r2, r9
 8004650:	a904      	add	r1, sp, #16
 8004652:	4628      	mov	r0, r5
 8004654:	f7ff fe84 	bl	8004360 <lfs_dir_compact>
    if (res < 0) {
 8004658:	2800      	cmp	r0, #0
 800465a:	db17      	blt.n	800468c <lfs_dir_split+0x80>
    dir->tail[0] = tail.pair[0];
 800465c:	9904      	ldr	r1, [sp, #16]
 800465e:	61a1      	str	r1, [r4, #24]
    dir->tail[1] = tail.pair[1];
 8004660:	9a05      	ldr	r2, [sp, #20]
 8004662:	61e2      	str	r2, [r4, #28]
    dir->split = true;
 8004664:	2301      	movs	r3, #1
 8004666:	75e3      	strb	r3, [r4, #23]
    return !(paira[0] == pairb[0] || paira[1] == pairb[1] ||
 8004668:	6823      	ldr	r3, [r4, #0]
 800466a:	6a28      	ldr	r0, [r5, #32]
 800466c:	4283      	cmp	r3, r0
 800466e:	d007      	beq.n	8004680 <lfs_dir_split+0x74>
 8004670:	6866      	ldr	r6, [r4, #4]
 8004672:	6a6c      	ldr	r4, [r5, #36]	@ 0x24
 8004674:	42a6      	cmp	r6, r4
 8004676:	d003      	beq.n	8004680 <lfs_dir_split+0x74>
 8004678:	42a3      	cmp	r3, r4
 800467a:	d001      	beq.n	8004680 <lfs_dir_split+0x74>
 800467c:	42b0      	cmp	r0, r6
 800467e:	d1d3      	bne.n	8004628 <lfs_dir_split+0x1c>
    if (lfs_pair_cmp(dir->pair, lfs->root) == 0 && split == 0) {
 8004680:	f1b8 0f00 	cmp.w	r8, #0
 8004684:	d1d0      	bne.n	8004628 <lfs_dir_split+0x1c>
        lfs->root[0] = tail.pair[0];
 8004686:	6229      	str	r1, [r5, #32]
        lfs->root[1] = tail.pair[1];
 8004688:	626a      	str	r2, [r5, #36]	@ 0x24
 800468a:	e7cd      	b.n	8004628 <lfs_dir_split+0x1c>
        return res;
 800468c:	4607      	mov	r7, r0
 800468e:	e7cb      	b.n	8004628 <lfs_dir_split+0x1c>

08004690 <lfs_dir_splittingcompact>:
        lfs_mdir_t *source, uint16_t begin, uint16_t end) {
 8004690:	e92d 4ff0 	stmdb	sp!, {r4, r5, r6, r7, r8, r9, sl, fp, lr}
 8004694:	b091      	sub	sp, #68	@ 0x44
 8004696:	4607      	mov	r7, r0
 8004698:	4615      	mov	r5, r2
 800469a:	4699      	mov	r9, r3
 800469c:	f8dd a068 	ldr.w	sl, [sp, #104]	@ 0x68
 80046a0:	f8bd b06c 	ldrh.w	fp, [sp, #108]	@ 0x6c
 80046a4:	f8bd 6070 	ldrh.w	r6, [sp, #112]	@ 0x70
 80046a8:	910b      	str	r1, [sp, #44]	@ 0x2c
 80046aa:	e048      	b.n	800473e <lfs_dir_splittingcompact+0xae>
            split = split + ((end - split) / 2);
 80046ac:	eb04 0458 	add.w	r4, r4, r8, lsr #1
        while (end - split > 1) {
 80046b0:	eba6 0804 	sub.w	r8, r6, r4
 80046b4:	f1b8 0f01 	cmp.w	r8, #1
 80046b8:	d931      	bls.n	800471e <lfs_dir_splittingcompact+0x8e>
            lfs_size_t size = 0;
 80046ba:	2200      	movs	r2, #0
 80046bc:	920d      	str	r2, [sp, #52]	@ 0x34
            int err = lfs_dir_traverse(lfs,
 80046be:	b2a1      	uxth	r1, r4
 80046c0:	ab0d      	add	r3, sp, #52	@ 0x34
 80046c2:	9308      	str	r3, [sp, #32]
 80046c4:	4b52      	ldr	r3, [pc, #328]	@ (8004810 <lfs_dir_splittingcompact+0x180>)
 80046c6:	9307      	str	r3, [sp, #28]
 80046c8:	424b      	negs	r3, r1
 80046ca:	b21b      	sxth	r3, r3
 80046cc:	9306      	str	r3, [sp, #24]
 80046ce:	9605      	str	r6, [sp, #20]
 80046d0:	9104      	str	r1, [sp, #16]
 80046d2:	9203      	str	r2, [sp, #12]
 80046d4:	4b4f      	ldr	r3, [pc, #316]	@ (8004814 <lfs_dir_splittingcompact+0x184>)
 80046d6:	9302      	str	r3, [sp, #8]
 80046d8:	f8cd 9004 	str.w	r9, [sp, #4]
 80046dc:	9500      	str	r5, [sp, #0]
 80046de:	f04f 33ff 	mov.w	r3, #4294967295	@ 0xffffffff
 80046e2:	4651      	mov	r1, sl
 80046e4:	4638      	mov	r0, r7
 80046e6:	f7fe f8ff 	bl	80028e8 <lfs_dir_traverse>
            if (err) {
 80046ea:	4603      	mov	r3, r0
 80046ec:	2800      	cmp	r0, #0
 80046ee:	d166      	bne.n	80047be <lfs_dir_splittingcompact+0x12e>
            lfs_size_t metadata_max = (lfs->cfg->metadata_max)
 80046f0:	6eb9      	ldr	r1, [r7, #104]	@ 0x68
 80046f2:	6ccb      	ldr	r3, [r1, #76]	@ 0x4c
                    : lfs->cfg->block_size;
 80046f4:	b903      	cbnz	r3, 80046f8 <lfs_dir_splittingcompact+0x68>
 80046f6:	69cb      	ldr	r3, [r1, #28]
            if (end - split < 0xff
 80046f8:	f1b8 0ffe 	cmp.w	r8, #254	@ 0xfe
 80046fc:	d8d6      	bhi.n	80046ac <lfs_dir_splittingcompact+0x1c>
                        metadata_max - 40,
 80046fe:	f1a3 0228 	sub.w	r2, r3, #40	@ 0x28
                            lfs->cfg->prog_size))) {
 8004702:	6989      	ldr	r1, [r1, #24]
    return lfs_aligndown(a + alignment-1, alignment);
 8004704:	eb01 0353 	add.w	r3, r1, r3, lsr #1
 8004708:	3b01      	subs	r3, #1
    return a - (a % alignment);
 800470a:	fbb3 f3f1 	udiv	r3, r3, r1
 800470e:	fb01 f303 	mul.w	r3, r1, r3
    return (a < b) ? a : b;
 8004712:	429a      	cmp	r2, r3
 8004714:	bf28      	it	cs
 8004716:	461a      	movcs	r2, r3
                    && size <= lfs_min(
 8004718:	9b0d      	ldr	r3, [sp, #52]	@ 0x34
 800471a:	4293      	cmp	r3, r2
 800471c:	d8c6      	bhi.n	80046ac <lfs_dir_splittingcompact+0x1c>
        if (split == begin) {
 800471e:	455c      	cmp	r4, fp
 8004720:	d022      	beq.n	8004768 <lfs_dir_splittingcompact+0xd8>
        int err = lfs_dir_split(lfs, dir, attrs, attrcount,
 8004722:	b2a4      	uxth	r4, r4
 8004724:	9602      	str	r6, [sp, #8]
 8004726:	9401      	str	r4, [sp, #4]
 8004728:	f8cd a000 	str.w	sl, [sp]
 800472c:	464b      	mov	r3, r9
 800472e:	462a      	mov	r2, r5
 8004730:	990b      	ldr	r1, [sp, #44]	@ 0x2c
 8004732:	4638      	mov	r0, r7
 8004734:	f7ff ff6a 	bl	800460c <lfs_dir_split>
        if (err && err != LFS_ERR_NOSPC) {
 8004738:	4603      	mov	r3, r0
 800473a:	b910      	cbnz	r0, 8004742 <lfs_dir_splittingcompact+0xb2>
            end = split;
 800473c:	4626      	mov	r6, r4
        lfs_size_t split = begin;
 800473e:	465c      	mov	r4, fp
        while (end - split > 1) {
 8004740:	e7b6      	b.n	80046b0 <lfs_dir_splittingcompact+0x20>
        if (err && err != LFS_ERR_NOSPC) {
 8004742:	f8dd 802c 	ldr.w	r8, [sp, #44]	@ 0x2c
 8004746:	f110 0f1c 	cmn.w	r0, #28
 800474a:	d138      	bne.n	80047be <lfs_dir_splittingcompact+0x12e>
            LFS_WARN("Unable to split {0x%"PRIx32", 0x%"PRIx32"}",
 800474c:	4b32      	ldr	r3, [pc, #200]	@ (8004818 <lfs_dir_splittingcompact+0x188>)
 800474e:	9301      	str	r3, [sp, #4]
 8004750:	f8d8 3004 	ldr.w	r3, [r8, #4]
 8004754:	9300      	str	r3, [sp, #0]
 8004756:	f8d8 3000 	ldr.w	r3, [r8]
 800475a:	f640 028e 	movw	r2, #2190	@ 0x88e
 800475e:	492f      	ldr	r1, [pc, #188]	@ (800481c <lfs_dir_splittingcompact+0x18c>)
 8004760:	482f      	ldr	r0, [pc, #188]	@ (8004820 <lfs_dir_splittingcompact+0x190>)
 8004762:	f001 fd49 	bl	80061f8 <iprintf>
            break;
 8004766:	e001      	b.n	800476c <lfs_dir_splittingcompact+0xdc>
 8004768:	f8dd 802c 	ldr.w	r8, [sp, #44]	@ 0x2c
    if (lfs_dir_needsrelocation(lfs, dir)
 800476c:	4641      	mov	r1, r8
 800476e:	4638      	mov	r0, r7
 8004770:	f7fd fd72 	bl	8002258 <lfs_dir_needsrelocation>
 8004774:	b1b8      	cbz	r0, 80047a6 <lfs_dir_splittingcompact+0x116>
            && lfs_pair_cmp(dir->pair, (const lfs_block_t[2]){0, 1}) == 0) {
 8004776:	2300      	movs	r3, #0
 8004778:	930e      	str	r3, [sp, #56]	@ 0x38
 800477a:	2301      	movs	r3, #1
 800477c:	930f      	str	r3, [sp, #60]	@ 0x3c
    return !(paira[0] == pairb[0] || paira[1] == pairb[1] ||
 800477e:	f8d8 2000 	ldr.w	r2, [r8]
 8004782:	b132      	cbz	r2, 8004792 <lfs_dir_splittingcompact+0x102>
 8004784:	f8d8 3004 	ldr.w	r3, [r8, #4]
 8004788:	2b01      	cmp	r3, #1
 800478a:	d002      	beq.n	8004792 <lfs_dir_splittingcompact+0x102>
 800478c:	2a01      	cmp	r2, #1
 800478e:	d000      	beq.n	8004792 <lfs_dir_splittingcompact+0x102>
 8004790:	b94b      	cbnz	r3, 80047a6 <lfs_dir_splittingcompact+0x116>
        lfs_ssize_t size = lfs_fs_size_(lfs);
 8004792:	4638      	mov	r0, r7
 8004794:	f7ff fc10 	bl	8003fb8 <lfs_fs_size_>
        if (size < 0) {
 8004798:	1e03      	subs	r3, r0, #0
 800479a:	db10      	blt.n	80047be <lfs_dir_splittingcompact+0x12e>
        if (lfs->block_count - size > lfs->block_count/8) {
 800479c:	6efa      	ldr	r2, [r7, #108]	@ 0x6c
 800479e:	1ad3      	subs	r3, r2, r3
 80047a0:	ebb3 0fd2 	cmp.w	r3, r2, lsr #3
 80047a4:	d80f      	bhi.n	80047c6 <lfs_dir_splittingcompact+0x136>
    return lfs_dir_compact(lfs, dir, attrs, attrcount, source, begin, end);
 80047a6:	9602      	str	r6, [sp, #8]
 80047a8:	f8cd b004 	str.w	fp, [sp, #4]
 80047ac:	f8cd a000 	str.w	sl, [sp]
 80047b0:	464b      	mov	r3, r9
 80047b2:	462a      	mov	r2, r5
 80047b4:	4641      	mov	r1, r8
 80047b6:	4638      	mov	r0, r7
 80047b8:	f7ff fdd2 	bl	8004360 <lfs_dir_compact>
 80047bc:	4603      	mov	r3, r0
}
 80047be:	4618      	mov	r0, r3
 80047c0:	b011      	add	sp, #68	@ 0x44
 80047c2:	e8bd 8ff0 	ldmia.w	sp!, {r4, r5, r6, r7, r8, r9, sl, fp, pc}
            LFS_DEBUG("Expanding superblock at rev %"PRIu32, dir->rev);
 80047c6:	4b14      	ldr	r3, [pc, #80]	@ (8004818 <lfs_dir_splittingcompact+0x188>)
 80047c8:	9300      	str	r3, [sp, #0]
 80047ca:	f8d8 3008 	ldr.w	r3, [r8, #8]
 80047ce:	f640 02a4 	movw	r2, #2212	@ 0x8a4
 80047d2:	4912      	ldr	r1, [pc, #72]	@ (800481c <lfs_dir_splittingcompact+0x18c>)
 80047d4:	4813      	ldr	r0, [pc, #76]	@ (8004824 <lfs_dir_splittingcompact+0x194>)
 80047d6:	f001 fd0f 	bl	80061f8 <iprintf>
            int err = lfs_dir_split(lfs, dir, attrs, attrcount,
 80047da:	9602      	str	r6, [sp, #8]
 80047dc:	f8cd b004 	str.w	fp, [sp, #4]
 80047e0:	f8cd a000 	str.w	sl, [sp]
 80047e4:	464b      	mov	r3, r9
 80047e6:	462a      	mov	r2, r5
 80047e8:	4641      	mov	r1, r8
 80047ea:	4638      	mov	r0, r7
 80047ec:	f7ff ff0e 	bl	800460c <lfs_dir_split>
            if (err && err != LFS_ERR_NOSPC) {
 80047f0:	4603      	mov	r3, r0
 80047f2:	b150      	cbz	r0, 800480a <lfs_dir_splittingcompact+0x17a>
 80047f4:	f110 0f1c 	cmn.w	r0, #28
 80047f8:	d1e1      	bne.n	80047be <lfs_dir_splittingcompact+0x12e>
                LFS_WARN("Unable to expand superblock");
 80047fa:	4b07      	ldr	r3, [pc, #28]	@ (8004818 <lfs_dir_splittingcompact+0x188>)
 80047fc:	f640 02ae 	movw	r2, #2222	@ 0x8ae
 8004800:	4906      	ldr	r1, [pc, #24]	@ (800481c <lfs_dir_splittingcompact+0x18c>)
 8004802:	4809      	ldr	r0, [pc, #36]	@ (8004828 <lfs_dir_splittingcompact+0x198>)
 8004804:	f001 fcf8 	bl	80061f8 <iprintf>
 8004808:	e7cd      	b.n	80047a6 <lfs_dir_splittingcompact+0x116>
                end = 1;
 800480a:	2601      	movs	r6, #1
 800480c:	e7cb      	b.n	80047a6 <lfs_dir_splittingcompact+0x116>
 800480e:	bf00      	nop
 8004810:	0800223d 	.word	0x0800223d
 8004814:	400ffc00 	.word	0x400ffc00
 8004818:	0800708c 	.word	0x0800708c
 800481c:	080070fc 	.word	0x080070fc
 8004820:	08007390 	.word	0x08007390
 8004824:	080073c0 	.word	0x080073c0
 8004828:	080073f0 	.word	0x080073f0

0800482c <lfs_dir_relocatingcommit>:
        lfs_mdir_t *pdir) {
 800482c:	e92d 4ff0 	stmdb	sp!, {r4, r5, r6, r7, r8, r9, sl, fp, lr}
 8004830:	b09b      	sub	sp, #108	@ 0x6c
 8004832:	4607      	mov	r7, r0
 8004834:	460e      	mov	r6, r1
 8004836:	4691      	mov	r9, r2
 8004838:	930a      	str	r3, [sp, #40]	@ 0x28
 800483a:	f8dd 8090 	ldr.w	r8, [sp, #144]	@ 0x90
    for (int i = 0; i < attrcount; i++) {
 800483e:	2200      	movs	r2, #0
    bool hasdelete = false;
 8004840:	4614      	mov	r4, r2
 8004842:	4618      	mov	r0, r3
    for (int i = 0; i < attrcount; i++) {
 8004844:	e003      	b.n	800484e <lfs_dir_relocatingcommit+0x22>
            dir->count += 1;
 8004846:	8ab3      	ldrh	r3, [r6, #20]
 8004848:	3301      	adds	r3, #1
 800484a:	82b3      	strh	r3, [r6, #20]
    for (int i = 0; i < attrcount; i++) {
 800484c:	3201      	adds	r2, #1
 800484e:	4542      	cmp	r2, r8
 8004850:	da2e      	bge.n	80048b0 <lfs_dir_relocatingcommit+0x84>
        if (lfs_tag_type3(attrs[i].tag) == LFS_TYPE_CREATE) {
 8004852:	eb00 0cc2 	add.w	ip, r0, r2, lsl #3
 8004856:	f850 3032 	ldr.w	r3, [r0, r2, lsl #3]
    return (tag & 0x7ff00000) >> 20;
 800485a:	0d19      	lsrs	r1, r3, #20
 800485c:	f3c3 530a 	ubfx	r3, r3, #20, #11
        if (lfs_tag_type3(attrs[i].tag) == LFS_TYPE_CREATE) {
 8004860:	f240 4501 	movw	r5, #1025	@ 0x401
 8004864:	42ab      	cmp	r3, r5
 8004866:	d0ee      	beq.n	8004846 <lfs_dir_relocatingcommit+0x1a>
        } else if (lfs_tag_type3(attrs[i].tag) == LFS_TYPE_DELETE) {
 8004868:	f240 45ff 	movw	r5, #1279	@ 0x4ff
 800486c:	42ab      	cmp	r3, r5
 800486e:	d012      	beq.n	8004896 <lfs_dir_relocatingcommit+0x6a>
    return (tag & 0x70000000) >> 20;
 8004870:	f401 61e0 	and.w	r1, r1, #1792	@ 0x700
        } else if (lfs_tag_type1(attrs[i].tag) == LFS_TYPE_TAIL) {
 8004874:	f5b1 6fc0 	cmp.w	r1, #1536	@ 0x600
 8004878:	d1e8      	bne.n	800484c <lfs_dir_relocatingcommit+0x20>
            dir->tail[0] = ((lfs_block_t*)attrs[i].buffer)[0];
 800487a:	f8dc 3004 	ldr.w	r3, [ip, #4]
 800487e:	681b      	ldr	r3, [r3, #0]
 8004880:	61b3      	str	r3, [r6, #24]
            dir->tail[1] = ((lfs_block_t*)attrs[i].buffer)[1];
 8004882:	f8dc 3004 	ldr.w	r3, [ip, #4]
 8004886:	685b      	ldr	r3, [r3, #4]
 8004888:	61f3      	str	r3, [r6, #28]
            dir->split = (lfs_tag_chunk(attrs[i].tag) & 1);
 800488a:	f850 3032 	ldr.w	r3, [r0, r2, lsl #3]
 800488e:	f3c3 5300 	ubfx	r3, r3, #20, #1
 8004892:	75f3      	strb	r3, [r6, #23]
            lfs_pair_fromle32(dir->tail);
 8004894:	e7da      	b.n	800484c <lfs_dir_relocatingcommit+0x20>
            LFS_ASSERT(dir->count > 0);
 8004896:	8ab3      	ldrh	r3, [r6, #20]
 8004898:	b11b      	cbz	r3, 80048a2 <lfs_dir_relocatingcommit+0x76>
            dir->count -= 1;
 800489a:	3b01      	subs	r3, #1
 800489c:	82b3      	strh	r3, [r6, #20]
            hasdelete = true;
 800489e:	2401      	movs	r4, #1
 80048a0:	e7d4      	b.n	800484c <lfs_dir_relocatingcommit+0x20>
            LFS_ASSERT(dir->count > 0);
 80048a2:	4b93      	ldr	r3, [pc, #588]	@ (8004af0 <lfs_dir_relocatingcommit+0x2c4>)
 80048a4:	4a93      	ldr	r2, [pc, #588]	@ (8004af4 <lfs_dir_relocatingcommit+0x2c8>)
 80048a6:	f640 01c7 	movw	r1, #2247	@ 0x8c7
 80048aa:	4893      	ldr	r0, [pc, #588]	@ (8004af8 <lfs_dir_relocatingcommit+0x2cc>)
 80048ac:	f001 faf2 	bl	8005e94 <__assert_func>
    if (hasdelete && dir->count == 0) {
 80048b0:	b1dc      	cbz	r4, 80048ea <lfs_dir_relocatingcommit+0xbe>
 80048b2:	8ab3      	ldrh	r3, [r6, #20]
 80048b4:	b9cb      	cbnz	r3, 80048ea <lfs_dir_relocatingcommit+0xbe>
        LFS_ASSERT(pdir);
 80048b6:	9b25      	ldr	r3, [sp, #148]	@ 0x94
 80048b8:	b15b      	cbz	r3, 80048d2 <lfs_dir_relocatingcommit+0xa6>
        int err = lfs_fs_pred(lfs, dir->pair, pdir);
 80048ba:	9a25      	ldr	r2, [sp, #148]	@ 0x94
 80048bc:	4631      	mov	r1, r6
 80048be:	4638      	mov	r0, r7
 80048c0:	f7ff fb88 	bl	8003fd4 <lfs_fs_pred>
        if (err && err != LFS_ERR_NOENT) {
 80048c4:	4603      	mov	r3, r0
 80048c6:	b158      	cbz	r0, 80048e0 <lfs_dir_relocatingcommit+0xb4>
 80048c8:	f110 0f02 	cmn.w	r0, #2
 80048cc:	f040 8160 	bne.w	8004b90 <lfs_dir_relocatingcommit+0x364>
 80048d0:	e00b      	b.n	80048ea <lfs_dir_relocatingcommit+0xbe>
        LFS_ASSERT(pdir);
 80048d2:	4b8a      	ldr	r3, [pc, #552]	@ (8004afc <lfs_dir_relocatingcommit+0x2d0>)
 80048d4:	4a87      	ldr	r2, [pc, #540]	@ (8004af4 <lfs_dir_relocatingcommit+0x2c8>)
 80048d6:	f640 01d4 	movw	r1, #2260	@ 0x8d4
 80048da:	4887      	ldr	r0, [pc, #540]	@ (8004af8 <lfs_dir_relocatingcommit+0x2cc>)
 80048dc:	f001 fada 	bl	8005e94 <__assert_func>
        if (err != LFS_ERR_NOENT && pdir->split) {
 80048e0:	9b25      	ldr	r3, [sp, #148]	@ 0x94
 80048e2:	7ddb      	ldrb	r3, [r3, #23]
 80048e4:	2b00      	cmp	r3, #0
 80048e6:	f040 80c3 	bne.w	8004a70 <lfs_dir_relocatingcommit+0x244>
    if (dir->erased && dir->count < 0xff) {
 80048ea:	7db3      	ldrb	r3, [r6, #22]
 80048ec:	2b00      	cmp	r3, #0
 80048ee:	d032      	beq.n	8004956 <lfs_dir_relocatingcommit+0x12a>
 80048f0:	8ab3      	ldrh	r3, [r6, #20]
 80048f2:	2bfe      	cmp	r3, #254	@ 0xfe
 80048f4:	d82f      	bhi.n	8004956 <lfs_dir_relocatingcommit+0x12a>
            .block = dir->pair[0],
 80048f6:	6833      	ldr	r3, [r6, #0]
        struct lfs_commit commit = {
 80048f8:	9310      	str	r3, [sp, #64]	@ 0x40
            .off = dir->off,
 80048fa:	68f3      	ldr	r3, [r6, #12]
        struct lfs_commit commit = {
 80048fc:	9311      	str	r3, [sp, #68]	@ 0x44
            .ptag = dir->etag,
 80048fe:	6932      	ldr	r2, [r6, #16]
        struct lfs_commit commit = {
 8004900:	9212      	str	r2, [sp, #72]	@ 0x48
 8004902:	f04f 32ff 	mov.w	r2, #4294967295	@ 0xffffffff
 8004906:	9213      	str	r2, [sp, #76]	@ 0x4c
 8004908:	9314      	str	r3, [sp, #80]	@ 0x50
            .end = (lfs->cfg->metadata_max ?
 800490a:	6eba      	ldr	r2, [r7, #104]	@ 0x68
 800490c:	6cd3      	ldr	r3, [r2, #76]	@ 0x4c
                lfs->cfg->metadata_max : lfs->cfg->block_size) - 8,
 800490e:	2b00      	cmp	r3, #0
 8004910:	d03e      	beq.n	8004990 <lfs_dir_relocatingcommit+0x164>
 8004912:	3b08      	subs	r3, #8
        struct lfs_commit commit = {
 8004914:	9315      	str	r3, [sp, #84]	@ 0x54
                lfs_dir_commit_commit, &(struct lfs_dir_commit_commit){
 8004916:	9718      	str	r7, [sp, #96]	@ 0x60
 8004918:	ab10      	add	r3, sp, #64	@ 0x40
 800491a:	9319      	str	r3, [sp, #100]	@ 0x64
        int err = lfs_dir_traverse(lfs,
 800491c:	ab18      	add	r3, sp, #96	@ 0x60
 800491e:	9308      	str	r3, [sp, #32]
 8004920:	4b77      	ldr	r3, [pc, #476]	@ (8004b00 <lfs_dir_relocatingcommit+0x2d4>)
 8004922:	9307      	str	r3, [sp, #28]
 8004924:	2300      	movs	r3, #0
 8004926:	9306      	str	r3, [sp, #24]
 8004928:	9305      	str	r3, [sp, #20]
 800492a:	9304      	str	r3, [sp, #16]
 800492c:	9303      	str	r3, [sp, #12]
 800492e:	9302      	str	r3, [sp, #8]
 8004930:	f8cd 8004 	str.w	r8, [sp, #4]
 8004934:	9b0a      	ldr	r3, [sp, #40]	@ 0x28
 8004936:	9300      	str	r3, [sp, #0]
 8004938:	6933      	ldr	r3, [r6, #16]
 800493a:	68f2      	ldr	r2, [r6, #12]
 800493c:	4631      	mov	r1, r6
 800493e:	4638      	mov	r0, r7
 8004940:	f7fd ffd2 	bl	80028e8 <lfs_dir_traverse>
        if (err) {
 8004944:	4603      	mov	r3, r0
 8004946:	b330      	cbz	r0, 8004996 <lfs_dir_relocatingcommit+0x16a>
            if (err == LFS_ERR_NOSPC || err == LFS_ERR_CORRUPT) {
 8004948:	f110 0f1c 	cmn.w	r0, #28
 800494c:	d003      	beq.n	8004956 <lfs_dir_relocatingcommit+0x12a>
 800494e:	f110 0f54 	cmn.w	r0, #84	@ 0x54
 8004952:	f040 811d 	bne.w	8004b90 <lfs_dir_relocatingcommit+0x364>
    rcache->block = LFS_BLOCK_NULL;
 8004956:	f04f 33ff 	mov.w	r3, #4294967295	@ 0xffffffff
 800495a:	613b      	str	r3, [r7, #16]
    state = lfs_dir_splittingcompact(lfs, dir, attrs, attrcount,
 800495c:	8ab3      	ldrh	r3, [r6, #20]
 800495e:	9302      	str	r3, [sp, #8]
 8004960:	2300      	movs	r3, #0
 8004962:	9301      	str	r3, [sp, #4]
 8004964:	9600      	str	r6, [sp, #0]
 8004966:	4643      	mov	r3, r8
 8004968:	9a0a      	ldr	r2, [sp, #40]	@ 0x28
 800496a:	4631      	mov	r1, r6
 800496c:	4638      	mov	r0, r7
 800496e:	f7ff fe8f 	bl	8004690 <lfs_dir_splittingcompact>
    if (state < 0) {
 8004972:	1e05      	subs	r5, r0, #0
 8004974:	f2c0 810b 	blt.w	8004b8e <lfs_dir_relocatingcommit+0x362>
    lfs_block_t oldpair[2] = {pair[0], pair[1]};
 8004978:	f8d9 a000 	ldr.w	sl, [r9]
 800497c:	f8cd a058 	str.w	sl, [sp, #88]	@ 0x58
 8004980:	f8d9 b004 	ldr.w	fp, [r9, #4]
 8004984:	f8cd b05c 	str.w	fp, [sp, #92]	@ 0x5c
    for (struct lfs_mlist *d = lfs->mlist; d; d = d->next) {
 8004988:	6abc      	ldr	r4, [r7, #40]	@ 0x28
 800498a:	950b      	str	r5, [sp, #44]	@ 0x2c
 800498c:	9d0a      	ldr	r5, [sp, #40]	@ 0x28
 800498e:	e0df      	b.n	8004b50 <lfs_dir_relocatingcommit+0x324>
                lfs->cfg->metadata_max : lfs->cfg->block_size) - 8,
 8004990:	69d3      	ldr	r3, [r2, #28]
 8004992:	3b08      	subs	r3, #8
 8004994:	e7be      	b.n	8004914 <lfs_dir_relocatingcommit+0xe8>
        lfs_gstate_t delta = {0};
 8004996:	2300      	movs	r3, #0
 8004998:	930d      	str	r3, [sp, #52]	@ 0x34
 800499a:	930e      	str	r3, [sp, #56]	@ 0x38
 800499c:	930f      	str	r3, [sp, #60]	@ 0x3c
    a->tag ^= b->tag;
 800499e:	6b3a      	ldr	r2, [r7, #48]	@ 0x30
 80049a0:	920d      	str	r2, [sp, #52]	@ 0x34
    a->pair[0] ^= b->pair[0];
 80049a2:	6b79      	ldr	r1, [r7, #52]	@ 0x34
 80049a4:	910e      	str	r1, [sp, #56]	@ 0x38
    a->pair[1] ^= b->pair[1];
 80049a6:	6bbb      	ldr	r3, [r7, #56]	@ 0x38
 80049a8:	930f      	str	r3, [sp, #60]	@ 0x3c
    a->tag ^= b->tag;
 80049aa:	6bf8      	ldr	r0, [r7, #60]	@ 0x3c
 80049ac:	4050      	eors	r0, r2
 80049ae:	900d      	str	r0, [sp, #52]	@ 0x34
    a->pair[0] ^= b->pair[0];
 80049b0:	6c3a      	ldr	r2, [r7, #64]	@ 0x40
 80049b2:	404a      	eors	r2, r1
 80049b4:	920e      	str	r2, [sp, #56]	@ 0x38
    a->pair[1] ^= b->pair[1];
 80049b6:	6c79      	ldr	r1, [r7, #68]	@ 0x44
 80049b8:	4059      	eors	r1, r3
 80049ba:	910f      	str	r1, [sp, #60]	@ 0x3c
    a->tag ^= b->tag;
 80049bc:	6cbb      	ldr	r3, [r7, #72]	@ 0x48
 80049be:	4043      	eors	r3, r0
 80049c0:	930d      	str	r3, [sp, #52]	@ 0x34
    a->pair[0] ^= b->pair[0];
 80049c2:	6cf8      	ldr	r0, [r7, #76]	@ 0x4c
 80049c4:	ea80 0402 	eor.w	r4, r0, r2
 80049c8:	940e      	str	r4, [sp, #56]	@ 0x38
    a->pair[1] ^= b->pair[1];
 80049ca:	6d3c      	ldr	r4, [r7, #80]	@ 0x50
 80049cc:	ea84 0c01 	eor.w	ip, r4, r1
 80049d0:	f8cd c03c 	str.w	ip, [sp, #60]	@ 0x3c
        delta.tag &= ~LFS_MKTAG(0, 0, 0x3ff);
 80049d4:	f36f 0309 	bfc	r3, #0, #10
 80049d8:	930d      	str	r3, [sp, #52]	@ 0x34
            && a->pair[1] == 0;
 80049da:	b91b      	cbnz	r3, 80049e4 <lfs_dir_relocatingcommit+0x1b8>
            && a->pair[0] == 0
 80049dc:	4290      	cmp	r0, r2
 80049de:	d101      	bne.n	80049e4 <lfs_dir_relocatingcommit+0x1b8>
            && a->pair[1] == 0;
 80049e0:	428c      	cmp	r4, r1
 80049e2:	d018      	beq.n	8004a16 <lfs_dir_relocatingcommit+0x1ea>
            err = lfs_dir_getgstate(lfs, dir, &delta);
 80049e4:	aa0d      	add	r2, sp, #52	@ 0x34
 80049e6:	4631      	mov	r1, r6
 80049e8:	4638      	mov	r0, r7
 80049ea:	f7fd fee5 	bl	80027b8 <lfs_dir_getgstate>
            if (err) {
 80049ee:	4603      	mov	r3, r0
 80049f0:	2800      	cmp	r0, #0
 80049f2:	f040 80cd 	bne.w	8004b90 <lfs_dir_relocatingcommit+0x364>
            err = lfs_dir_commitattr(lfs, &commit,
 80049f6:	ab0d      	add	r3, sp, #52	@ 0x34
 80049f8:	4a42      	ldr	r2, [pc, #264]	@ (8004b04 <lfs_dir_relocatingcommit+0x2d8>)
 80049fa:	a910      	add	r1, sp, #64	@ 0x40
 80049fc:	4638      	mov	r0, r7
 80049fe:	f7ff fb4f 	bl	80040a0 <lfs_dir_commitattr>
            if (err) {
 8004a02:	4603      	mov	r3, r0
 8004a04:	b138      	cbz	r0, 8004a16 <lfs_dir_relocatingcommit+0x1ea>
                if (err == LFS_ERR_NOSPC || err == LFS_ERR_CORRUPT) {
 8004a06:	f110 0f1c 	cmn.w	r0, #28
 8004a0a:	d0a4      	beq.n	8004956 <lfs_dir_relocatingcommit+0x12a>
 8004a0c:	f110 0f54 	cmn.w	r0, #84	@ 0x54
 8004a10:	f040 80be 	bne.w	8004b90 <lfs_dir_relocatingcommit+0x364>
 8004a14:	e79f      	b.n	8004956 <lfs_dir_relocatingcommit+0x12a>
        err = lfs_dir_commitcrc(lfs, &commit);
 8004a16:	a910      	add	r1, sp, #64	@ 0x40
 8004a18:	4638      	mov	r0, r7
 8004a1a:	f7ff fba7 	bl	800416c <lfs_dir_commitcrc>
        if (err) {
 8004a1e:	4603      	mov	r3, r0
 8004a20:	b138      	cbz	r0, 8004a32 <lfs_dir_relocatingcommit+0x206>
            if (err == LFS_ERR_NOSPC || err == LFS_ERR_CORRUPT) {
 8004a22:	f110 0f1c 	cmn.w	r0, #28
 8004a26:	d096      	beq.n	8004956 <lfs_dir_relocatingcommit+0x12a>
 8004a28:	f110 0f54 	cmn.w	r0, #84	@ 0x54
 8004a2c:	f040 80b0 	bne.w	8004b90 <lfs_dir_relocatingcommit+0x364>
 8004a30:	e791      	b.n	8004956 <lfs_dir_relocatingcommit+0x12a>
        LFS_ASSERT(commit.off % lfs->cfg->prog_size == 0);
 8004a32:	9a11      	ldr	r2, [sp, #68]	@ 0x44
 8004a34:	6eb9      	ldr	r1, [r7, #104]	@ 0x68
 8004a36:	6988      	ldr	r0, [r1, #24]
 8004a38:	fbb2 f1f0 	udiv	r1, r2, r0
 8004a3c:	fb00 2111 	mls	r1, r0, r1, r2
 8004a40:	b979      	cbnz	r1, 8004a62 <lfs_dir_relocatingcommit+0x236>
        dir->off = commit.off;
 8004a42:	60f2      	str	r2, [r6, #12]
        dir->etag = commit.ptag;
 8004a44:	9a12      	ldr	r2, [sp, #72]	@ 0x48
 8004a46:	6132      	str	r2, [r6, #16]
        lfs->gdisk = lfs->gstate;
 8004a48:	f107 043c 	add.w	r4, r7, #60	@ 0x3c
 8004a4c:	f107 0230 	add.w	r2, r7, #48	@ 0x30
 8004a50:	ca07      	ldmia	r2, {r0, r1, r2}
 8004a52:	e884 0007 	stmia.w	r4, {r0, r1, r2}
        lfs->gdelta = (lfs_gstate_t){0};
 8004a56:	2100      	movs	r1, #0
 8004a58:	64b9      	str	r1, [r7, #72]	@ 0x48
 8004a5a:	64f9      	str	r1, [r7, #76]	@ 0x4c
 8004a5c:	6539      	str	r1, [r7, #80]	@ 0x50
    int state = 0;
 8004a5e:	461d      	mov	r5, r3
 8004a60:	e78a      	b.n	8004978 <lfs_dir_relocatingcommit+0x14c>
        LFS_ASSERT(commit.off % lfs->cfg->prog_size == 0);
 8004a62:	4b29      	ldr	r3, [pc, #164]	@ (8004b08 <lfs_dir_relocatingcommit+0x2dc>)
 8004a64:	4a23      	ldr	r2, [pc, #140]	@ (8004af4 <lfs_dir_relocatingcommit+0x2c8>)
 8004a66:	f640 111e 	movw	r1, #2334	@ 0x91e
 8004a6a:	4823      	ldr	r0, [pc, #140]	@ (8004af8 <lfs_dir_relocatingcommit+0x2cc>)
 8004a6c:	f001 fa12 	bl	8005e94 <__assert_func>
            state = LFS_OK_DROPPED;
 8004a70:	2502      	movs	r5, #2
 8004a72:	e781      	b.n	8004978 <lfs_dir_relocatingcommit+0x14c>
                            d->id == lfs_tag_id(attrs[i].tag) &&
 8004a74:	f8b4 c004 	ldrh.w	ip, [r4, #4]
    return (tag & 0x000ffc00) >> 10;
 8004a78:	f3c1 2089 	ubfx	r0, r1, #10, #10
                    if (lfs_tag_type3(attrs[i].tag) == LFS_TYPE_DELETE &&
 8004a7c:	4584      	cmp	ip, r0
 8004a7e:	d11c      	bne.n	8004aba <lfs_dir_relocatingcommit+0x28e>
                            d->type != LFS_TYPE_DIR) {
 8004a80:	79a0      	ldrb	r0, [r4, #6]
                            d->id == lfs_tag_id(attrs[i].tag) &&
 8004a82:	2802      	cmp	r0, #2
 8004a84:	d019      	beq.n	8004aba <lfs_dir_relocatingcommit+0x28e>
                        d->m.pair[0] = LFS_BLOCK_NULL;
 8004a86:	f04f 32ff 	mov.w	r2, #4294967295	@ 0xffffffff
 8004a8a:	60a2      	str	r2, [r4, #8]
                        d->m.pair[1] = LFS_BLOCK_NULL;
 8004a8c:	60e2      	str	r2, [r4, #12]
 8004a8e:	e009      	b.n	8004aa4 <lfs_dir_relocatingcommit+0x278>
                            d->id > lfs_tag_id(attrs[i].tag)) {
 8004a90:	88a0      	ldrh	r0, [r4, #4]
    return (tag & 0x000ffc00) >> 10;
 8004a92:	f3c1 2c89 	ubfx	ip, r1, #10, #10
                    } else if (lfs_tag_type3(attrs[i].tag) == LFS_TYPE_DELETE &&
 8004a96:	4560      	cmp	r0, ip
 8004a98:	d913      	bls.n	8004ac2 <lfs_dir_relocatingcommit+0x296>
                        d->id -= 1;
 8004a9a:	3801      	subs	r0, #1
 8004a9c:	80a0      	strh	r0, [r4, #4]
                        if (d->type == LFS_TYPE_DIR) {
 8004a9e:	79a2      	ldrb	r2, [r4, #6]
 8004aa0:	2a02      	cmp	r2, #2
 8004aa2:	d020      	beq.n	8004ae6 <lfs_dir_relocatingcommit+0x2ba>
                for (int i = 0; i < attrcount; i++) {
 8004aa4:	3301      	adds	r3, #1
 8004aa6:	4543      	cmp	r3, r8
 8004aa8:	da3a      	bge.n	8004b20 <lfs_dir_relocatingcommit+0x2f4>
                    if (lfs_tag_type3(attrs[i].tag) == LFS_TYPE_DELETE &&
 8004aaa:	f855 1033 	ldr.w	r1, [r5, r3, lsl #3]
    return (tag & 0x7ff00000) >> 20;
 8004aae:	f3c1 520a 	ubfx	r2, r1, #20, #11
                    if (lfs_tag_type3(attrs[i].tag) == LFS_TYPE_DELETE &&
 8004ab2:	f240 40ff 	movw	r0, #1279	@ 0x4ff
 8004ab6:	4282      	cmp	r2, r0
 8004ab8:	d0dc      	beq.n	8004a74 <lfs_dir_relocatingcommit+0x248>
                    } else if (lfs_tag_type3(attrs[i].tag) == LFS_TYPE_DELETE &&
 8004aba:	f240 40ff 	movw	r0, #1279	@ 0x4ff
 8004abe:	4282      	cmp	r2, r0
 8004ac0:	d0e6      	beq.n	8004a90 <lfs_dir_relocatingcommit+0x264>
                    } else if (lfs_tag_type3(attrs[i].tag) == LFS_TYPE_CREATE &&
 8004ac2:	f240 4001 	movw	r0, #1025	@ 0x401
 8004ac6:	4282      	cmp	r2, r0
 8004ac8:	d1ec      	bne.n	8004aa4 <lfs_dir_relocatingcommit+0x278>
                            d->id >= lfs_tag_id(attrs[i].tag)) {
 8004aca:	88a2      	ldrh	r2, [r4, #4]
    return (tag & 0x000ffc00) >> 10;
 8004acc:	f3c1 2189 	ubfx	r1, r1, #10, #10
                    } else if (lfs_tag_type3(attrs[i].tag) == LFS_TYPE_CREATE &&
 8004ad0:	428a      	cmp	r2, r1
 8004ad2:	d3e7      	bcc.n	8004aa4 <lfs_dir_relocatingcommit+0x278>
                        d->id += 1;
 8004ad4:	3201      	adds	r2, #1
 8004ad6:	80a2      	strh	r2, [r4, #4]
                        if (d->type == LFS_TYPE_DIR) {
 8004ad8:	79a2      	ldrb	r2, [r4, #6]
 8004ada:	2a02      	cmp	r2, #2
 8004adc:	d1e2      	bne.n	8004aa4 <lfs_dir_relocatingcommit+0x278>
                            ((lfs_dir_t*)d)->pos += 1;
 8004ade:	6aa2      	ldr	r2, [r4, #40]	@ 0x28
 8004ae0:	3201      	adds	r2, #1
 8004ae2:	62a2      	str	r2, [r4, #40]	@ 0x28
 8004ae4:	e7de      	b.n	8004aa4 <lfs_dir_relocatingcommit+0x278>
                            ((lfs_dir_t*)d)->pos -= 1;
 8004ae6:	6aa2      	ldr	r2, [r4, #40]	@ 0x28
 8004ae8:	3a01      	subs	r2, #1
 8004aea:	62a2      	str	r2, [r4, #40]	@ 0x28
 8004aec:	e7da      	b.n	8004aa4 <lfs_dir_relocatingcommit+0x278>
 8004aee:	bf00      	nop
 8004af0:	0800741c 	.word	0x0800741c
 8004af4:	08007de0 	.word	0x08007de0
 8004af8:	080070fc 	.word	0x080070fc
 8004afc:	0800742c 	.word	0x0800742c
 8004b00:	0800415b 	.word	0x0800415b
 8004b04:	7ffffc0c 	.word	0x7ffffc0c
 8004b08:	08007330 	.word	0x08007330
                int err = lfs_dir_fetch(lfs, &d->m, d->m.tail);
 8004b0c:	f104 0220 	add.w	r2, r4, #32
 8004b10:	f104 0108 	add.w	r1, r4, #8
 8004b14:	4638      	mov	r0, r7
 8004b16:	f7fe fe23 	bl	8003760 <lfs_dir_fetch>
                if (err) {
 8004b1a:	4603      	mov	r3, r0
 8004b1c:	2800      	cmp	r0, #0
 8004b1e:	d137      	bne.n	8004b90 <lfs_dir_relocatingcommit+0x364>
            while (d->id >= d->m.count && d->m.split) {
 8004b20:	88a3      	ldrh	r3, [r4, #4]
 8004b22:	8ba1      	ldrh	r1, [r4, #28]
 8004b24:	428b      	cmp	r3, r1
 8004b26:	d312      	bcc.n	8004b4e <lfs_dir_relocatingcommit+0x322>
 8004b28:	7fe2      	ldrb	r2, [r4, #31]
 8004b2a:	b182      	cbz	r2, 8004b4e <lfs_dir_relocatingcommit+0x322>
    return !(paira[0] == pairb[0] || paira[1] == pairb[1] ||
 8004b2c:	6a22      	ldr	r2, [r4, #32]
 8004b2e:	6a38      	ldr	r0, [r7, #32]
 8004b30:	4282      	cmp	r2, r0
 8004b32:	d0eb      	beq.n	8004b0c <lfs_dir_relocatingcommit+0x2e0>
 8004b34:	f8d4 e024 	ldr.w	lr, [r4, #36]	@ 0x24
 8004b38:	f8d7 c024 	ldr.w	ip, [r7, #36]	@ 0x24
 8004b3c:	45e6      	cmp	lr, ip
 8004b3e:	d0e5      	beq.n	8004b0c <lfs_dir_relocatingcommit+0x2e0>
 8004b40:	4562      	cmp	r2, ip
 8004b42:	d0e3      	beq.n	8004b0c <lfs_dir_relocatingcommit+0x2e0>
 8004b44:	4570      	cmp	r0, lr
 8004b46:	d0e1      	beq.n	8004b0c <lfs_dir_relocatingcommit+0x2e0>
                    d->id -= d->m.count;
 8004b48:	1a5b      	subs	r3, r3, r1
 8004b4a:	80a3      	strh	r3, [r4, #4]
 8004b4c:	e7de      	b.n	8004b0c <lfs_dir_relocatingcommit+0x2e0>
    for (struct lfs_mlist *d = lfs->mlist; d; d = d->next) {
 8004b4e:	6824      	ldr	r4, [r4, #0]
 8004b50:	b1d4      	cbz	r4, 8004b88 <lfs_dir_relocatingcommit+0x35c>
    return !(paira[0] == pairb[0] || paira[1] == pairb[1] ||
 8004b52:	68a3      	ldr	r3, [r4, #8]
 8004b54:	459a      	cmp	sl, r3
 8004b56:	d006      	beq.n	8004b66 <lfs_dir_relocatingcommit+0x33a>
 8004b58:	68e2      	ldr	r2, [r4, #12]
 8004b5a:	4593      	cmp	fp, r2
 8004b5c:	d003      	beq.n	8004b66 <lfs_dir_relocatingcommit+0x33a>
 8004b5e:	459b      	cmp	fp, r3
 8004b60:	d001      	beq.n	8004b66 <lfs_dir_relocatingcommit+0x33a>
 8004b62:	4592      	cmp	sl, r2
 8004b64:	d1f3      	bne.n	8004b4e <lfs_dir_relocatingcommit+0x322>
            d->m = *dir;
 8004b66:	f104 0c08 	add.w	ip, r4, #8
 8004b6a:	46b6      	mov	lr, r6
 8004b6c:	e8be 000f 	ldmia.w	lr!, {r0, r1, r2, r3}
 8004b70:	e8ac 000f 	stmia.w	ip!, {r0, r1, r2, r3}
 8004b74:	e89e 000f 	ldmia.w	lr, {r0, r1, r2, r3}
 8004b78:	e88c 000f 	stmia.w	ip, {r0, r1, r2, r3}
            if (d->m.pair != pair) {
 8004b7c:	f104 0308 	add.w	r3, r4, #8
 8004b80:	454b      	cmp	r3, r9
 8004b82:	d0cd      	beq.n	8004b20 <lfs_dir_relocatingcommit+0x2f4>
                for (int i = 0; i < attrcount; i++) {
 8004b84:	2300      	movs	r3, #0
 8004b86:	e78e      	b.n	8004aa6 <lfs_dir_relocatingcommit+0x27a>
    return state;
 8004b88:	9d0b      	ldr	r5, [sp, #44]	@ 0x2c
 8004b8a:	462b      	mov	r3, r5
 8004b8c:	e000      	b.n	8004b90 <lfs_dir_relocatingcommit+0x364>
        return state;
 8004b8e:	462b      	mov	r3, r5
}
 8004b90:	4618      	mov	r0, r3
 8004b92:	b01b      	add	sp, #108	@ 0x6c
 8004b94:	e8bd 8ff0 	ldmia.w	sp!, {r4, r5, r6, r7, r8, r9, sl, fp, pc}

08004b98 <lfs_dir_orphaningcommit>:
        const struct lfs_mattr *attrs, int attrcount) {
 8004b98:	e92d 43f0 	stmdb	sp!, {r4, r5, r6, r7, r8, r9, lr}
 8004b9c:	b0a3      	sub	sp, #140	@ 0x8c
 8004b9e:	4605      	mov	r5, r0
 8004ba0:	460e      	mov	r6, r1
 8004ba2:	4690      	mov	r8, r2
 8004ba4:	4699      	mov	r9, r3
    for (lfs_file_t *f = (lfs_file_t*)lfs->mlist; f; f = f->next) {
 8004ba6:	6a84      	ldr	r4, [r0, #40]	@ 0x28
 8004ba8:	e003      	b.n	8004bb2 <lfs_dir_orphaningcommit+0x1a>
                f->type == LFS_TYPE_REG && (f->flags & LFS_F_INLINE) &&
 8004baa:	79a3      	ldrb	r3, [r4, #6]
        if (dir != &f->m && lfs_pair_cmp(f->m.pair, dir->pair) == 0 &&
 8004bac:	2b01      	cmp	r3, #1
 8004bae:	d012      	beq.n	8004bd6 <lfs_dir_orphaningcommit+0x3e>
    for (lfs_file_t *f = (lfs_file_t*)lfs->mlist; f; f = f->next) {
 8004bb0:	6824      	ldr	r4, [r4, #0]
 8004bb2:	b34c      	cbz	r4, 8004c08 <lfs_dir_orphaningcommit+0x70>
        if (dir != &f->m && lfs_pair_cmp(f->m.pair, dir->pair) == 0 &&
 8004bb4:	f104 0108 	add.w	r1, r4, #8
 8004bb8:	42b1      	cmp	r1, r6
 8004bba:	d0f9      	beq.n	8004bb0 <lfs_dir_orphaningcommit+0x18>
    return !(paira[0] == pairb[0] || paira[1] == pairb[1] ||
 8004bbc:	68a1      	ldr	r1, [r4, #8]
 8004bbe:	6833      	ldr	r3, [r6, #0]
 8004bc0:	428b      	cmp	r3, r1
 8004bc2:	d0f2      	beq.n	8004baa <lfs_dir_orphaningcommit+0x12>
 8004bc4:	68e0      	ldr	r0, [r4, #12]
 8004bc6:	6872      	ldr	r2, [r6, #4]
 8004bc8:	4282      	cmp	r2, r0
 8004bca:	d0ee      	beq.n	8004baa <lfs_dir_orphaningcommit+0x12>
 8004bcc:	428a      	cmp	r2, r1
 8004bce:	d0ec      	beq.n	8004baa <lfs_dir_orphaningcommit+0x12>
 8004bd0:	4298      	cmp	r0, r3
 8004bd2:	d1ed      	bne.n	8004bb0 <lfs_dir_orphaningcommit+0x18>
 8004bd4:	e7e9      	b.n	8004baa <lfs_dir_orphaningcommit+0x12>
                f->type == LFS_TYPE_REG && (f->flags & LFS_F_INLINE) &&
 8004bd6:	6b23      	ldr	r3, [r4, #48]	@ 0x30
 8004bd8:	f013 7f80 	tst.w	r3, #16777216	@ 0x1000000
 8004bdc:	d0e8      	beq.n	8004bb0 <lfs_dir_orphaningcommit+0x18>
                f->ctz.size > lfs->cfg->cache_size) {
 8004bde:	6ae2      	ldr	r2, [r4, #44]	@ 0x2c
 8004be0:	6eab      	ldr	r3, [r5, #104]	@ 0x68
 8004be2:	6a9b      	ldr	r3, [r3, #40]	@ 0x28
                f->type == LFS_TYPE_REG && (f->flags & LFS_F_INLINE) &&
 8004be4:	429a      	cmp	r2, r3
 8004be6:	d9e3      	bls.n	8004bb0 <lfs_dir_orphaningcommit+0x18>
            int err = lfs_file_outline(lfs, f);
 8004be8:	4621      	mov	r1, r4
 8004bea:	4628      	mov	r0, r5
 8004bec:	f7fe ffdc 	bl	8003ba8 <lfs_file_outline>
            if (err) {
 8004bf0:	4607      	mov	r7, r0
 8004bf2:	2800      	cmp	r0, #0
 8004bf4:	f040 81bc 	bne.w	8004f70 <lfs_dir_orphaningcommit+0x3d8>
            err = lfs_file_flush(lfs, f);
 8004bf8:	4621      	mov	r1, r4
 8004bfa:	4628      	mov	r0, r5
 8004bfc:	f7ff f954 	bl	8003ea8 <lfs_file_flush>
            if (err) {
 8004c00:	4607      	mov	r7, r0
 8004c02:	2800      	cmp	r0, #0
 8004c04:	d0d4      	beq.n	8004bb0 <lfs_dir_orphaningcommit+0x18>
 8004c06:	e1b3      	b.n	8004f70 <lfs_dir_orphaningcommit+0x3d8>
    lfs_block_t lpair[2] = {dir->pair[0], dir->pair[1]};
 8004c08:	6833      	ldr	r3, [r6, #0]
 8004c0a:	9316      	str	r3, [sp, #88]	@ 0x58
 8004c0c:	6873      	ldr	r3, [r6, #4]
 8004c0e:	9317      	str	r3, [sp, #92]	@ 0x5c
    lfs_mdir_t ldir = *dir;
 8004c10:	ac0e      	add	r4, sp, #56	@ 0x38
 8004c12:	4637      	mov	r7, r6
 8004c14:	cf0f      	ldmia	r7!, {r0, r1, r2, r3}
 8004c16:	c40f      	stmia	r4!, {r0, r1, r2, r3}
 8004c18:	e897 000f 	ldmia.w	r7, {r0, r1, r2, r3}
 8004c1c:	e884 000f 	stmia.w	r4, {r0, r1, r2, r3}
    int state = lfs_dir_relocatingcommit(lfs, &ldir, dir->pair,
 8004c20:	ab06      	add	r3, sp, #24
 8004c22:	9301      	str	r3, [sp, #4]
 8004c24:	f8cd 9000 	str.w	r9, [sp]
 8004c28:	4643      	mov	r3, r8
 8004c2a:	4632      	mov	r2, r6
 8004c2c:	a90e      	add	r1, sp, #56	@ 0x38
 8004c2e:	4628      	mov	r0, r5
 8004c30:	f7ff fdfc 	bl	800482c <lfs_dir_relocatingcommit>
    if (state < 0) {
 8004c34:	1e07      	subs	r7, r0, #0
 8004c36:	f2c0 819b 	blt.w	8004f70 <lfs_dir_orphaningcommit+0x3d8>
    return !(paira[0] == pairb[0] || paira[1] == pairb[1] ||
 8004c3a:	6833      	ldr	r3, [r6, #0]
 8004c3c:	9a16      	ldr	r2, [sp, #88]	@ 0x58
 8004c3e:	429a      	cmp	r2, r3
 8004c40:	d007      	beq.n	8004c52 <lfs_dir_orphaningcommit+0xba>
 8004c42:	6870      	ldr	r0, [r6, #4]
 8004c44:	9917      	ldr	r1, [sp, #92]	@ 0x5c
 8004c46:	4281      	cmp	r1, r0
 8004c48:	d003      	beq.n	8004c52 <lfs_dir_orphaningcommit+0xba>
 8004c4a:	4299      	cmp	r1, r3
 8004c4c:	d001      	beq.n	8004c52 <lfs_dir_orphaningcommit+0xba>
 8004c4e:	4290      	cmp	r0, r2
 8004c50:	d109      	bne.n	8004c66 <lfs_dir_orphaningcommit+0xce>
        *dir = ldir;
 8004c52:	4634      	mov	r4, r6
 8004c54:	f10d 0c38 	add.w	ip, sp, #56	@ 0x38
 8004c58:	e8bc 000f 	ldmia.w	ip!, {r0, r1, r2, r3}
 8004c5c:	c40f      	stmia	r4!, {r0, r1, r2, r3}
 8004c5e:	e89c 000f 	ldmia.w	ip, {r0, r1, r2, r3}
 8004c62:	e884 000f 	stmia.w	r4, {r0, r1, r2, r3}
    if (state == LFS_OK_DROPPED) {
 8004c66:	2f02      	cmp	r7, #2
 8004c68:	d001      	beq.n	8004c6e <lfs_dir_orphaningcommit+0xd6>
                orphans = true;
 8004c6a:	2600      	movs	r6, #0
 8004c6c:	e0b7      	b.n	8004dde <lfs_dir_orphaningcommit+0x246>
        int err = lfs_dir_getgstate(lfs, dir, &lfs->gdelta);
 8004c6e:	f105 0248 	add.w	r2, r5, #72	@ 0x48
 8004c72:	4631      	mov	r1, r6
 8004c74:	4628      	mov	r0, r5
 8004c76:	f7fd fd9f 	bl	80027b8 <lfs_dir_getgstate>
        if (err) {
 8004c7a:	4607      	mov	r7, r0
 8004c7c:	2800      	cmp	r0, #0
 8004c7e:	f040 8177 	bne.w	8004f70 <lfs_dir_orphaningcommit+0x3d8>
        lpair[0] = pdir.pair[0];
 8004c82:	9b06      	ldr	r3, [sp, #24]
 8004c84:	9316      	str	r3, [sp, #88]	@ 0x58
        lpair[1] = pdir.pair[1];
 8004c86:	9b07      	ldr	r3, [sp, #28]
 8004c88:	9317      	str	r3, [sp, #92]	@ 0x5c
        state = lfs_dir_relocatingcommit(lfs, &pdir, lpair, LFS_MKATTRS(
 8004c8a:	7df2      	ldrb	r2, [r6, #23]
 8004c8c:	f502 62c0 	add.w	r2, r2, #1536	@ 0x600
 8004c90:	4ba3      	ldr	r3, [pc, #652]	@ (8004f20 <lfs_dir_orphaningcommit+0x388>)
 8004c92:	ea43 5302 	orr.w	r3, r3, r2, lsl #20
 8004c96:	9318      	str	r3, [sp, #96]	@ 0x60
 8004c98:	3618      	adds	r6, #24
 8004c9a:	9619      	str	r6, [sp, #100]	@ 0x64
 8004c9c:	2300      	movs	r3, #0
 8004c9e:	9301      	str	r3, [sp, #4]
 8004ca0:	2301      	movs	r3, #1
 8004ca2:	9300      	str	r3, [sp, #0]
 8004ca4:	ab18      	add	r3, sp, #96	@ 0x60
 8004ca6:	aa16      	add	r2, sp, #88	@ 0x58
 8004ca8:	a906      	add	r1, sp, #24
 8004caa:	4628      	mov	r0, r5
 8004cac:	f7ff fdbe 	bl	800482c <lfs_dir_relocatingcommit>
        if (state < 0) {
 8004cb0:	1e07      	subs	r7, r0, #0
 8004cb2:	f2c0 815d 	blt.w	8004f70 <lfs_dir_orphaningcommit+0x3d8>
        ldir = pdir;
 8004cb6:	ac0e      	add	r4, sp, #56	@ 0x38
 8004cb8:	ae06      	add	r6, sp, #24
 8004cba:	ce0f      	ldmia	r6!, {r0, r1, r2, r3}
 8004cbc:	c40f      	stmia	r4!, {r0, r1, r2, r3}
 8004cbe:	e896 000f 	ldmia.w	r6, {r0, r1, r2, r3}
 8004cc2:	e884 000f 	stmia.w	r4, {r0, r1, r2, r3}
 8004cc6:	e7d0      	b.n	8004c6a <lfs_dir_orphaningcommit+0xd2>
                d->m.pair[0] = ldir.pair[0];
 8004cc8:	9a0e      	ldr	r2, [sp, #56]	@ 0x38
 8004cca:	609a      	str	r2, [r3, #8]
                d->m.pair[1] = ldir.pair[1];
 8004ccc:	9a0f      	ldr	r2, [sp, #60]	@ 0x3c
 8004cce:	60da      	str	r2, [r3, #12]
            if (d->type == LFS_TYPE_DIR &&
 8004cd0:	799a      	ldrb	r2, [r3, #6]
 8004cd2:	2a02      	cmp	r2, #2
 8004cd4:	d00d      	beq.n	8004cf2 <lfs_dir_orphaningcommit+0x15a>
        for (struct lfs_mlist *d = lfs->mlist; d; d = d->next) {
 8004cd6:	681b      	ldr	r3, [r3, #0]
 8004cd8:	b1db      	cbz	r3, 8004d12 <lfs_dir_orphaningcommit+0x17a>
    return !(paira[0] == pairb[0] || paira[1] == pairb[1] ||
 8004cda:	689a      	ldr	r2, [r3, #8]
 8004cdc:	4291      	cmp	r1, r2
 8004cde:	d0f3      	beq.n	8004cc8 <lfs_dir_orphaningcommit+0x130>
 8004ce0:	9817      	ldr	r0, [sp, #92]	@ 0x5c
 8004ce2:	68dc      	ldr	r4, [r3, #12]
 8004ce4:	4284      	cmp	r4, r0
 8004ce6:	d0ef      	beq.n	8004cc8 <lfs_dir_orphaningcommit+0x130>
 8004ce8:	428c      	cmp	r4, r1
 8004cea:	d0ed      	beq.n	8004cc8 <lfs_dir_orphaningcommit+0x130>
 8004cec:	4290      	cmp	r0, r2
 8004cee:	d1ef      	bne.n	8004cd0 <lfs_dir_orphaningcommit+0x138>
 8004cf0:	e7ea      	b.n	8004cc8 <lfs_dir_orphaningcommit+0x130>
 8004cf2:	6ada      	ldr	r2, [r3, #44]	@ 0x2c
 8004cf4:	428a      	cmp	r2, r1
 8004cf6:	d007      	beq.n	8004d08 <lfs_dir_orphaningcommit+0x170>
 8004cf8:	9c17      	ldr	r4, [sp, #92]	@ 0x5c
 8004cfa:	6b18      	ldr	r0, [r3, #48]	@ 0x30
 8004cfc:	42a0      	cmp	r0, r4
 8004cfe:	d003      	beq.n	8004d08 <lfs_dir_orphaningcommit+0x170>
 8004d00:	4288      	cmp	r0, r1
 8004d02:	d001      	beq.n	8004d08 <lfs_dir_orphaningcommit+0x170>
 8004d04:	4294      	cmp	r4, r2
 8004d06:	d1e6      	bne.n	8004cd6 <lfs_dir_orphaningcommit+0x13e>
                ((lfs_dir_t*)d)->head[0] = ldir.pair[0];
 8004d08:	9a0e      	ldr	r2, [sp, #56]	@ 0x38
 8004d0a:	62da      	str	r2, [r3, #44]	@ 0x2c
                ((lfs_dir_t*)d)->head[1] = ldir.pair[1];
 8004d0c:	9a0f      	ldr	r2, [sp, #60]	@ 0x3c
 8004d0e:	631a      	str	r2, [r3, #48]	@ 0x30
 8004d10:	e7e1      	b.n	8004cd6 <lfs_dir_orphaningcommit+0x13e>
        lfs_stag_t tag = lfs_fs_parent(lfs, lpair, &pdir);
 8004d12:	aa06      	add	r2, sp, #24
 8004d14:	a916      	add	r1, sp, #88	@ 0x58
 8004d16:	4628      	mov	r0, r5
 8004d18:	f7fe fcdc 	bl	80036d4 <lfs_fs_parent>
        if (tag < 0 && tag != LFS_ERR_NOENT) {
 8004d1c:	1e04      	subs	r4, r0, #0
 8004d1e:	f280 8082 	bge.w	8004e26 <lfs_dir_orphaningcommit+0x28e>
 8004d22:	f114 0f02 	cmn.w	r4, #2
 8004d26:	f040 8129 	bne.w	8004f7c <lfs_dir_orphaningcommit+0x3e4>
        bool hasparent = (tag != LFS_ERR_NOENT);
 8004d2a:	f114 0802 	adds.w	r8, r4, #2
 8004d2e:	bf18      	it	ne
 8004d30:	f04f 0801 	movne.w	r8, #1
        state = 0;
 8004d34:	2700      	movs	r7, #0
        int err = lfs_fs_pred(lfs, lpair, &pdir);
 8004d36:	aa06      	add	r2, sp, #24
 8004d38:	a916      	add	r1, sp, #88	@ 0x58
 8004d3a:	4628      	mov	r0, r5
 8004d3c:	f7ff f94a 	bl	8003fd4 <lfs_fs_pred>
        if (err && err != LFS_ERR_NOENT) {
 8004d40:	4603      	mov	r3, r0
 8004d42:	b118      	cbz	r0, 8004d4c <lfs_dir_orphaningcommit+0x1b4>
 8004d44:	f110 0f02 	cmn.w	r0, #2
 8004d48:	f040 811a 	bne.w	8004f80 <lfs_dir_orphaningcommit+0x3e8>
        LFS_ASSERT(!(hasparent && err == LFS_ERR_NOENT));
 8004d4c:	f114 0f02 	cmn.w	r4, #2
 8004d50:	f000 80d6 	beq.w	8004f00 <lfs_dir_orphaningcommit+0x368>
 8004d54:	f113 0f02 	cmn.w	r3, #2
 8004d58:	f000 80cb 	beq.w	8004ef2 <lfs_dir_orphaningcommit+0x35a>
    return lfs_tag_size(a->tag);
 8004d5c:	6b2b      	ldr	r3, [r5, #48]	@ 0x30
    return tag & 0x000003ff;
 8004d5e:	f3c3 0309 	ubfx	r3, r3, #0, #10
            if (lfs_gstate_hasorphans(&lfs->gstate)) {
 8004d62:	2b00      	cmp	r3, #0
 8004d64:	f040 80d1 	bne.w	8004f0a <lfs_dir_orphaningcommit+0x372>
            if (lfs_gstate_hasmovehere(&lfs->gstate, pdir.pair)) {
 8004d68:	a906      	add	r1, sp, #24
 8004d6a:	f105 0030 	add.w	r0, r5, #48	@ 0x30
 8004d6e:	f7fd f9d5 	bl	800211c <lfs_gstate_hasmovehere>
 8004d72:	2800      	cmp	r0, #0
 8004d74:	f040 80e2 	bne.w	8004f3c <lfs_dir_orphaningcommit+0x3a4>
            uint16_t moveid = 0x3ff;
 8004d78:	f240 34ff 	movw	r4, #1023	@ 0x3ff
            lpair[0] = pdir.pair[0];
 8004d7c:	9b06      	ldr	r3, [sp, #24]
 8004d7e:	9316      	str	r3, [sp, #88]	@ 0x58
            lpair[1] = pdir.pair[1];
 8004d80:	9b07      	ldr	r3, [sp, #28]
 8004d82:	9317      	str	r3, [sp, #92]	@ 0x5c
            state = lfs_dir_relocatingcommit(lfs, &pdir, lpair, LFS_MKATTRS(
 8004d84:	f240 33ff 	movw	r3, #1023	@ 0x3ff
 8004d88:	429c      	cmp	r4, r3
 8004d8a:	f000 80ed 	beq.w	8004f68 <lfs_dir_orphaningcommit+0x3d0>
 8004d8e:	02a3      	lsls	r3, r4, #10
 8004d90:	f043 439f 	orr.w	r3, r3, #1333788672	@ 0x4f800000
 8004d94:	f443 03e0 	orr.w	r3, r3, #7340032	@ 0x700000
 8004d98:	931e      	str	r3, [sp, #120]	@ 0x78
 8004d9a:	2100      	movs	r1, #0
 8004d9c:	911f      	str	r1, [sp, #124]	@ 0x7c
 8004d9e:	f89d 202f 	ldrb.w	r2, [sp, #47]	@ 0x2f
 8004da2:	f502 62c0 	add.w	r2, r2, #1536	@ 0x600
 8004da6:	4b5e      	ldr	r3, [pc, #376]	@ (8004f20 <lfs_dir_orphaningcommit+0x388>)
 8004da8:	ea43 5302 	orr.w	r3, r3, r2, lsl #20
 8004dac:	9320      	str	r3, [sp, #128]	@ 0x80
 8004dae:	ab0e      	add	r3, sp, #56	@ 0x38
 8004db0:	9321      	str	r3, [sp, #132]	@ 0x84
 8004db2:	9101      	str	r1, [sp, #4]
 8004db4:	2302      	movs	r3, #2
 8004db6:	9300      	str	r3, [sp, #0]
 8004db8:	ab1e      	add	r3, sp, #120	@ 0x78
 8004dba:	aa16      	add	r2, sp, #88	@ 0x58
 8004dbc:	a906      	add	r1, sp, #24
 8004dbe:	4628      	mov	r0, r5
 8004dc0:	f7ff fd34 	bl	800482c <lfs_dir_relocatingcommit>
            if (state < 0) {
 8004dc4:	1e07      	subs	r7, r0, #0
 8004dc6:	f2c0 80d3 	blt.w	8004f70 <lfs_dir_orphaningcommit+0x3d8>
            ldir = pdir;
 8004dca:	ac0e      	add	r4, sp, #56	@ 0x38
 8004dcc:	f10d 0c18 	add.w	ip, sp, #24
 8004dd0:	e8bc 000f 	ldmia.w	ip!, {r0, r1, r2, r3}
 8004dd4:	c40f      	stmia	r4!, {r0, r1, r2, r3}
 8004dd6:	e89c 000f 	ldmia.w	ip, {r0, r1, r2, r3}
 8004dda:	e884 000f 	stmia.w	r4, {r0, r1, r2, r3}
    while (state == LFS_OK_RELOCATED) {
 8004dde:	2f01      	cmp	r7, #1
 8004de0:	f040 80c4 	bne.w	8004f6c <lfs_dir_orphaningcommit+0x3d4>
        LFS_DEBUG("Relocating {0x%"PRIx32", 0x%"PRIx32"} "
 8004de4:	4b4f      	ldr	r3, [pc, #316]	@ (8004f24 <lfs_dir_orphaningcommit+0x38c>)
 8004de6:	9303      	str	r3, [sp, #12]
 8004de8:	9b0f      	ldr	r3, [sp, #60]	@ 0x3c
 8004dea:	9302      	str	r3, [sp, #8]
 8004dec:	9b0e      	ldr	r3, [sp, #56]	@ 0x38
 8004dee:	9301      	str	r3, [sp, #4]
 8004df0:	9b17      	ldr	r3, [sp, #92]	@ 0x5c
 8004df2:	9300      	str	r3, [sp, #0]
 8004df4:	9b16      	ldr	r3, [sp, #88]	@ 0x58
 8004df6:	f640 12ab 	movw	r2, #2475	@ 0x9ab
 8004dfa:	494b      	ldr	r1, [pc, #300]	@ (8004f28 <lfs_dir_orphaningcommit+0x390>)
 8004dfc:	484b      	ldr	r0, [pc, #300]	@ (8004f2c <lfs_dir_orphaningcommit+0x394>)
 8004dfe:	f001 f9fb 	bl	80061f8 <iprintf>
    return !(paira[0] == pairb[0] || paira[1] == pairb[1] ||
 8004e02:	9916      	ldr	r1, [sp, #88]	@ 0x58
 8004e04:	6a2b      	ldr	r3, [r5, #32]
 8004e06:	428b      	cmp	r3, r1
 8004e08:	d007      	beq.n	8004e1a <lfs_dir_orphaningcommit+0x282>
 8004e0a:	9817      	ldr	r0, [sp, #92]	@ 0x5c
 8004e0c:	6a6a      	ldr	r2, [r5, #36]	@ 0x24
 8004e0e:	4282      	cmp	r2, r0
 8004e10:	d003      	beq.n	8004e1a <lfs_dir_orphaningcommit+0x282>
 8004e12:	428a      	cmp	r2, r1
 8004e14:	d001      	beq.n	8004e1a <lfs_dir_orphaningcommit+0x282>
 8004e16:	4298      	cmp	r0, r3
 8004e18:	d103      	bne.n	8004e22 <lfs_dir_orphaningcommit+0x28a>
            lfs->root[0] = ldir.pair[0];
 8004e1a:	9b0e      	ldr	r3, [sp, #56]	@ 0x38
 8004e1c:	622b      	str	r3, [r5, #32]
            lfs->root[1] = ldir.pair[1];
 8004e1e:	9b0f      	ldr	r3, [sp, #60]	@ 0x3c
 8004e20:	626b      	str	r3, [r5, #36]	@ 0x24
        for (struct lfs_mlist *d = lfs->mlist; d; d = d->next) {
 8004e22:	6aab      	ldr	r3, [r5, #40]	@ 0x28
 8004e24:	e758      	b.n	8004cd8 <lfs_dir_orphaningcommit+0x140>
        bool hasparent = (tag != LFS_ERR_NOENT);
 8004e26:	f114 0802 	adds.w	r8, r4, #2
 8004e2a:	bf18      	it	ne
 8004e2c:	f04f 0801 	movne.w	r8, #1
            int err = lfs_fs_preporphans(lfs, +1);
 8004e30:	2101      	movs	r1, #1
 8004e32:	4628      	mov	r0, r5
 8004e34:	f7fd fa70 	bl	8002318 <lfs_fs_preporphans>
            if (err) {
 8004e38:	4607      	mov	r7, r0
 8004e3a:	2800      	cmp	r0, #0
 8004e3c:	f040 8098 	bne.w	8004f70 <lfs_dir_orphaningcommit+0x3d8>
            if (lfs_gstate_hasmovehere(&lfs->gstate, pdir.pair)) {
 8004e40:	a906      	add	r1, sp, #24
 8004e42:	f105 0030 	add.w	r0, r5, #48	@ 0x30
 8004e46:	f7fd f969 	bl	800211c <lfs_gstate_hasmovehere>
 8004e4a:	2800      	cmp	r0, #0
 8004e4c:	d131      	bne.n	8004eb2 <lfs_dir_orphaningcommit+0x31a>
        lfs_stag_t tag = lfs_fs_parent(lfs, lpair, &pdir);
 8004e4e:	4622      	mov	r2, r4
            uint16_t moveid = 0x3ff;
 8004e50:	f240 37ff 	movw	r7, #1023	@ 0x3ff
            lfs_block_t ppair[2] = {pdir.pair[0], pdir.pair[1]};
 8004e54:	9b06      	ldr	r3, [sp, #24]
 8004e56:	9304      	str	r3, [sp, #16]
 8004e58:	9b07      	ldr	r3, [sp, #28]
 8004e5a:	9305      	str	r3, [sp, #20]
            state = lfs_dir_relocatingcommit(lfs, &pdir, ppair, LFS_MKATTRS(
 8004e5c:	f240 33ff 	movw	r3, #1023	@ 0x3ff
 8004e60:	429f      	cmp	r7, r3
 8004e62:	d044      	beq.n	8004eee <lfs_dir_orphaningcommit+0x356>
 8004e64:	02bb      	lsls	r3, r7, #10
 8004e66:	f043 439f 	orr.w	r3, r3, #1333788672	@ 0x4f800000
 8004e6a:	f443 03e0 	orr.w	r3, r3, #7340032	@ 0x700000
 8004e6e:	931a      	str	r3, [sp, #104]	@ 0x68
 8004e70:	2300      	movs	r3, #0
 8004e72:	931b      	str	r3, [sp, #108]	@ 0x6c
 8004e74:	921c      	str	r2, [sp, #112]	@ 0x70
 8004e76:	aa0e      	add	r2, sp, #56	@ 0x38
 8004e78:	921d      	str	r2, [sp, #116]	@ 0x74
 8004e7a:	9301      	str	r3, [sp, #4]
 8004e7c:	2302      	movs	r3, #2
 8004e7e:	9300      	str	r3, [sp, #0]
 8004e80:	ab1a      	add	r3, sp, #104	@ 0x68
 8004e82:	aa04      	add	r2, sp, #16
 8004e84:	a906      	add	r1, sp, #24
 8004e86:	4628      	mov	r0, r5
 8004e88:	f7ff fcd0 	bl	800482c <lfs_dir_relocatingcommit>
            if (state < 0) {
 8004e8c:	1e07      	subs	r7, r0, #0
 8004e8e:	db6f      	blt.n	8004f70 <lfs_dir_orphaningcommit+0x3d8>
            if (state == LFS_OK_RELOCATED) {
 8004e90:	2f01      	cmp	r7, #1
 8004e92:	f47f af50 	bne.w	8004d36 <lfs_dir_orphaningcommit+0x19e>
                lpair[0] = ppair[0];
 8004e96:	9b04      	ldr	r3, [sp, #16]
 8004e98:	9316      	str	r3, [sp, #88]	@ 0x58
                lpair[1] = ppair[1];
 8004e9a:	9b05      	ldr	r3, [sp, #20]
 8004e9c:	9317      	str	r3, [sp, #92]	@ 0x5c
                ldir = pdir;
 8004e9e:	ac0e      	add	r4, sp, #56	@ 0x38
 8004ea0:	ae06      	add	r6, sp, #24
 8004ea2:	ce0f      	ldmia	r6!, {r0, r1, r2, r3}
 8004ea4:	c40f      	stmia	r4!, {r0, r1, r2, r3}
 8004ea6:	e896 000f 	ldmia.w	r6, {r0, r1, r2, r3}
 8004eaa:	e884 000f 	stmia.w	r4, {r0, r1, r2, r3}
                orphans = true;
 8004eae:	2601      	movs	r6, #1
 8004eb0:	e795      	b.n	8004dde <lfs_dir_orphaningcommit+0x246>
                moveid = lfs_tag_id(lfs->gstate.tag);
 8004eb2:	6b2f      	ldr	r7, [r5, #48]	@ 0x30
    return (tag & 0x000ffc00) >> 10;
 8004eb4:	f3c7 2789 	ubfx	r7, r7, #10, #10
                LFS_DEBUG("Fixing move while relocating "
 8004eb8:	4b1a      	ldr	r3, [pc, #104]	@ (8004f24 <lfs_dir_orphaningcommit+0x38c>)
 8004eba:	9302      	str	r3, [sp, #8]
 8004ebc:	9701      	str	r7, [sp, #4]
 8004ebe:	9b07      	ldr	r3, [sp, #28]
 8004ec0:	9300      	str	r3, [sp, #0]
 8004ec2:	9b06      	ldr	r3, [sp, #24]
 8004ec4:	f640 12d8 	movw	r2, #2520	@ 0x9d8
 8004ec8:	4917      	ldr	r1, [pc, #92]	@ (8004f28 <lfs_dir_orphaningcommit+0x390>)
 8004eca:	4819      	ldr	r0, [pc, #100]	@ (8004f30 <lfs_dir_orphaningcommit+0x398>)
 8004ecc:	f001 f994 	bl	80061f8 <iprintf>
                lfs_fs_prepmove(lfs, 0x3ff, NULL);
 8004ed0:	2200      	movs	r2, #0
 8004ed2:	f240 31ff 	movw	r1, #1023	@ 0x3ff
 8004ed6:	4628      	mov	r0, r5
 8004ed8:	f7fd f9d9 	bl	800228e <lfs_fs_prepmove>
    return (tag & 0x000ffc00) >> 10;
 8004edc:	f3c4 2389 	ubfx	r3, r4, #10, #10
                if (moveid < lfs_tag_id(tag)) {
 8004ee0:	42bb      	cmp	r3, r7
 8004ee2:	d902      	bls.n	8004eea <lfs_dir_orphaningcommit+0x352>
                    tag -= LFS_MKTAG(0, 1, 0);
 8004ee4:	f5a4 6280 	sub.w	r2, r4, #1024	@ 0x400
 8004ee8:	e7b4      	b.n	8004e54 <lfs_dir_orphaningcommit+0x2bc>
        lfs_stag_t tag = lfs_fs_parent(lfs, lpair, &pdir);
 8004eea:	4622      	mov	r2, r4
 8004eec:	e7b2      	b.n	8004e54 <lfs_dir_orphaningcommit+0x2bc>
            state = lfs_dir_relocatingcommit(lfs, &pdir, ppair, LFS_MKATTRS(
 8004eee:	2300      	movs	r3, #0
 8004ef0:	e7bd      	b.n	8004e6e <lfs_dir_orphaningcommit+0x2d6>
        LFS_ASSERT(!(hasparent && err == LFS_ERR_NOENT));
 8004ef2:	4b10      	ldr	r3, [pc, #64]	@ (8004f34 <lfs_dir_orphaningcommit+0x39c>)
 8004ef4:	4a10      	ldr	r2, [pc, #64]	@ (8004f38 <lfs_dir_orphaningcommit+0x3a0>)
 8004ef6:	f640 11fb 	movw	r1, #2555	@ 0x9fb
 8004efa:	480b      	ldr	r0, [pc, #44]	@ (8004f28 <lfs_dir_orphaningcommit+0x390>)
 8004efc:	f000 ffca 	bl	8005e94 <__assert_func>
        if (err != LFS_ERR_NOENT) {
 8004f00:	f113 0f02 	cmn.w	r3, #2
 8004f04:	f47f af2a 	bne.w	8004d5c <lfs_dir_orphaningcommit+0x1c4>
 8004f08:	e769      	b.n	8004dde <lfs_dir_orphaningcommit+0x246>
                err = lfs_fs_preporphans(lfs, -(int8_t)hasparent);
 8004f0a:	f1c8 0100 	rsb	r1, r8, #0
 8004f0e:	4628      	mov	r0, r5
 8004f10:	f7fd fa02 	bl	8002318 <lfs_fs_preporphans>
                if (err) {
 8004f14:	4607      	mov	r7, r0
 8004f16:	2800      	cmp	r0, #0
 8004f18:	f43f af26 	beq.w	8004d68 <lfs_dir_orphaningcommit+0x1d0>
 8004f1c:	e028      	b.n	8004f70 <lfs_dir_orphaningcommit+0x3d8>
 8004f1e:	bf00      	nop
 8004f20:	000ffc08 	.word	0x000ffc08
 8004f24:	0800708c 	.word	0x0800708c
 8004f28:	080070fc 	.word	0x080070fc
 8004f2c:	08007434 	.word	0x08007434
 8004f30:	08007470 	.word	0x08007470
 8004f34:	080074b4 	.word	0x080074b4
 8004f38:	08007e50 	.word	0x08007e50
                moveid = lfs_tag_id(lfs->gstate.tag);
 8004f3c:	6b2c      	ldr	r4, [r5, #48]	@ 0x30
    return (tag & 0x000ffc00) >> 10;
 8004f3e:	f3c4 2489 	ubfx	r4, r4, #10, #10
                LFS_DEBUG("Fixing move while relocating "
 8004f42:	4b10      	ldr	r3, [pc, #64]	@ (8004f84 <lfs_dir_orphaningcommit+0x3ec>)
 8004f44:	9302      	str	r3, [sp, #8]
 8004f46:	9401      	str	r4, [sp, #4]
 8004f48:	9b07      	ldr	r3, [sp, #28]
 8004f4a:	9300      	str	r3, [sp, #0]
 8004f4c:	9b06      	ldr	r3, [sp, #24]
 8004f4e:	f640 220c 	movw	r2, #2572	@ 0xa0c
 8004f52:	490d      	ldr	r1, [pc, #52]	@ (8004f88 <lfs_dir_orphaningcommit+0x3f0>)
 8004f54:	480d      	ldr	r0, [pc, #52]	@ (8004f8c <lfs_dir_orphaningcommit+0x3f4>)
 8004f56:	f001 f94f 	bl	80061f8 <iprintf>
                lfs_fs_prepmove(lfs, 0x3ff, NULL);
 8004f5a:	2200      	movs	r2, #0
 8004f5c:	f240 31ff 	movw	r1, #1023	@ 0x3ff
 8004f60:	4628      	mov	r0, r5
 8004f62:	f7fd f994 	bl	800228e <lfs_fs_prepmove>
 8004f66:	e709      	b.n	8004d7c <lfs_dir_orphaningcommit+0x1e4>
            state = lfs_dir_relocatingcommit(lfs, &pdir, lpair, LFS_MKATTRS(
 8004f68:	2300      	movs	r3, #0
 8004f6a:	e715      	b.n	8004d98 <lfs_dir_orphaningcommit+0x200>
    return orphans ? LFS_OK_ORPHANED : 0;
 8004f6c:	b926      	cbnz	r6, 8004f78 <lfs_dir_orphaningcommit+0x3e0>
 8004f6e:	2700      	movs	r7, #0
}
 8004f70:	4638      	mov	r0, r7
 8004f72:	b023      	add	sp, #140	@ 0x8c
 8004f74:	e8bd 83f0 	ldmia.w	sp!, {r4, r5, r6, r7, r8, r9, pc}
    return orphans ? LFS_OK_ORPHANED : 0;
 8004f78:	2703      	movs	r7, #3
 8004f7a:	e7f9      	b.n	8004f70 <lfs_dir_orphaningcommit+0x3d8>
            return tag;
 8004f7c:	4627      	mov	r7, r4
 8004f7e:	e7f7      	b.n	8004f70 <lfs_dir_orphaningcommit+0x3d8>
            return err;
 8004f80:	4607      	mov	r7, r0
 8004f82:	e7f5      	b.n	8004f70 <lfs_dir_orphaningcommit+0x3d8>
 8004f84:	0800708c 	.word	0x0800708c
 8004f88:	080070fc 	.word	0x080070fc
 8004f8c:	08007470 	.word	0x08007470

08004f90 <lfs_fs_deorphan>:
static int lfs_fs_deorphan(lfs_t *lfs, bool powerloss) {
 8004f90:	e92d 41f0 	stmdb	sp!, {r4, r5, r6, r7, r8, lr}
 8004f94:	b0a4      	sub	sp, #144	@ 0x90
    return lfs_tag_size(a->tag);
 8004f96:	6b03      	ldr	r3, [r0, #48]	@ 0x30
    return tag & 0x000003ff;
 8004f98:	f3c3 0309 	ubfx	r3, r3, #0, #10
    if (!lfs_gstate_hasorphans(&lfs->gstate)) {
 8004f9c:	2b00      	cmp	r3, #0
 8004f9e:	f000 80e0 	beq.w	8005162 <lfs_fs_deorphan+0x1d2>
 8004fa2:	4606      	mov	r6, r0
 8004fa4:	4688      	mov	r8, r1
    int pass = 0;
 8004fa6:	2400      	movs	r4, #0
 8004fa8:	e0a3      	b.n	80050f2 <lfs_fs_deorphan+0x162>
                lfs_stag_t tag = lfs_fs_parent(lfs, pdir.tail, &parent);
 8004faa:	aa16      	add	r2, sp, #88	@ 0x58
 8004fac:	a90c      	add	r1, sp, #48	@ 0x30
 8004fae:	4630      	mov	r0, r6
 8004fb0:	f7fe fb90 	bl	80036d4 <lfs_fs_parent>
                if (tag < 0 && tag != LFS_ERR_NOENT) {
 8004fb4:	1e05      	subs	r5, r0, #0
 8004fb6:	db3a      	blt.n	800502e <lfs_fs_deorphan+0x9e>
                if (pass == 0 && tag != LFS_ERR_NOENT) {
 8004fb8:	b914      	cbnz	r4, 8004fc0 <lfs_fs_deorphan+0x30>
 8004fba:	f115 0f02 	cmn.w	r5, #2
 8004fbe:	d13a      	bne.n	8005036 <lfs_fs_deorphan+0xa6>
                if (pass == 1 && tag == LFS_ERR_NOENT && powerloss) {
 8004fc0:	2c01      	cmp	r4, #1
 8004fc2:	f040 80b6 	bne.w	8005132 <lfs_fs_deorphan+0x1a2>
 8004fc6:	f115 0f02 	cmn.w	r5, #2
 8004fca:	f040 80b2 	bne.w	8005132 <lfs_fs_deorphan+0x1a2>
 8004fce:	f1b8 0f00 	cmp.w	r8, #0
 8004fd2:	f000 80ae 	beq.w	8005132 <lfs_fs_deorphan+0x1a2>
                    LFS_DEBUG("Fixing orphan {0x%"PRIx32", 0x%"PRIx32"}",
 8004fd6:	4b65      	ldr	r3, [pc, #404]	@ (800516c <lfs_fs_deorphan+0x1dc>)
 8004fd8:	9301      	str	r3, [sp, #4]
 8004fda:	9b0d      	ldr	r3, [sp, #52]	@ 0x34
 8004fdc:	9300      	str	r3, [sp, #0]
 8004fde:	9b0c      	ldr	r3, [sp, #48]	@ 0x30
 8004fe0:	f241 32e2 	movw	r2, #5090	@ 0x13e2
 8004fe4:	4962      	ldr	r1, [pc, #392]	@ (8005170 <lfs_fs_deorphan+0x1e0>)
 8004fe6:	4863      	ldr	r0, [pc, #396]	@ (8005174 <lfs_fs_deorphan+0x1e4>)
 8004fe8:	f001 f906 	bl	80061f8 <iprintf>
                    err = lfs_dir_getgstate(lfs, &dir, &lfs->gdelta);
 8004fec:	f106 0248 	add.w	r2, r6, #72	@ 0x48
 8004ff0:	a90e      	add	r1, sp, #56	@ 0x38
 8004ff2:	4630      	mov	r0, r6
 8004ff4:	f7fd fbe0 	bl	80027b8 <lfs_dir_getgstate>
                    if (err) {
 8004ff8:	4605      	mov	r5, r0
 8004ffa:	2800      	cmp	r0, #0
 8004ffc:	f040 80b2 	bne.w	8005164 <lfs_fs_deorphan+0x1d4>
                    int state = lfs_dir_orphaningcommit(lfs, &pdir, LFS_MKATTRS(
 8005000:	f89d 204f 	ldrb.w	r2, [sp, #79]	@ 0x4f
 8005004:	f502 62c0 	add.w	r2, r2, #1536	@ 0x600
 8005008:	4b5b      	ldr	r3, [pc, #364]	@ (8005178 <lfs_fs_deorphan+0x1e8>)
 800500a:	ea43 5302 	orr.w	r3, r3, r2, lsl #20
 800500e:	9322      	str	r3, [sp, #136]	@ 0x88
 8005010:	ab14      	add	r3, sp, #80	@ 0x50
 8005012:	9323      	str	r3, [sp, #140]	@ 0x8c
 8005014:	2301      	movs	r3, #1
 8005016:	aa22      	add	r2, sp, #136	@ 0x88
 8005018:	a906      	add	r1, sp, #24
 800501a:	4630      	mov	r0, r6
 800501c:	f7ff fdbc 	bl	8004b98 <lfs_dir_orphaningcommit>
                    if (state < 0) {
 8005020:	1e05      	subs	r5, r0, #0
 8005022:	f2c0 809f 	blt.w	8005164 <lfs_fs_deorphan+0x1d4>
                    if (state == LFS_OK_ORPHANED) {
 8005026:	2d03      	cmp	r5, #3
 8005028:	d16f      	bne.n	800510a <lfs_fs_deorphan+0x17a>
                        moreorphans = true;
 800502a:	4647      	mov	r7, r8
                    continue;
 800502c:	e06d      	b.n	800510a <lfs_fs_deorphan+0x17a>
                if (tag < 0 && tag != LFS_ERR_NOENT) {
 800502e:	f115 0f02 	cmn.w	r5, #2
 8005032:	d0c1      	beq.n	8004fb8 <lfs_fs_deorphan+0x28>
 8005034:	e096      	b.n	8005164 <lfs_fs_deorphan+0x1d4>
                    lfs_stag_t state = lfs_dir_get(lfs, &parent,
 8005036:	ab04      	add	r3, sp, #16
 8005038:	9300      	str	r3, [sp, #0]
 800503a:	462b      	mov	r3, r5
 800503c:	4a4f      	ldr	r2, [pc, #316]	@ (800517c <lfs_fs_deorphan+0x1ec>)
 800503e:	a916      	add	r1, sp, #88	@ 0x58
 8005040:	4630      	mov	r0, r6
 8005042:	f7fd fbab 	bl	800279c <lfs_dir_get>
                    if (state < 0) {
 8005046:	2800      	cmp	r0, #0
 8005048:	db4f      	blt.n	80050ea <lfs_fs_deorphan+0x15a>
                    if (!lfs_pair_issync(pair, pdir.tail)) {
 800504a:	a90c      	add	r1, sp, #48	@ 0x30
 800504c:	a804      	add	r0, sp, #16
 800504e:	f7fd f841 	bl	80020d4 <lfs_pair_issync>
 8005052:	2800      	cmp	r0, #0
 8005054:	d1b4      	bne.n	8004fc0 <lfs_fs_deorphan+0x30>
                        LFS_DEBUG("Fixing half-orphan "
 8005056:	4b45      	ldr	r3, [pc, #276]	@ (800516c <lfs_fs_deorphan+0x1dc>)
 8005058:	9303      	str	r3, [sp, #12]
 800505a:	9b05      	ldr	r3, [sp, #20]
 800505c:	9302      	str	r3, [sp, #8]
 800505e:	9b04      	ldr	r3, [sp, #16]
 8005060:	9301      	str	r3, [sp, #4]
 8005062:	9b0d      	ldr	r3, [sp, #52]	@ 0x34
 8005064:	9300      	str	r3, [sp, #0]
 8005066:	9b0c      	ldr	r3, [sp, #48]	@ 0x30
 8005068:	f241 32b7 	movw	r2, #5047	@ 0x13b7
 800506c:	4940      	ldr	r1, [pc, #256]	@ (8005170 <lfs_fs_deorphan+0x1e0>)
 800506e:	4844      	ldr	r0, [pc, #272]	@ (8005180 <lfs_fs_deorphan+0x1f0>)
 8005070:	f001 f8c2 	bl	80061f8 <iprintf>
                        if (lfs_gstate_hasmovehere(&lfs->gstate, pdir.pair)) {
 8005074:	a906      	add	r1, sp, #24
 8005076:	f106 0030 	add.w	r0, r6, #48	@ 0x30
 800507a:	f7fd f84f 	bl	800211c <lfs_gstate_hasmovehere>
 800507e:	b998      	cbnz	r0, 80050a8 <lfs_fs_deorphan+0x118>
                        state = lfs_dir_orphaningcommit(lfs, &pdir, LFS_MKATTRS(
 8005080:	2300      	movs	r3, #0
 8005082:	931e      	str	r3, [sp, #120]	@ 0x78
 8005084:	2300      	movs	r3, #0
 8005086:	931f      	str	r3, [sp, #124]	@ 0x7c
 8005088:	4b3e      	ldr	r3, [pc, #248]	@ (8005184 <lfs_fs_deorphan+0x1f4>)
 800508a:	9320      	str	r3, [sp, #128]	@ 0x80
 800508c:	ab04      	add	r3, sp, #16
 800508e:	9321      	str	r3, [sp, #132]	@ 0x84
 8005090:	2302      	movs	r3, #2
 8005092:	aa1e      	add	r2, sp, #120	@ 0x78
 8005094:	a906      	add	r1, sp, #24
 8005096:	4630      	mov	r0, r6
 8005098:	f7ff fd7e 	bl	8004b98 <lfs_dir_orphaningcommit>
                        if (state < 0) {
 800509c:	1e05      	subs	r5, r0, #0
 800509e:	db61      	blt.n	8005164 <lfs_fs_deorphan+0x1d4>
                        if (state == LFS_OK_ORPHANED) {
 80050a0:	2d03      	cmp	r5, #3
 80050a2:	d132      	bne.n	800510a <lfs_fs_deorphan+0x17a>
                            moreorphans = true;
 80050a4:	2701      	movs	r7, #1
                        continue;
 80050a6:	e030      	b.n	800510a <lfs_fs_deorphan+0x17a>
                            moveid = lfs_tag_id(lfs->gstate.tag);
 80050a8:	6b35      	ldr	r5, [r6, #48]	@ 0x30
    return (tag & 0x000ffc00) >> 10;
 80050aa:	f3c5 2589 	ubfx	r5, r5, #10, #10
                            LFS_DEBUG("Fixing move while fixing orphans "
 80050ae:	4b2f      	ldr	r3, [pc, #188]	@ (800516c <lfs_fs_deorphan+0x1dc>)
 80050b0:	9302      	str	r3, [sp, #8]
 80050b2:	9501      	str	r5, [sp, #4]
 80050b4:	9b07      	ldr	r3, [sp, #28]
 80050b6:	9300      	str	r3, [sp, #0]
 80050b8:	9b06      	ldr	r3, [sp, #24]
 80050ba:	f241 32c2 	movw	r2, #5058	@ 0x13c2
 80050be:	492c      	ldr	r1, [pc, #176]	@ (8005170 <lfs_fs_deorphan+0x1e0>)
 80050c0:	4831      	ldr	r0, [pc, #196]	@ (8005188 <lfs_fs_deorphan+0x1f8>)
 80050c2:	f001 f899 	bl	80061f8 <iprintf>
                            lfs_fs_prepmove(lfs, 0x3ff, NULL);
 80050c6:	2200      	movs	r2, #0
 80050c8:	f240 31ff 	movw	r1, #1023	@ 0x3ff
 80050cc:	4630      	mov	r0, r6
 80050ce:	f7fd f8de 	bl	800228e <lfs_fs_prepmove>
                        state = lfs_dir_orphaningcommit(lfs, &pdir, LFS_MKATTRS(
 80050d2:	f240 33ff 	movw	r3, #1023	@ 0x3ff
 80050d6:	429d      	cmp	r5, r3
 80050d8:	d005      	beq.n	80050e6 <lfs_fs_deorphan+0x156>
 80050da:	02ab      	lsls	r3, r5, #10
 80050dc:	f043 439f 	orr.w	r3, r3, #1333788672	@ 0x4f800000
 80050e0:	f443 03e0 	orr.w	r3, r3, #7340032	@ 0x700000
 80050e4:	e7cd      	b.n	8005082 <lfs_fs_deorphan+0xf2>
 80050e6:	2300      	movs	r3, #0
 80050e8:	e7cb      	b.n	8005082 <lfs_fs_deorphan+0xf2>
                        return state;
 80050ea:	4605      	mov	r5, r0
 80050ec:	e03a      	b.n	8005164 <lfs_fs_deorphan+0x1d4>
        pass = moreorphans ? 0 : pass+1;
 80050ee:	bb6f      	cbnz	r7, 800514c <lfs_fs_deorphan+0x1bc>
 80050f0:	3401      	adds	r4, #1
    while (pass < 2) {
 80050f2:	2c01      	cmp	r4, #1
 80050f4:	dc2c      	bgt.n	8005150 <lfs_fs_deorphan+0x1c0>
        lfs_mdir_t pdir = {.split = true, .tail = {0, 1}};
 80050f6:	2220      	movs	r2, #32
 80050f8:	2100      	movs	r1, #0
 80050fa:	a806      	add	r0, sp, #24
 80050fc:	f001 f9d2 	bl	80064a4 <memset>
 8005100:	2301      	movs	r3, #1
 8005102:	f88d 302f 	strb.w	r3, [sp, #47]	@ 0x2f
 8005106:	930d      	str	r3, [sp, #52]	@ 0x34
        bool moreorphans = false;
 8005108:	2700      	movs	r7, #0
    return pair[0] == LFS_BLOCK_NULL || pair[1] == LFS_BLOCK_NULL;
 800510a:	9b0c      	ldr	r3, [sp, #48]	@ 0x30
 800510c:	f1b3 3fff 	cmp.w	r3, #4294967295	@ 0xffffffff
 8005110:	d0ed      	beq.n	80050ee <lfs_fs_deorphan+0x15e>
 8005112:	9b0d      	ldr	r3, [sp, #52]	@ 0x34
 8005114:	f1b3 3fff 	cmp.w	r3, #4294967295	@ 0xffffffff
 8005118:	d0e9      	beq.n	80050ee <lfs_fs_deorphan+0x15e>
            int err = lfs_dir_fetch(lfs, &dir, pdir.tail);
 800511a:	aa0c      	add	r2, sp, #48	@ 0x30
 800511c:	a90e      	add	r1, sp, #56	@ 0x38
 800511e:	4630      	mov	r0, r6
 8005120:	f7fe fb1e 	bl	8003760 <lfs_dir_fetch>
            if (err) {
 8005124:	4605      	mov	r5, r0
 8005126:	b9e8      	cbnz	r0, 8005164 <lfs_fs_deorphan+0x1d4>
            if (!pdir.split) {
 8005128:	f89d 302f 	ldrb.w	r3, [sp, #47]	@ 0x2f
 800512c:	2b00      	cmp	r3, #0
 800512e:	f43f af3c 	beq.w	8004faa <lfs_fs_deorphan+0x1a>
            pdir = dir;
 8005132:	f10d 0c18 	add.w	ip, sp, #24
 8005136:	f10d 0e38 	add.w	lr, sp, #56	@ 0x38
 800513a:	e8be 000f 	ldmia.w	lr!, {r0, r1, r2, r3}
 800513e:	e8ac 000f 	stmia.w	ip!, {r0, r1, r2, r3}
 8005142:	e89e 000f 	ldmia.w	lr, {r0, r1, r2, r3}
 8005146:	e88c 000f 	stmia.w	ip, {r0, r1, r2, r3}
 800514a:	e7de      	b.n	800510a <lfs_fs_deorphan+0x17a>
        pass = moreorphans ? 0 : pass+1;
 800514c:	2400      	movs	r4, #0
 800514e:	e7d0      	b.n	80050f2 <lfs_fs_deorphan+0x162>
    return lfs_tag_size(a->tag) & 0x1ff;
 8005150:	f896 1030 	ldrb.w	r1, [r6, #48]	@ 0x30
    return lfs_fs_preporphans(lfs, -lfs_gstate_getorphans(&lfs->gstate));
 8005154:	4249      	negs	r1, r1
 8005156:	b249      	sxtb	r1, r1
 8005158:	4630      	mov	r0, r6
 800515a:	f7fd f8dd 	bl	8002318 <lfs_fs_preporphans>
 800515e:	4605      	mov	r5, r0
 8005160:	e000      	b.n	8005164 <lfs_fs_deorphan+0x1d4>
        return 0;
 8005162:	2500      	movs	r5, #0
}
 8005164:	4628      	mov	r0, r5
 8005166:	b024      	add	sp, #144	@ 0x90
 8005168:	e8bd 81f0 	ldmia.w	sp!, {r4, r5, r6, r7, r8, pc}
 800516c:	0800708c 	.word	0x0800708c
 8005170:	080070fc 	.word	0x080070fc
 8005174:	08007568 	.word	0x08007568
 8005178:	000ffc08 	.word	0x000ffc08
 800517c:	7ffffc00 	.word	0x7ffffc00
 8005180:	080074dc 	.word	0x080074dc
 8005184:	600ffc08 	.word	0x600ffc08
 8005188:	08007520 	.word	0x08007520

0800518c <lfs_dir_commit>:
        const struct lfs_mattr *attrs, int attrcount) {
 800518c:	b510      	push	{r4, lr}
 800518e:	4604      	mov	r4, r0
    int orphans = lfs_dir_orphaningcommit(lfs, dir, attrs, attrcount);
 8005190:	f7ff fd02 	bl	8004b98 <lfs_dir_orphaningcommit>
    if (orphans < 0) {
 8005194:	2800      	cmp	r0, #0
 8005196:	db00      	blt.n	800519a <lfs_dir_commit+0xe>
    if (orphans) {
 8005198:	b900      	cbnz	r0, 800519c <lfs_dir_commit+0x10>
}
 800519a:	bd10      	pop	{r4, pc}
        int err = lfs_fs_deorphan(lfs, false);
 800519c:	2100      	movs	r1, #0
 800519e:	4620      	mov	r0, r4
 80051a0:	f7ff fef6 	bl	8004f90 <lfs_fs_deorphan>
        if (err) {
 80051a4:	e7f9      	b.n	800519a <lfs_dir_commit+0xe>

080051a6 <lfs_deinit>:
static int lfs_deinit(lfs_t *lfs) {
 80051a6:	b510      	push	{r4, lr}
 80051a8:	4604      	mov	r4, r0
    if (!lfs->cfg->read_buffer) {
 80051aa:	6e83      	ldr	r3, [r0, #104]	@ 0x68
 80051ac:	6b5b      	ldr	r3, [r3, #52]	@ 0x34
 80051ae:	b13b      	cbz	r3, 80051c0 <lfs_deinit+0x1a>
    if (!lfs->cfg->prog_buffer) {
 80051b0:	6ea3      	ldr	r3, [r4, #104]	@ 0x68
 80051b2:	6b9b      	ldr	r3, [r3, #56]	@ 0x38
 80051b4:	b143      	cbz	r3, 80051c8 <lfs_deinit+0x22>
    if (!lfs->cfg->lookahead_buffer) {
 80051b6:	6ea3      	ldr	r3, [r4, #104]	@ 0x68
 80051b8:	6bdb      	ldr	r3, [r3, #60]	@ 0x3c
 80051ba:	b14b      	cbz	r3, 80051d0 <lfs_deinit+0x2a>
}
 80051bc:	2000      	movs	r0, #0
 80051be:	bd10      	pop	{r4, pc}
// Deallocate memory, only used if buffers are not provided to littlefs
static inline void lfs_free(void *p) {
#if defined(LFS_FREE)
    LFS_FREE(p);
#elif !defined(LFS_NO_MALLOC)
    free(p);
 80051c0:	68c0      	ldr	r0, [r0, #12]
 80051c2:	f000 fe8d 	bl	8005ee0 <free>
#else
    (void)p;
#endif
}
 80051c6:	e7f3      	b.n	80051b0 <lfs_deinit+0xa>
    free(p);
 80051c8:	69e0      	ldr	r0, [r4, #28]
 80051ca:	f000 fe89 	bl	8005ee0 <free>
}
 80051ce:	e7f2      	b.n	80051b6 <lfs_deinit+0x10>
    free(p);
 80051d0:	6e60      	ldr	r0, [r4, #100]	@ 0x64
 80051d2:	f000 fe85 	bl	8005ee0 <free>
}
 80051d6:	e7f1      	b.n	80051bc <lfs_deinit+0x16>

080051d8 <lfs_init>:
static int lfs_init(lfs_t *lfs, const struct lfs_config *cfg) {
 80051d8:	b570      	push	{r4, r5, r6, lr}
 80051da:	4604      	mov	r4, r0
    lfs->cfg = cfg;
 80051dc:	6681      	str	r1, [r0, #104]	@ 0x68
    lfs->block_count = cfg->block_count;  // May be 0
 80051de:	6a0b      	ldr	r3, [r1, #32]
 80051e0:	66c3      	str	r3, [r0, #108]	@ 0x6c
    LFS_ASSERT(lfs->cfg->read != NULL);
 80051e2:	684b      	ldr	r3, [r1, #4]
 80051e4:	2b00      	cmp	r3, #0
 80051e6:	f000 80d8 	beq.w	800539a <lfs_init+0x1c2>
 80051ea:	460d      	mov	r5, r1
    LFS_ASSERT(lfs->cfg->prog != NULL);
 80051ec:	688b      	ldr	r3, [r1, #8]
 80051ee:	2b00      	cmp	r3, #0
 80051f0:	f000 80da 	beq.w	80053a8 <lfs_init+0x1d0>
    LFS_ASSERT(lfs->cfg->erase != NULL);
 80051f4:	68cb      	ldr	r3, [r1, #12]
 80051f6:	2b00      	cmp	r3, #0
 80051f8:	f000 80dd 	beq.w	80053b6 <lfs_init+0x1de>
    LFS_ASSERT(lfs->cfg->sync != NULL);
 80051fc:	690b      	ldr	r3, [r1, #16]
 80051fe:	2b00      	cmp	r3, #0
 8005200:	f000 80e0 	beq.w	80053c4 <lfs_init+0x1ec>
    LFS_ASSERT(lfs->cfg->read_size != 0);
 8005204:	6949      	ldr	r1, [r1, #20]
 8005206:	2900      	cmp	r1, #0
 8005208:	f000 80e3 	beq.w	80053d2 <lfs_init+0x1fa>
    LFS_ASSERT(lfs->cfg->prog_size != 0);
 800520c:	69ae      	ldr	r6, [r5, #24]
 800520e:	2e00      	cmp	r6, #0
 8005210:	f000 80e6 	beq.w	80053e0 <lfs_init+0x208>
    LFS_ASSERT(lfs->cfg->cache_size != 0);
 8005214:	6aa8      	ldr	r0, [r5, #40]	@ 0x28
 8005216:	2800      	cmp	r0, #0
 8005218:	f000 80e9 	beq.w	80053ee <lfs_init+0x216>
    LFS_ASSERT(lfs->cfg->cache_size % lfs->cfg->read_size == 0);
 800521c:	fbb0 f3f1 	udiv	r3, r0, r1
 8005220:	fb01 0313 	mls	r3, r1, r3, r0
 8005224:	2b00      	cmp	r3, #0
 8005226:	f040 80e9 	bne.w	80053fc <lfs_init+0x224>
    LFS_ASSERT(lfs->cfg->cache_size % lfs->cfg->prog_size == 0);
 800522a:	fbb0 f3f6 	udiv	r3, r0, r6
 800522e:	fb06 0313 	mls	r3, r6, r3, r0
 8005232:	2b00      	cmp	r3, #0
 8005234:	f040 80e9 	bne.w	800540a <lfs_init+0x232>
    LFS_ASSERT(lfs->cfg->block_size % lfs->cfg->cache_size == 0);
 8005238:	69ea      	ldr	r2, [r5, #28]
 800523a:	fbb2 f3f0 	udiv	r3, r2, r0
 800523e:	fb00 2313 	mls	r3, r0, r3, r2
 8005242:	2b00      	cmp	r3, #0
 8005244:	f040 80e8 	bne.w	8005418 <lfs_init+0x240>
    LFS_ASSERT(lfs->cfg->block_size >= 128);
 8005248:	2a7f      	cmp	r2, #127	@ 0x7f
 800524a:	f240 80ec 	bls.w	8005426 <lfs_init+0x24e>
    LFS_ASSERT(4*lfs_npw2(0xffffffff / (lfs->cfg->block_size-2*4))
 800524e:	f1a2 0c08 	sub.w	ip, r2, #8
 8005252:	f04f 33ff 	mov.w	r3, #4294967295	@ 0xffffffff
 8005256:	fbb3 f3fc 	udiv	r3, r3, ip
    return 32 - __builtin_clz(a-1);
 800525a:	3b01      	subs	r3, #1
 800525c:	fab3 f383 	clz	r3, r3
 8005260:	f1c3 0320 	rsb	r3, r3, #32
 8005264:	ebb2 0f83 	cmp.w	r2, r3, lsl #2
 8005268:	f0c0 80e4 	bcc.w	8005434 <lfs_init+0x25c>
    LFS_ASSERT(lfs->cfg->block_cycles != 0);
 800526c:	6a6b      	ldr	r3, [r5, #36]	@ 0x24
 800526e:	2b00      	cmp	r3, #0
 8005270:	f000 80e7 	beq.w	8005442 <lfs_init+0x26a>
    LFS_ASSERT(lfs->cfg->compact_thresh == 0
 8005274:	6b2b      	ldr	r3, [r5, #48]	@ 0x30
 8005276:	b11b      	cbz	r3, 8005280 <lfs_init+0xa8>
 8005278:	ebb3 0f52 	cmp.w	r3, r2, lsr #1
 800527c:	f0c0 80e8 	bcc.w	8005450 <lfs_init+0x278>
    LFS_ASSERT(lfs->cfg->compact_thresh == (lfs_size_t)-1
 8005280:	f1b3 3fff 	cmp.w	r3, #4294967295	@ 0xffffffff
 8005284:	d002      	beq.n	800528c <lfs_init+0xb4>
 8005286:	429a      	cmp	r2, r3
 8005288:	f0c0 80e9 	bcc.w	800545e <lfs_init+0x286>
    LFS_ASSERT(!lfs->cfg->metadata_max
 800528c:	6ceb      	ldr	r3, [r5, #76]	@ 0x4c
 800528e:	b133      	cbz	r3, 800529e <lfs_init+0xc6>
 8005290:	fbb3 fcf1 	udiv	ip, r3, r1
 8005294:	fb01 311c 	mls	r1, r1, ip, r3
 8005298:	2900      	cmp	r1, #0
 800529a:	f040 80e7 	bne.w	800546c <lfs_init+0x294>
    LFS_ASSERT(!lfs->cfg->metadata_max
 800529e:	b133      	cbz	r3, 80052ae <lfs_init+0xd6>
 80052a0:	fbb3 f1f6 	udiv	r1, r3, r6
 80052a4:	fb06 3111 	mls	r1, r6, r1, r3
 80052a8:	2900      	cmp	r1, #0
 80052aa:	f040 80e6 	bne.w	800547a <lfs_init+0x2a2>
    LFS_ASSERT(!lfs->cfg->metadata_max
 80052ae:	b133      	cbz	r3, 80052be <lfs_init+0xe6>
 80052b0:	fbb2 f1f3 	udiv	r1, r2, r3
 80052b4:	fb03 2211 	mls	r2, r3, r1, r2
 80052b8:	2a00      	cmp	r2, #0
 80052ba:	f040 80e5 	bne.w	8005488 <lfs_init+0x2b0>
    if (lfs->cfg->read_buffer) {
 80052be:	6b6b      	ldr	r3, [r5, #52]	@ 0x34
 80052c0:	2b00      	cmp	r3, #0
 80052c2:	f000 80e8 	beq.w	8005496 <lfs_init+0x2be>
        lfs->rcache.buffer = lfs->cfg->read_buffer;
 80052c6:	60e3      	str	r3, [r4, #12]
    if (lfs->cfg->prog_buffer) {
 80052c8:	6bab      	ldr	r3, [r5, #56]	@ 0x38
 80052ca:	2b00      	cmp	r3, #0
 80052cc:	f000 80ef 	beq.w	80054ae <lfs_init+0x2d6>
        lfs->pcache.buffer = lfs->cfg->prog_buffer;
 80052d0:	61e3      	str	r3, [r4, #28]
    lfs_cache_zero(lfs, &lfs->rcache);
 80052d2:	4621      	mov	r1, r4
 80052d4:	4620      	mov	r0, r4
 80052d6:	f7fd f84f 	bl	8002378 <lfs_cache_zero>
    lfs_cache_zero(lfs, &lfs->pcache);
 80052da:	f104 0110 	add.w	r1, r4, #16
 80052de:	4620      	mov	r0, r4
 80052e0:	f7fd f84a 	bl	8002378 <lfs_cache_zero>
    LFS_ASSERT(lfs->cfg->lookahead_size > 0);
 80052e4:	6ea5      	ldr	r5, [r4, #104]	@ 0x68
 80052e6:	6ae8      	ldr	r0, [r5, #44]	@ 0x2c
 80052e8:	2800      	cmp	r0, #0
 80052ea:	f000 80e8 	beq.w	80054be <lfs_init+0x2e6>
    if (lfs->cfg->lookahead_buffer) {
 80052ee:	6beb      	ldr	r3, [r5, #60]	@ 0x3c
 80052f0:	2b00      	cmp	r3, #0
 80052f2:	f000 80eb 	beq.w	80054cc <lfs_init+0x2f4>
        lfs->lookahead.buffer = lfs->cfg->lookahead_buffer;
 80052f6:	6663      	str	r3, [r4, #100]	@ 0x64
    LFS_ASSERT(lfs->cfg->name_max <= LFS_NAME_MAX);
 80052f8:	6c2b      	ldr	r3, [r5, #64]	@ 0x40
 80052fa:	2bff      	cmp	r3, #255	@ 0xff
 80052fc:	f200 80ed 	bhi.w	80054da <lfs_init+0x302>
    lfs->name_max = lfs->cfg->name_max;
 8005300:	6723      	str	r3, [r4, #112]	@ 0x70
    if (!lfs->name_max) {
 8005302:	b90b      	cbnz	r3, 8005308 <lfs_init+0x130>
        lfs->name_max = LFS_NAME_MAX;
 8005304:	23ff      	movs	r3, #255	@ 0xff
 8005306:	6723      	str	r3, [r4, #112]	@ 0x70
    LFS_ASSERT(lfs->cfg->file_max <= LFS_FILE_MAX);
 8005308:	6c6b      	ldr	r3, [r5, #68]	@ 0x44
 800530a:	2b00      	cmp	r3, #0
 800530c:	f2c0 80ec 	blt.w	80054e8 <lfs_init+0x310>
    lfs->file_max = lfs->cfg->file_max;
 8005310:	6763      	str	r3, [r4, #116]	@ 0x74
    if (!lfs->file_max) {
 8005312:	b913      	cbnz	r3, 800531a <lfs_init+0x142>
        lfs->file_max = LFS_FILE_MAX;
 8005314:	f06f 4300 	mvn.w	r3, #2147483648	@ 0x80000000
 8005318:	6763      	str	r3, [r4, #116]	@ 0x74
    LFS_ASSERT(lfs->cfg->attr_max <= LFS_ATTR_MAX);
 800531a:	6cab      	ldr	r3, [r5, #72]	@ 0x48
 800531c:	f240 32fe 	movw	r2, #1022	@ 0x3fe
 8005320:	4293      	cmp	r3, r2
 8005322:	f200 80e8 	bhi.w	80054f6 <lfs_init+0x31e>
    lfs->attr_max = lfs->cfg->attr_max;
 8005326:	67a3      	str	r3, [r4, #120]	@ 0x78
    if (!lfs->attr_max) {
 8005328:	b913      	cbnz	r3, 8005330 <lfs_init+0x158>
        lfs->attr_max = LFS_ATTR_MAX;
 800532a:	f240 33fe 	movw	r3, #1022	@ 0x3fe
 800532e:	67a3      	str	r3, [r4, #120]	@ 0x78
    LFS_ASSERT(lfs->cfg->metadata_max <= lfs->cfg->block_size);
 8005330:	6ce9      	ldr	r1, [r5, #76]	@ 0x4c
 8005332:	69ea      	ldr	r2, [r5, #28]
 8005334:	4291      	cmp	r1, r2
 8005336:	f200 80e5 	bhi.w	8005504 <lfs_init+0x32c>
    LFS_ASSERT(lfs->cfg->inline_max == (lfs_size_t)-1
 800533a:	6d2b      	ldr	r3, [r5, #80]	@ 0x50
 800533c:	f1b3 3fff 	cmp.w	r3, #4294967295	@ 0xffffffff
 8005340:	d003      	beq.n	800534a <lfs_init+0x172>
 8005342:	6aa8      	ldr	r0, [r5, #40]	@ 0x28
 8005344:	4283      	cmp	r3, r0
 8005346:	f200 80e4 	bhi.w	8005512 <lfs_init+0x33a>
    LFS_ASSERT(lfs->cfg->inline_max == (lfs_size_t)-1
 800534a:	f1b3 3fff 	cmp.w	r3, #4294967295	@ 0xffffffff
 800534e:	d003      	beq.n	8005358 <lfs_init+0x180>
 8005350:	6fa0      	ldr	r0, [r4, #120]	@ 0x78
 8005352:	4283      	cmp	r3, r0
 8005354:	f200 80e4 	bhi.w	8005520 <lfs_init+0x348>
    LFS_ASSERT(lfs->cfg->inline_max == (lfs_size_t)-1
 8005358:	f1b3 3fff 	cmp.w	r3, #4294967295	@ 0xffffffff
 800535c:	d006      	beq.n	800536c <lfs_init+0x194>
 800535e:	2900      	cmp	r1, #0
 8005360:	f000 80e5 	beq.w	800552e <lfs_init+0x356>
 8005364:	08ca      	lsrs	r2, r1, #3
 8005366:	4293      	cmp	r3, r2
 8005368:	f200 80e3 	bhi.w	8005532 <lfs_init+0x35a>
    lfs->inline_max = lfs->cfg->inline_max;
 800536c:	67e3      	str	r3, [r4, #124]	@ 0x7c
    if (lfs->inline_max == (lfs_size_t)-1) {
 800536e:	f1b3 3fff 	cmp.w	r3, #4294967295	@ 0xffffffff
 8005372:	f000 80e5 	beq.w	8005540 <lfs_init+0x368>
    } else if (lfs->inline_max == 0) {
 8005376:	2b00      	cmp	r3, #0
 8005378:	f040 80e4 	bne.w	8005544 <lfs_init+0x36c>
                lfs->cfg->cache_size,
 800537c:	6aaa      	ldr	r2, [r5, #40]	@ 0x28
                    lfs->attr_max,
 800537e:	6fa1      	ldr	r1, [r4, #120]	@ 0x78
                    ((lfs->cfg->metadata_max)
 8005380:	6ceb      	ldr	r3, [r5, #76]	@ 0x4c
        lfs->inline_max = lfs_min(
 8005382:	2b00      	cmp	r3, #0
 8005384:	f000 80ef 	beq.w	8005566 <lfs_init+0x38e>
 8005388:	08db      	lsrs	r3, r3, #3
    return (a < b) ? a : b;
 800538a:	428b      	cmp	r3, r1
 800538c:	bf28      	it	cs
 800538e:	460b      	movcs	r3, r1
 8005390:	4293      	cmp	r3, r2
 8005392:	bf28      	it	cs
 8005394:	4613      	movcs	r3, r2
 8005396:	67e3      	str	r3, [r4, #124]	@ 0x7c
 8005398:	e0d4      	b.n	8005544 <lfs_init+0x36c>
    LFS_ASSERT(lfs->cfg->read != NULL);
 800539a:	4b74      	ldr	r3, [pc, #464]	@ (800556c <lfs_init+0x394>)
 800539c:	4a74      	ldr	r2, [pc, #464]	@ (8005570 <lfs_init+0x398>)
 800539e:	f241 0183 	movw	r1, #4227	@ 0x1083
 80053a2:	4874      	ldr	r0, [pc, #464]	@ (8005574 <lfs_init+0x39c>)
 80053a4:	f000 fd76 	bl	8005e94 <__assert_func>
    LFS_ASSERT(lfs->cfg->prog != NULL);
 80053a8:	4b73      	ldr	r3, [pc, #460]	@ (8005578 <lfs_init+0x3a0>)
 80053aa:	4a71      	ldr	r2, [pc, #452]	@ (8005570 <lfs_init+0x398>)
 80053ac:	f241 0185 	movw	r1, #4229	@ 0x1085
 80053b0:	4870      	ldr	r0, [pc, #448]	@ (8005574 <lfs_init+0x39c>)
 80053b2:	f000 fd6f 	bl	8005e94 <__assert_func>
    LFS_ASSERT(lfs->cfg->erase != NULL);
 80053b6:	4b71      	ldr	r3, [pc, #452]	@ (800557c <lfs_init+0x3a4>)
 80053b8:	4a6d      	ldr	r2, [pc, #436]	@ (8005570 <lfs_init+0x398>)
 80053ba:	f241 0186 	movw	r1, #4230	@ 0x1086
 80053be:	486d      	ldr	r0, [pc, #436]	@ (8005574 <lfs_init+0x39c>)
 80053c0:	f000 fd68 	bl	8005e94 <__assert_func>
    LFS_ASSERT(lfs->cfg->sync != NULL);
 80053c4:	4b6e      	ldr	r3, [pc, #440]	@ (8005580 <lfs_init+0x3a8>)
 80053c6:	4a6a      	ldr	r2, [pc, #424]	@ (8005570 <lfs_init+0x398>)
 80053c8:	f241 0187 	movw	r1, #4231	@ 0x1087
 80053cc:	4869      	ldr	r0, [pc, #420]	@ (8005574 <lfs_init+0x39c>)
 80053ce:	f000 fd61 	bl	8005e94 <__assert_func>
    LFS_ASSERT(lfs->cfg->read_size != 0);
 80053d2:	4b6c      	ldr	r3, [pc, #432]	@ (8005584 <lfs_init+0x3ac>)
 80053d4:	4a66      	ldr	r2, [pc, #408]	@ (8005570 <lfs_init+0x398>)
 80053d6:	f241 018c 	movw	r1, #4236	@ 0x108c
 80053da:	4866      	ldr	r0, [pc, #408]	@ (8005574 <lfs_init+0x39c>)
 80053dc:	f000 fd5a 	bl	8005e94 <__assert_func>
    LFS_ASSERT(lfs->cfg->prog_size != 0);
 80053e0:	4b69      	ldr	r3, [pc, #420]	@ (8005588 <lfs_init+0x3b0>)
 80053e2:	4a63      	ldr	r2, [pc, #396]	@ (8005570 <lfs_init+0x398>)
 80053e4:	f241 018d 	movw	r1, #4237	@ 0x108d
 80053e8:	4862      	ldr	r0, [pc, #392]	@ (8005574 <lfs_init+0x39c>)
 80053ea:	f000 fd53 	bl	8005e94 <__assert_func>
    LFS_ASSERT(lfs->cfg->cache_size != 0);
 80053ee:	4b67      	ldr	r3, [pc, #412]	@ (800558c <lfs_init+0x3b4>)
 80053f0:	4a5f      	ldr	r2, [pc, #380]	@ (8005570 <lfs_init+0x398>)
 80053f2:	f241 018e 	movw	r1, #4238	@ 0x108e
 80053f6:	485f      	ldr	r0, [pc, #380]	@ (8005574 <lfs_init+0x39c>)
 80053f8:	f000 fd4c 	bl	8005e94 <__assert_func>
    LFS_ASSERT(lfs->cfg->cache_size % lfs->cfg->read_size == 0);
 80053fc:	4b64      	ldr	r3, [pc, #400]	@ (8005590 <lfs_init+0x3b8>)
 80053fe:	4a5c      	ldr	r2, [pc, #368]	@ (8005570 <lfs_init+0x398>)
 8005400:	f241 0192 	movw	r1, #4242	@ 0x1092
 8005404:	485b      	ldr	r0, [pc, #364]	@ (8005574 <lfs_init+0x39c>)
 8005406:	f000 fd45 	bl	8005e94 <__assert_func>
    LFS_ASSERT(lfs->cfg->cache_size % lfs->cfg->prog_size == 0);
 800540a:	4b62      	ldr	r3, [pc, #392]	@ (8005594 <lfs_init+0x3bc>)
 800540c:	4a58      	ldr	r2, [pc, #352]	@ (8005570 <lfs_init+0x398>)
 800540e:	f241 0193 	movw	r1, #4243	@ 0x1093
 8005412:	4858      	ldr	r0, [pc, #352]	@ (8005574 <lfs_init+0x39c>)
 8005414:	f000 fd3e 	bl	8005e94 <__assert_func>
    LFS_ASSERT(lfs->cfg->block_size % lfs->cfg->cache_size == 0);
 8005418:	4b5f      	ldr	r3, [pc, #380]	@ (8005598 <lfs_init+0x3c0>)
 800541a:	4a55      	ldr	r2, [pc, #340]	@ (8005570 <lfs_init+0x398>)
 800541c:	f241 0194 	movw	r1, #4244	@ 0x1094
 8005420:	4854      	ldr	r0, [pc, #336]	@ (8005574 <lfs_init+0x39c>)
 8005422:	f000 fd37 	bl	8005e94 <__assert_func>
    LFS_ASSERT(lfs->cfg->block_size >= 128);
 8005426:	4b5d      	ldr	r3, [pc, #372]	@ (800559c <lfs_init+0x3c4>)
 8005428:	4a51      	ldr	r2, [pc, #324]	@ (8005570 <lfs_init+0x398>)
 800542a:	f241 0197 	movw	r1, #4247	@ 0x1097
 800542e:	4851      	ldr	r0, [pc, #324]	@ (8005574 <lfs_init+0x39c>)
 8005430:	f000 fd30 	bl	8005e94 <__assert_func>
    LFS_ASSERT(4*lfs_npw2(0xffffffff / (lfs->cfg->block_size-2*4))
 8005434:	4b5a      	ldr	r3, [pc, #360]	@ (80055a0 <lfs_init+0x3c8>)
 8005436:	4a4e      	ldr	r2, [pc, #312]	@ (8005570 <lfs_init+0x398>)
 8005438:	f241 019a 	movw	r1, #4250	@ 0x109a
 800543c:	484d      	ldr	r0, [pc, #308]	@ (8005574 <lfs_init+0x39c>)
 800543e:	f000 fd29 	bl	8005e94 <__assert_func>
    LFS_ASSERT(lfs->cfg->block_cycles != 0);
 8005442:	4b58      	ldr	r3, [pc, #352]	@ (80055a4 <lfs_init+0x3cc>)
 8005444:	4a4a      	ldr	r2, [pc, #296]	@ (8005570 <lfs_init+0x398>)
 8005446:	f241 01a3 	movw	r1, #4259	@ 0x10a3
 800544a:	484a      	ldr	r0, [pc, #296]	@ (8005574 <lfs_init+0x39c>)
 800544c:	f000 fd22 	bl	8005e94 <__assert_func>
    LFS_ASSERT(lfs->cfg->compact_thresh == 0
 8005450:	4b55      	ldr	r3, [pc, #340]	@ (80055a8 <lfs_init+0x3d0>)
 8005452:	4a47      	ldr	r2, [pc, #284]	@ (8005570 <lfs_init+0x398>)
 8005454:	f241 01a9 	movw	r1, #4265	@ 0x10a9
 8005458:	4846      	ldr	r0, [pc, #280]	@ (8005574 <lfs_init+0x39c>)
 800545a:	f000 fd1b 	bl	8005e94 <__assert_func>
    LFS_ASSERT(lfs->cfg->compact_thresh == (lfs_size_t)-1
 800545e:	4b53      	ldr	r3, [pc, #332]	@ (80055ac <lfs_init+0x3d4>)
 8005460:	4a43      	ldr	r2, [pc, #268]	@ (8005570 <lfs_init+0x398>)
 8005462:	f241 01ab 	movw	r1, #4267	@ 0x10ab
 8005466:	4843      	ldr	r0, [pc, #268]	@ (8005574 <lfs_init+0x39c>)
 8005468:	f000 fd14 	bl	8005e94 <__assert_func>
    LFS_ASSERT(!lfs->cfg->metadata_max
 800546c:	4b50      	ldr	r3, [pc, #320]	@ (80055b0 <lfs_init+0x3d8>)
 800546e:	4a40      	ldr	r2, [pc, #256]	@ (8005570 <lfs_init+0x398>)
 8005470:	f241 01b0 	movw	r1, #4272	@ 0x10b0
 8005474:	483f      	ldr	r0, [pc, #252]	@ (8005574 <lfs_init+0x39c>)
 8005476:	f000 fd0d 	bl	8005e94 <__assert_func>
    LFS_ASSERT(!lfs->cfg->metadata_max
 800547a:	4b4e      	ldr	r3, [pc, #312]	@ (80055b4 <lfs_init+0x3dc>)
 800547c:	4a3c      	ldr	r2, [pc, #240]	@ (8005570 <lfs_init+0x398>)
 800547e:	f241 01b2 	movw	r1, #4274	@ 0x10b2
 8005482:	483c      	ldr	r0, [pc, #240]	@ (8005574 <lfs_init+0x39c>)
 8005484:	f000 fd06 	bl	8005e94 <__assert_func>
    LFS_ASSERT(!lfs->cfg->metadata_max
 8005488:	4b4b      	ldr	r3, [pc, #300]	@ (80055b8 <lfs_init+0x3e0>)
 800548a:	4a39      	ldr	r2, [pc, #228]	@ (8005570 <lfs_init+0x398>)
 800548c:	f241 01b4 	movw	r1, #4276	@ 0x10b4
 8005490:	4838      	ldr	r0, [pc, #224]	@ (8005574 <lfs_init+0x39c>)
 8005492:	f000 fcff 	bl	8005e94 <__assert_func>
    return malloc(size);
 8005496:	f000 fd1b 	bl	8005ed0 <malloc>
        lfs->rcache.buffer = lfs_malloc(lfs->cfg->cache_size);
 800549a:	60e0      	str	r0, [r4, #12]
        if (!lfs->rcache.buffer) {
 800549c:	2800      	cmp	r0, #0
 800549e:	f47f af13 	bne.w	80052c8 <lfs_init+0xf0>
    lfs_deinit(lfs);
 80054a2:	4620      	mov	r0, r4
 80054a4:	f7ff fe7f 	bl	80051a6 <lfs_deinit>
    return err;
 80054a8:	f06f 000b 	mvn.w	r0, #11
 80054ac:	e05a      	b.n	8005564 <lfs_init+0x38c>
 80054ae:	6aa8      	ldr	r0, [r5, #40]	@ 0x28
 80054b0:	f000 fd0e 	bl	8005ed0 <malloc>
        lfs->pcache.buffer = lfs_malloc(lfs->cfg->cache_size);
 80054b4:	61e0      	str	r0, [r4, #28]
        if (!lfs->pcache.buffer) {
 80054b6:	2800      	cmp	r0, #0
 80054b8:	f47f af0b 	bne.w	80052d2 <lfs_init+0xfa>
 80054bc:	e7f1      	b.n	80054a2 <lfs_init+0x2ca>
    LFS_ASSERT(lfs->cfg->lookahead_size > 0);
 80054be:	4b3f      	ldr	r3, [pc, #252]	@ (80055bc <lfs_init+0x3e4>)
 80054c0:	4a2b      	ldr	r2, [pc, #172]	@ (8005570 <lfs_init+0x398>)
 80054c2:	f241 01d3 	movw	r1, #4307	@ 0x10d3
 80054c6:	482b      	ldr	r0, [pc, #172]	@ (8005574 <lfs_init+0x39c>)
 80054c8:	f000 fce4 	bl	8005e94 <__assert_func>
 80054cc:	f000 fd00 	bl	8005ed0 <malloc>
        lfs->lookahead.buffer = lfs_malloc(lfs->cfg->lookahead_size);
 80054d0:	6660      	str	r0, [r4, #100]	@ 0x64
        if (!lfs->lookahead.buffer) {
 80054d2:	2800      	cmp	r0, #0
 80054d4:	f47f af10 	bne.w	80052f8 <lfs_init+0x120>
 80054d8:	e7e3      	b.n	80054a2 <lfs_init+0x2ca>
    LFS_ASSERT(lfs->cfg->name_max <= LFS_NAME_MAX);
 80054da:	4b39      	ldr	r3, [pc, #228]	@ (80055c0 <lfs_init+0x3e8>)
 80054dc:	4a24      	ldr	r2, [pc, #144]	@ (8005570 <lfs_init+0x398>)
 80054de:	f241 01df 	movw	r1, #4319	@ 0x10df
 80054e2:	4824      	ldr	r0, [pc, #144]	@ (8005574 <lfs_init+0x39c>)
 80054e4:	f000 fcd6 	bl	8005e94 <__assert_func>
    LFS_ASSERT(lfs->cfg->file_max <= LFS_FILE_MAX);
 80054e8:	4b36      	ldr	r3, [pc, #216]	@ (80055c4 <lfs_init+0x3ec>)
 80054ea:	4a21      	ldr	r2, [pc, #132]	@ (8005570 <lfs_init+0x398>)
 80054ec:	f241 01e5 	movw	r1, #4325	@ 0x10e5
 80054f0:	4820      	ldr	r0, [pc, #128]	@ (8005574 <lfs_init+0x39c>)
 80054f2:	f000 fccf 	bl	8005e94 <__assert_func>
    LFS_ASSERT(lfs->cfg->attr_max <= LFS_ATTR_MAX);
 80054f6:	4b34      	ldr	r3, [pc, #208]	@ (80055c8 <lfs_init+0x3f0>)
 80054f8:	4a1d      	ldr	r2, [pc, #116]	@ (8005570 <lfs_init+0x398>)
 80054fa:	f241 01eb 	movw	r1, #4331	@ 0x10eb
 80054fe:	481d      	ldr	r0, [pc, #116]	@ (8005574 <lfs_init+0x39c>)
 8005500:	f000 fcc8 	bl	8005e94 <__assert_func>
    LFS_ASSERT(lfs->cfg->metadata_max <= lfs->cfg->block_size);
 8005504:	4b31      	ldr	r3, [pc, #196]	@ (80055cc <lfs_init+0x3f4>)
 8005506:	4a1a      	ldr	r2, [pc, #104]	@ (8005570 <lfs_init+0x398>)
 8005508:	f241 01f1 	movw	r1, #4337	@ 0x10f1
 800550c:	4819      	ldr	r0, [pc, #100]	@ (8005574 <lfs_init+0x39c>)
 800550e:	f000 fcc1 	bl	8005e94 <__assert_func>
    LFS_ASSERT(lfs->cfg->inline_max == (lfs_size_t)-1
 8005512:	4b2f      	ldr	r3, [pc, #188]	@ (80055d0 <lfs_init+0x3f8>)
 8005514:	4a16      	ldr	r2, [pc, #88]	@ (8005570 <lfs_init+0x398>)
 8005516:	f241 01f3 	movw	r1, #4339	@ 0x10f3
 800551a:	4816      	ldr	r0, [pc, #88]	@ (8005574 <lfs_init+0x39c>)
 800551c:	f000 fcba 	bl	8005e94 <__assert_func>
    LFS_ASSERT(lfs->cfg->inline_max == (lfs_size_t)-1
 8005520:	4b2c      	ldr	r3, [pc, #176]	@ (80055d4 <lfs_init+0x3fc>)
 8005522:	4a13      	ldr	r2, [pc, #76]	@ (8005570 <lfs_init+0x398>)
 8005524:	f241 01f5 	movw	r1, #4341	@ 0x10f5
 8005528:	4812      	ldr	r0, [pc, #72]	@ (8005574 <lfs_init+0x39c>)
 800552a:	f000 fcb3 	bl	8005e94 <__assert_func>
    LFS_ASSERT(lfs->cfg->inline_max == (lfs_size_t)-1
 800552e:	08d2      	lsrs	r2, r2, #3
 8005530:	e719      	b.n	8005366 <lfs_init+0x18e>
 8005532:	4b29      	ldr	r3, [pc, #164]	@ (80055d8 <lfs_init+0x400>)
 8005534:	4a0e      	ldr	r2, [pc, #56]	@ (8005570 <lfs_init+0x398>)
 8005536:	f241 01f7 	movw	r1, #4343	@ 0x10f7
 800553a:	480e      	ldr	r0, [pc, #56]	@ (8005574 <lfs_init+0x39c>)
 800553c:	f000 fcaa 	bl	8005e94 <__assert_func>
        lfs->inline_max = 0;
 8005540:	2300      	movs	r3, #0
 8005542:	67e3      	str	r3, [r4, #124]	@ 0x7c
    lfs->root[0] = LFS_BLOCK_NULL;
 8005544:	f04f 33ff 	mov.w	r3, #4294967295	@ 0xffffffff
 8005548:	6223      	str	r3, [r4, #32]
    lfs->root[1] = LFS_BLOCK_NULL;
 800554a:	6263      	str	r3, [r4, #36]	@ 0x24
    lfs->mlist = NULL;
 800554c:	2000      	movs	r0, #0
 800554e:	62a0      	str	r0, [r4, #40]	@ 0x28
    lfs->seed = 0;
 8005550:	62e0      	str	r0, [r4, #44]	@ 0x2c
    lfs->gdisk = (lfs_gstate_t){0};
 8005552:	63e0      	str	r0, [r4, #60]	@ 0x3c
 8005554:	6420      	str	r0, [r4, #64]	@ 0x40
 8005556:	6460      	str	r0, [r4, #68]	@ 0x44
    lfs->gstate = (lfs_gstate_t){0};
 8005558:	6320      	str	r0, [r4, #48]	@ 0x30
 800555a:	6360      	str	r0, [r4, #52]	@ 0x34
 800555c:	63a0      	str	r0, [r4, #56]	@ 0x38
    lfs->gdelta = (lfs_gstate_t){0};
 800555e:	64a0      	str	r0, [r4, #72]	@ 0x48
 8005560:	64e0      	str	r0, [r4, #76]	@ 0x4c
 8005562:	6520      	str	r0, [r4, #80]	@ 0x50
}
 8005564:	bd70      	pop	{r4, r5, r6, pc}
                        : lfs->cfg->block_size)/8));
 8005566:	69eb      	ldr	r3, [r5, #28]
        lfs->inline_max = lfs_min(
 8005568:	08db      	lsrs	r3, r3, #3
 800556a:	e70e      	b.n	800538a <lfs_init+0x1b2>
 800556c:	08007598 	.word	0x08007598
 8005570:	08007e88 	.word	0x08007e88
 8005574:	080070fc 	.word	0x080070fc
 8005578:	080075b8 	.word	0x080075b8
 800557c:	080075d8 	.word	0x080075d8
 8005580:	080075f8 	.word	0x080075f8
 8005584:	08007618 	.word	0x08007618
 8005588:	08007634 	.word	0x08007634
 800558c:	08007650 	.word	0x08007650
 8005590:	0800766c 	.word	0x0800766c
 8005594:	0800769c 	.word	0x0800769c
 8005598:	080076cc 	.word	0x080076cc
 800559c:	08007700 	.word	0x08007700
 80055a0:	0800771c 	.word	0x0800771c
 80055a4:	08007768 	.word	0x08007768
 80055a8:	08007784 	.word	0x08007784
 80055ac:	080077d8 	.word	0x080077d8
 80055b0:	08007838 	.word	0x08007838
 80055b4:	08007888 	.word	0x08007888
 80055b8:	080078d8 	.word	0x080078d8
 80055bc:	08007928 	.word	0x08007928
 80055c0:	08007948 	.word	0x08007948
 80055c4:	08007964 	.word	0x08007964
 80055c8:	08007988 	.word	0x08007988
 80055cc:	080079a4 	.word	0x080079a4
 80055d0:	080079d4 	.word	0x080079d4
 80055d4:	08007a2c 	.word	0x08007a2c
 80055d8:	08007a7c 	.word	0x08007a7c

080055dc <lfs_format_>:
static int lfs_format_(lfs_t *lfs, const struct lfs_config *cfg) {
 80055dc:	b570      	push	{r4, r5, r6, lr}
 80055de:	b096      	sub	sp, #88	@ 0x58
 80055e0:	4604      	mov	r4, r0
 80055e2:	460d      	mov	r5, r1
        err = lfs_init(lfs, cfg);
 80055e4:	f7ff fdf8 	bl	80051d8 <lfs_init>
        if (err) {
 80055e8:	4606      	mov	r6, r0
 80055ea:	b9f0      	cbnz	r0, 800562a <lfs_format_+0x4e>
        LFS_ASSERT(cfg->block_count != 0);
 80055ec:	6a2b      	ldr	r3, [r5, #32]
 80055ee:	b1fb      	cbz	r3, 8005630 <lfs_format_+0x54>
        memset(lfs->lookahead.buffer, 0, lfs->cfg->lookahead_size);
 80055f0:	6ea3      	ldr	r3, [r4, #104]	@ 0x68
 80055f2:	6ada      	ldr	r2, [r3, #44]	@ 0x2c
 80055f4:	2100      	movs	r1, #0
 80055f6:	6e60      	ldr	r0, [r4, #100]	@ 0x64
 80055f8:	f000 ff54 	bl	80064a4 <memset>
        lfs->lookahead.start = 0;
 80055fc:	2200      	movs	r2, #0
 80055fe:	6562      	str	r2, [r4, #84]	@ 0x54
        lfs->lookahead.size = lfs_min(8*lfs->cfg->lookahead_size,
 8005600:	6ea3      	ldr	r3, [r4, #104]	@ 0x68
 8005602:	6adb      	ldr	r3, [r3, #44]	@ 0x2c
 8005604:	00db      	lsls	r3, r3, #3
                lfs->block_count);
 8005606:	6ee1      	ldr	r1, [r4, #108]	@ 0x6c
    return (a < b) ? a : b;
 8005608:	428b      	cmp	r3, r1
 800560a:	bf28      	it	cs
 800560c:	460b      	movcs	r3, r1
        lfs->lookahead.size = lfs_min(8*lfs->cfg->lookahead_size,
 800560e:	65a3      	str	r3, [r4, #88]	@ 0x58
        lfs->lookahead.next = 0;
 8005610:	65e2      	str	r2, [r4, #92]	@ 0x5c
        lfs_alloc_ckpoint(lfs);
 8005612:	4620      	mov	r0, r4
 8005614:	f7fc fdae 	bl	8002174 <lfs_alloc_ckpoint>
        err = lfs_dir_alloc(lfs, &root);
 8005618:	a906      	add	r1, sp, #24
 800561a:	4620      	mov	r0, r4
 800561c:	f7fe f9ec 	bl	80039f8 <lfs_dir_alloc>
        if (err) {
 8005620:	4606      	mov	r6, r0
 8005622:	b160      	cbz	r0, 800563e <lfs_format_+0x62>
    lfs_deinit(lfs);
 8005624:	4620      	mov	r0, r4
 8005626:	f7ff fdbe 	bl	80051a6 <lfs_deinit>
}
 800562a:	4630      	mov	r0, r6
 800562c:	b016      	add	sp, #88	@ 0x58
 800562e:	bd70      	pop	{r4, r5, r6, pc}
        LFS_ASSERT(cfg->block_count != 0);
 8005630:	4b20      	ldr	r3, [pc, #128]	@ (80056b4 <lfs_format_+0xd8>)
 8005632:	4a21      	ldr	r2, [pc, #132]	@ (80056b8 <lfs_format_+0xdc>)
 8005634:	f241 1137 	movw	r1, #4407	@ 0x1137
 8005638:	4820      	ldr	r0, [pc, #128]	@ (80056bc <lfs_format_+0xe0>)
 800563a:	f000 fc2b 	bl	8005e94 <__assert_func>
            .version     = lfs_fs_disk_version(lfs),
 800563e:	4620      	mov	r0, r4
 8005640:	f7fc fd8a 	bl	8002158 <lfs_fs_disk_version>
        lfs_superblock_t superblock = {
 8005644:	9000      	str	r0, [sp, #0]
            .block_size  = lfs->cfg->block_size,
 8005646:	6ea3      	ldr	r3, [r4, #104]	@ 0x68
 8005648:	69db      	ldr	r3, [r3, #28]
        lfs_superblock_t superblock = {
 800564a:	9301      	str	r3, [sp, #4]
            .block_count = lfs->block_count,
 800564c:	6ee3      	ldr	r3, [r4, #108]	@ 0x6c
        lfs_superblock_t superblock = {
 800564e:	9302      	str	r3, [sp, #8]
            .name_max    = lfs->name_max,
 8005650:	6f23      	ldr	r3, [r4, #112]	@ 0x70
        lfs_superblock_t superblock = {
 8005652:	9303      	str	r3, [sp, #12]
            .file_max    = lfs->file_max,
 8005654:	6f63      	ldr	r3, [r4, #116]	@ 0x74
        lfs_superblock_t superblock = {
 8005656:	9304      	str	r3, [sp, #16]
            .attr_max    = lfs->attr_max,
 8005658:	6fa3      	ldr	r3, [r4, #120]	@ 0x78
        lfs_superblock_t superblock = {
 800565a:	9305      	str	r3, [sp, #20]
        err = lfs_dir_commit(lfs, &root, LFS_MKATTRS(
 800565c:	4b18      	ldr	r3, [pc, #96]	@ (80056c0 <lfs_format_+0xe4>)
 800565e:	930e      	str	r3, [sp, #56]	@ 0x38
 8005660:	2300      	movs	r3, #0
 8005662:	930f      	str	r3, [sp, #60]	@ 0x3c
 8005664:	4b17      	ldr	r3, [pc, #92]	@ (80056c4 <lfs_format_+0xe8>)
 8005666:	9310      	str	r3, [sp, #64]	@ 0x40
 8005668:	4b17      	ldr	r3, [pc, #92]	@ (80056c8 <lfs_format_+0xec>)
 800566a:	9311      	str	r3, [sp, #68]	@ 0x44
 800566c:	4b17      	ldr	r3, [pc, #92]	@ (80056cc <lfs_format_+0xf0>)
 800566e:	9312      	str	r3, [sp, #72]	@ 0x48
 8005670:	f8cd d04c 	str.w	sp, [sp, #76]	@ 0x4c
 8005674:	2303      	movs	r3, #3
 8005676:	aa0e      	add	r2, sp, #56	@ 0x38
 8005678:	a906      	add	r1, sp, #24
 800567a:	4620      	mov	r0, r4
 800567c:	f7ff fd86 	bl	800518c <lfs_dir_commit>
        if (err) {
 8005680:	4606      	mov	r6, r0
 8005682:	2800      	cmp	r0, #0
 8005684:	d1ce      	bne.n	8005624 <lfs_format_+0x48>
        root.erased = false;
 8005686:	2200      	movs	r2, #0
 8005688:	f88d 202e 	strb.w	r2, [sp, #46]	@ 0x2e
        err = lfs_dir_commit(lfs, &root, NULL, 0);
 800568c:	4613      	mov	r3, r2
 800568e:	a906      	add	r1, sp, #24
 8005690:	4620      	mov	r0, r4
 8005692:	f7ff fd7b 	bl	800518c <lfs_dir_commit>
        if (err) {
 8005696:	4606      	mov	r6, r0
 8005698:	2800      	cmp	r0, #0
 800569a:	d1c3      	bne.n	8005624 <lfs_format_+0x48>
        err = lfs_dir_fetch(lfs, &root, (const lfs_block_t[2]){0, 1});
 800569c:	2300      	movs	r3, #0
 800569e:	9314      	str	r3, [sp, #80]	@ 0x50
 80056a0:	2301      	movs	r3, #1
 80056a2:	9315      	str	r3, [sp, #84]	@ 0x54
 80056a4:	aa14      	add	r2, sp, #80	@ 0x50
 80056a6:	a906      	add	r1, sp, #24
 80056a8:	4620      	mov	r0, r4
 80056aa:	f7fe f859 	bl	8003760 <lfs_dir_fetch>
 80056ae:	4606      	mov	r6, r0
        if (err) {
 80056b0:	e7b8      	b.n	8005624 <lfs_format_+0x48>
 80056b2:	bf00      	nop
 80056b4:	08007b0c 	.word	0x08007b0c
 80056b8:	08007e94 	.word	0x08007e94
 80056bc:	080070fc 	.word	0x080070fc
 80056c0:	40100000 	.word	0x40100000
 80056c4:	0ff00008 	.word	0x0ff00008
 80056c8:	08007b24 	.word	0x08007b24
 80056cc:	20100018 	.word	0x20100018

080056d0 <lfs_unmount_>:
static int lfs_unmount_(lfs_t *lfs) {
 80056d0:	b508      	push	{r3, lr}
    return lfs_deinit(lfs);
 80056d2:	f7ff fd68 	bl	80051a6 <lfs_deinit>
}
 80056d6:	bd08      	pop	{r3, pc}

080056d8 <lfs_mount_>:
static int lfs_mount_(lfs_t *lfs, const struct lfs_config *cfg) {
 80056d8:	e92d 47f0 	stmdb	sp!, {r4, r5, r6, r7, r8, r9, sl, lr}
 80056dc:	b09a      	sub	sp, #104	@ 0x68
 80056de:	4604      	mov	r4, r0
    int err = lfs_init(lfs, cfg);
 80056e0:	f7ff fd7a 	bl	80051d8 <lfs_init>
    if (err) {
 80056e4:	4605      	mov	r5, r0
 80056e6:	2800      	cmp	r0, #0
 80056e8:	f040 811a 	bne.w	8005920 <lfs_mount_+0x248>
    lfs_mdir_t dir = {.tail = {0, 1}};
 80056ec:	2220      	movs	r2, #32
 80056ee:	2100      	movs	r1, #0
 80056f0:	a80f      	add	r0, sp, #60	@ 0x3c
 80056f2:	f000 fed7 	bl	80064a4 <memset>
 80056f6:	2301      	movs	r3, #1
 80056f8:	9316      	str	r3, [sp, #88]	@ 0x58
    struct lfs_tortoise_t tortoise = {
 80056fa:	f10d 0c2c 	add.w	ip, sp, #44	@ 0x2c
 80056fe:	4b8a      	ldr	r3, [pc, #552]	@ (8005928 <lfs_mount_+0x250>)
 8005700:	cb0f      	ldmia	r3, {r0, r1, r2, r3}
 8005702:	e88c 000f 	stmia.w	ip, {r0, r1, r2, r3}
    return pair[0] == LFS_BLOCK_NULL || pair[1] == LFS_BLOCK_NULL;
 8005706:	9b15      	ldr	r3, [sp, #84]	@ 0x54
 8005708:	f1b3 3fff 	cmp.w	r3, #4294967295	@ 0xffffffff
 800570c:	f000 80e1 	beq.w	80058d2 <lfs_mount_+0x1fa>
 8005710:	9b16      	ldr	r3, [sp, #88]	@ 0x58
 8005712:	f1b3 3fff 	cmp.w	r3, #4294967295	@ 0xffffffff
 8005716:	f000 80dc 	beq.w	80058d2 <lfs_mount_+0x1fa>
        err = lfs_tortoise_detectcycles(&dir, &tortoise);
 800571a:	a90b      	add	r1, sp, #44	@ 0x2c
 800571c:	a80f      	add	r0, sp, #60	@ 0x3c
 800571e:	f7fc fe37 	bl	8002390 <lfs_tortoise_detectcycles>
        if (err < 0) {
 8005722:	2800      	cmp	r0, #0
 8005724:	f2c0 80d0 	blt.w	80058c8 <lfs_mount_+0x1f0>
                lfs_dir_find_match, &(struct lfs_dir_find_match){
 8005728:	9417      	str	r4, [sp, #92]	@ 0x5c
 800572a:	4b80      	ldr	r3, [pc, #512]	@ (800592c <lfs_mount_+0x254>)
 800572c:	9318      	str	r3, [sp, #96]	@ 0x60
 800572e:	2308      	movs	r3, #8
 8005730:	9319      	str	r3, [sp, #100]	@ 0x64
        lfs_stag_t tag = lfs_dir_fetchmatch(lfs, &dir, dir.tail,
 8005732:	ab17      	add	r3, sp, #92	@ 0x5c
 8005734:	9303      	str	r3, [sp, #12]
 8005736:	4b7e      	ldr	r3, [pc, #504]	@ (8005930 <lfs_mount_+0x258>)
 8005738:	9302      	str	r3, [sp, #8]
 800573a:	2300      	movs	r3, #0
 800573c:	9301      	str	r3, [sp, #4]
 800573e:	4b7d      	ldr	r3, [pc, #500]	@ (8005934 <lfs_mount_+0x25c>)
 8005740:	9300      	str	r3, [sp, #0]
 8005742:	4b7d      	ldr	r3, [pc, #500]	@ (8005938 <lfs_mount_+0x260>)
 8005744:	aa15      	add	r2, sp, #84	@ 0x54
 8005746:	a90f      	add	r1, sp, #60	@ 0x3c
 8005748:	4620      	mov	r0, r4
 800574a:	f7fd fd3b 	bl	80031c4 <lfs_dir_fetchmatch>
        if (tag < 0) {
 800574e:	2800      	cmp	r0, #0
 8005750:	f2c0 80b8 	blt.w	80058c4 <lfs_mount_+0x1ec>
        if (tag && !lfs_tag_isdelete(tag)) {
 8005754:	b120      	cbz	r0, 8005760 <lfs_mount_+0x88>
    return ((int32_t)(tag << 22) >> 22) == -1;
 8005756:	f340 0009 	sbfx	r0, r0, #0, #10
        if (tag && !lfs_tag_isdelete(tag)) {
 800575a:	f1b0 3fff 	cmp.w	r0, #4294967295	@ 0xffffffff
 800575e:	d109      	bne.n	8005774 <lfs_mount_+0x9c>
        err = lfs_dir_getgstate(lfs, &dir, &lfs->gstate);
 8005760:	f104 0230 	add.w	r2, r4, #48	@ 0x30
 8005764:	a90f      	add	r1, sp, #60	@ 0x3c
 8005766:	4620      	mov	r0, r4
 8005768:	f7fd f826 	bl	80027b8 <lfs_dir_getgstate>
        if (err) {
 800576c:	2800      	cmp	r0, #0
 800576e:	d0ca      	beq.n	8005706 <lfs_mount_+0x2e>
        err = lfs_dir_getgstate(lfs, &dir, &lfs->gstate);
 8005770:	4605      	mov	r5, r0
 8005772:	e0aa      	b.n	80058ca <lfs_mount_+0x1f2>
            lfs->root[0] = dir.pair[0];
 8005774:	9b0f      	ldr	r3, [sp, #60]	@ 0x3c
 8005776:	6223      	str	r3, [r4, #32]
            lfs->root[1] = dir.pair[1];
 8005778:	9b10      	ldr	r3, [sp, #64]	@ 0x40
 800577a:	6263      	str	r3, [r4, #36]	@ 0x24
            tag = lfs_dir_get(lfs, &dir, LFS_MKTAG(0x7ff, 0x3ff, 0),
 800577c:	ab05      	add	r3, sp, #20
 800577e:	9300      	str	r3, [sp, #0]
 8005780:	4b6e      	ldr	r3, [pc, #440]	@ (800593c <lfs_mount_+0x264>)
 8005782:	4a6d      	ldr	r2, [pc, #436]	@ (8005938 <lfs_mount_+0x260>)
 8005784:	a90f      	add	r1, sp, #60	@ 0x3c
 8005786:	4620      	mov	r0, r4
 8005788:	f7fd f808 	bl	800279c <lfs_dir_get>
            if (tag < 0) {
 800578c:	2800      	cmp	r0, #0
 800578e:	f2c0 8097 	blt.w	80058c0 <lfs_mount_+0x1e8>
            uint16_t major_version = (0xffff & (superblock.version >> 16));
 8005792:	9e05      	ldr	r6, [sp, #20]
 8005794:	ea4f 4816 	mov.w	r8, r6, lsr #16
            uint16_t minor_version = (0xffff & (superblock.version >>  0));
 8005798:	fa1f f986 	uxth.w	r9, r6
            if (major_version != lfs_fs_disk_version_major(lfs)
 800579c:	4620      	mov	r0, r4
 800579e:	f7fc fcdf 	bl	8002160 <lfs_fs_disk_version_major>
 80057a2:	4607      	mov	r7, r0
 80057a4:	4540      	cmp	r0, r8
 80057a6:	d139      	bne.n	800581c <lfs_mount_+0x144>
                    || minor_version > lfs_fs_disk_version_minor(lfs)) {
 80057a8:	4620      	mov	r0, r4
 80057aa:	f7fc fcde 	bl	800216a <lfs_fs_disk_version_minor>
 80057ae:	4548      	cmp	r0, r9
 80057b0:	d334      	bcc.n	800581c <lfs_mount_+0x144>
            if (minor_version < lfs_fs_disk_version_minor(lfs)) {
 80057b2:	4548      	cmp	r0, r9
 80057b4:	d845      	bhi.n	8005842 <lfs_mount_+0x16a>
            bool needssuperblock = false;
 80057b6:	2100      	movs	r1, #0
            lfs_fs_prepsuperblock(lfs, needssuperblock);
 80057b8:	4620      	mov	r0, r4
 80057ba:	f7fc fd61 	bl	8002280 <lfs_fs_prepsuperblock>
            if (superblock.name_max) {
 80057be:	9b08      	ldr	r3, [sp, #32]
 80057c0:	b11b      	cbz	r3, 80057ca <lfs_mount_+0xf2>
                if (superblock.name_max > lfs->name_max) {
 80057c2:	6f22      	ldr	r2, [r4, #112]	@ 0x70
 80057c4:	4293      	cmp	r3, r2
 80057c6:	d84b      	bhi.n	8005860 <lfs_mount_+0x188>
                lfs->name_max = superblock.name_max;
 80057c8:	6723      	str	r3, [r4, #112]	@ 0x70
            if (superblock.file_max) {
 80057ca:	9b09      	ldr	r3, [sp, #36]	@ 0x24
 80057cc:	b11b      	cbz	r3, 80057d6 <lfs_mount_+0xfe>
                if (superblock.file_max > lfs->file_max) {
 80057ce:	6f62      	ldr	r2, [r4, #116]	@ 0x74
 80057d0:	4293      	cmp	r3, r2
 80057d2:	d851      	bhi.n	8005878 <lfs_mount_+0x1a0>
                lfs->file_max = superblock.file_max;
 80057d4:	6763      	str	r3, [r4, #116]	@ 0x74
            if (superblock.attr_max) {
 80057d6:	9b0a      	ldr	r3, [sp, #40]	@ 0x28
 80057d8:	b143      	cbz	r3, 80057ec <lfs_mount_+0x114>
                if (superblock.attr_max > lfs->attr_max) {
 80057da:	6fa2      	ldr	r2, [r4, #120]	@ 0x78
 80057dc:	4293      	cmp	r3, r2
 80057de:	d857      	bhi.n	8005890 <lfs_mount_+0x1b8>
                lfs->attr_max = superblock.attr_max;
 80057e0:	67a3      	str	r3, [r4, #120]	@ 0x78
                lfs->inline_max = lfs_min(lfs->inline_max, lfs->attr_max);
 80057e2:	6fe2      	ldr	r2, [r4, #124]	@ 0x7c
 80057e4:	4293      	cmp	r3, r2
 80057e6:	bf28      	it	cs
 80057e8:	4613      	movcs	r3, r2
 80057ea:	67e3      	str	r3, [r4, #124]	@ 0x7c
            if (lfs->cfg->block_count
 80057ec:	6ea2      	ldr	r2, [r4, #104]	@ 0x68
 80057ee:	6a11      	ldr	r1, [r2, #32]
 80057f0:	b111      	cbz	r1, 80057f8 <lfs_mount_+0x120>
                    && superblock.block_count != lfs->cfg->block_count) {
 80057f2:	9b07      	ldr	r3, [sp, #28]
 80057f4:	4299      	cmp	r1, r3
 80057f6:	d157      	bne.n	80058a8 <lfs_mount_+0x1d0>
            lfs->block_count = superblock.block_count;
 80057f8:	9b07      	ldr	r3, [sp, #28]
 80057fa:	66e3      	str	r3, [r4, #108]	@ 0x6c
            if (superblock.block_size != lfs->cfg->block_size) {
 80057fc:	9b06      	ldr	r3, [sp, #24]
 80057fe:	69d2      	ldr	r2, [r2, #28]
 8005800:	4293      	cmp	r3, r2
 8005802:	d0ad      	beq.n	8005760 <lfs_mount_+0x88>
                LFS_ERROR("Invalid block size (%"PRIu32" != %"PRIu32")",
 8005804:	494e      	ldr	r1, [pc, #312]	@ (8005940 <lfs_mount_+0x268>)
 8005806:	9101      	str	r1, [sp, #4]
 8005808:	9200      	str	r2, [sp, #0]
 800580a:	f241 220b 	movw	r2, #4619	@ 0x120b
 800580e:	494d      	ldr	r1, [pc, #308]	@ (8005944 <lfs_mount_+0x26c>)
 8005810:	484d      	ldr	r0, [pc, #308]	@ (8005948 <lfs_mount_+0x270>)
 8005812:	f000 fcf1 	bl	80061f8 <iprintf>
                err = LFS_ERR_INVAL;
 8005816:	f06f 0515 	mvn.w	r5, #21
                goto cleanup;
 800581a:	e056      	b.n	80058ca <lfs_mount_+0x1f2>
                LFS_ERROR("Invalid version "
 800581c:	4620      	mov	r0, r4
 800581e:	f7fc fca4 	bl	800216a <lfs_fs_disk_version_minor>
 8005822:	4b47      	ldr	r3, [pc, #284]	@ (8005940 <lfs_mount_+0x268>)
 8005824:	9303      	str	r3, [sp, #12]
 8005826:	9002      	str	r0, [sp, #8]
 8005828:	9701      	str	r7, [sp, #4]
 800582a:	b2b6      	uxth	r6, r6
 800582c:	9600      	str	r6, [sp, #0]
 800582e:	4643      	mov	r3, r8
 8005830:	f241 12bf 	movw	r2, #4543	@ 0x11bf
 8005834:	4943      	ldr	r1, [pc, #268]	@ (8005944 <lfs_mount_+0x26c>)
 8005836:	4845      	ldr	r0, [pc, #276]	@ (800594c <lfs_mount_+0x274>)
 8005838:	f000 fcde 	bl	80061f8 <iprintf>
                err = LFS_ERR_INVAL;
 800583c:	f06f 0515 	mvn.w	r5, #21
                goto cleanup;
 8005840:	e043      	b.n	80058ca <lfs_mount_+0x1f2>
                LFS_DEBUG("Found older minor version "
 8005842:	4b3f      	ldr	r3, [pc, #252]	@ (8005940 <lfs_mount_+0x268>)
 8005844:	9303      	str	r3, [sp, #12]
 8005846:	9002      	str	r0, [sp, #8]
 8005848:	9701      	str	r7, [sp, #4]
 800584a:	b2b6      	uxth	r6, r6
 800584c:	9600      	str	r6, [sp, #0]
 800584e:	4643      	mov	r3, r8
 8005850:	f241 12ce 	movw	r2, #4558	@ 0x11ce
 8005854:	493b      	ldr	r1, [pc, #236]	@ (8005944 <lfs_mount_+0x26c>)
 8005856:	483e      	ldr	r0, [pc, #248]	@ (8005950 <lfs_mount_+0x278>)
 8005858:	f000 fcce 	bl	80061f8 <iprintf>
                needssuperblock = true;
 800585c:	2101      	movs	r1, #1
 800585e:	e7ab      	b.n	80057b8 <lfs_mount_+0xe0>
                    LFS_ERROR("Unsupported name_max (%"PRIu32" > %"PRIu32")",
 8005860:	4937      	ldr	r1, [pc, #220]	@ (8005940 <lfs_mount_+0x268>)
 8005862:	9101      	str	r1, [sp, #4]
 8005864:	9200      	str	r2, [sp, #0]
 8005866:	f241 12dd 	movw	r2, #4573	@ 0x11dd
 800586a:	4936      	ldr	r1, [pc, #216]	@ (8005944 <lfs_mount_+0x26c>)
 800586c:	4839      	ldr	r0, [pc, #228]	@ (8005954 <lfs_mount_+0x27c>)
 800586e:	f000 fcc3 	bl	80061f8 <iprintf>
                    err = LFS_ERR_INVAL;
 8005872:	f06f 0515 	mvn.w	r5, #21
                    goto cleanup;
 8005876:	e028      	b.n	80058ca <lfs_mount_+0x1f2>
                    LFS_ERROR("Unsupported file_max (%"PRIu32" > %"PRIu32")",
 8005878:	4931      	ldr	r1, [pc, #196]	@ (8005940 <lfs_mount_+0x268>)
 800587a:	9101      	str	r1, [sp, #4]
 800587c:	9200      	str	r2, [sp, #0]
 800587e:	f241 12e8 	movw	r2, #4584	@ 0x11e8
 8005882:	4930      	ldr	r1, [pc, #192]	@ (8005944 <lfs_mount_+0x26c>)
 8005884:	4834      	ldr	r0, [pc, #208]	@ (8005958 <lfs_mount_+0x280>)
 8005886:	f000 fcb7 	bl	80061f8 <iprintf>
                    err = LFS_ERR_INVAL;
 800588a:	f06f 0515 	mvn.w	r5, #21
                    goto cleanup;
 800588e:	e01c      	b.n	80058ca <lfs_mount_+0x1f2>
                    LFS_ERROR("Unsupported attr_max (%"PRIu32" > %"PRIu32")",
 8005890:	492b      	ldr	r1, [pc, #172]	@ (8005940 <lfs_mount_+0x268>)
 8005892:	9101      	str	r1, [sp, #4]
 8005894:	9200      	str	r2, [sp, #0]
 8005896:	f241 12f3 	movw	r2, #4595	@ 0x11f3
 800589a:	492a      	ldr	r1, [pc, #168]	@ (8005944 <lfs_mount_+0x26c>)
 800589c:	482f      	ldr	r0, [pc, #188]	@ (800595c <lfs_mount_+0x284>)
 800589e:	f000 fcab 	bl	80061f8 <iprintf>
                    err = LFS_ERR_INVAL;
 80058a2:	f06f 0515 	mvn.w	r5, #21
                    goto cleanup;
 80058a6:	e010      	b.n	80058ca <lfs_mount_+0x1f2>
                LFS_ERROR("Invalid block count (%"PRIu32" != %"PRIu32")",
 80058a8:	4a25      	ldr	r2, [pc, #148]	@ (8005940 <lfs_mount_+0x268>)
 80058aa:	9201      	str	r2, [sp, #4]
 80058ac:	9100      	str	r1, [sp, #0]
 80058ae:	f241 2202 	movw	r2, #4610	@ 0x1202
 80058b2:	4924      	ldr	r1, [pc, #144]	@ (8005944 <lfs_mount_+0x26c>)
 80058b4:	482a      	ldr	r0, [pc, #168]	@ (8005960 <lfs_mount_+0x288>)
 80058b6:	f000 fc9f 	bl	80061f8 <iprintf>
                err = LFS_ERR_INVAL;
 80058ba:	f06f 0515 	mvn.w	r5, #21
                goto cleanup;
 80058be:	e004      	b.n	80058ca <lfs_mount_+0x1f2>
                err = tag;
 80058c0:	4605      	mov	r5, r0
 80058c2:	e002      	b.n	80058ca <lfs_mount_+0x1f2>
            err = tag;
 80058c4:	4605      	mov	r5, r0
 80058c6:	e000      	b.n	80058ca <lfs_mount_+0x1f2>
        err = lfs_tortoise_detectcycles(&dir, &tortoise);
 80058c8:	4605      	mov	r5, r0
    lfs_unmount_(lfs);
 80058ca:	4620      	mov	r0, r4
 80058cc:	f7ff ff00 	bl	80056d0 <lfs_unmount_>
    return err;
 80058d0:	e026      	b.n	8005920 <lfs_mount_+0x248>
    return a->tag == 0
 80058d2:	6b23      	ldr	r3, [r4, #48]	@ 0x30
            && a->pair[1] == 0;
 80058d4:	b91b      	cbnz	r3, 80058de <lfs_mount_+0x206>
            && a->pair[0] == 0
 80058d6:	6b62      	ldr	r2, [r4, #52]	@ 0x34
 80058d8:	b90a      	cbnz	r2, 80058de <lfs_mount_+0x206>
            && a->pair[1] == 0;
 80058da:	6ba2      	ldr	r2, [r4, #56]	@ 0x38
 80058dc:	b15a      	cbz	r2, 80058f6 <lfs_mount_+0x21e>
        LFS_DEBUG("Found pending gstate 0x%08"PRIx32"%08"PRIx32"%08"PRIx32,
 80058de:	4a18      	ldr	r2, [pc, #96]	@ (8005940 <lfs_mount_+0x268>)
 80058e0:	9202      	str	r2, [sp, #8]
 80058e2:	6ba2      	ldr	r2, [r4, #56]	@ 0x38
 80058e4:	9201      	str	r2, [sp, #4]
 80058e6:	6b62      	ldr	r2, [r4, #52]	@ 0x34
 80058e8:	9200      	str	r2, [sp, #0]
 80058ea:	f241 221b 	movw	r2, #4635	@ 0x121b
 80058ee:	4915      	ldr	r1, [pc, #84]	@ (8005944 <lfs_mount_+0x26c>)
 80058f0:	481c      	ldr	r0, [pc, #112]	@ (8005964 <lfs_mount_+0x28c>)
 80058f2:	f000 fc81 	bl	80061f8 <iprintf>
    lfs->gstate.tag += !lfs_tag_isvalid(lfs->gstate.tag);
 80058f6:	6b23      	ldr	r3, [r4, #48]	@ 0x30
 80058f8:	eb03 73d3 	add.w	r3, r3, r3, lsr #31
 80058fc:	6323      	str	r3, [r4, #48]	@ 0x30
    lfs->gdisk = lfs->gstate;
 80058fe:	f104 033c 	add.w	r3, r4, #60	@ 0x3c
 8005902:	f104 0230 	add.w	r2, r4, #48	@ 0x30
 8005906:	ca07      	ldmia	r2, {r0, r1, r2}
 8005908:	e883 0007 	stmia.w	r3, {r0, r1, r2}
    lfs->lookahead.start = lfs->seed % lfs->block_count;
 800590c:	6ae3      	ldr	r3, [r4, #44]	@ 0x2c
 800590e:	6ee2      	ldr	r2, [r4, #108]	@ 0x6c
 8005910:	fbb3 f1f2 	udiv	r1, r3, r2
 8005914:	fb02 3311 	mls	r3, r2, r1, r3
 8005918:	6563      	str	r3, [r4, #84]	@ 0x54
    lfs_alloc_drop(lfs);
 800591a:	4620      	mov	r0, r4
 800591c:	f7fc fc2d 	bl	800217a <lfs_alloc_drop>
}
 8005920:	4628      	mov	r0, r5
 8005922:	b01a      	add	sp, #104	@ 0x68
 8005924:	e8bd 87f0 	ldmia.w	sp!, {r4, r5, r6, r7, r8, r9, sl, pc}
 8005928:	08006f18 	.word	0x08006f18
 800592c:	08007b24 	.word	0x08007b24
 8005930:	08002f85 	.word	0x08002f85
 8005934:	0ff00008 	.word	0x0ff00008
 8005938:	7ffffc00 	.word	0x7ffffc00
 800593c:	20100018 	.word	0x20100018
 8005940:	0800708c 	.word	0x0800708c
 8005944:	080070fc 	.word	0x080070fc
 8005948:	08007c78 	.word	0x08007c78
 800594c:	08007b30 	.word	0x08007b30
 8005950:	08007b68 	.word	0x08007b68
 8005954:	08007ba8 	.word	0x08007ba8
 8005958:	08007bdc 	.word	0x08007bdc
 800595c:	08007c10 	.word	0x08007c10
 8005960:	08007c44 	.word	0x08007c44
 8005964:	08007ca8 	.word	0x08007ca8

08005968 <lfs_format>:
#define LFS_UNLOCK(cfg) ((void)cfg)
#endif

// Public API
#ifndef LFS_READONLY
int lfs_format(lfs_t *lfs, const struct lfs_config *cfg) {
 8005968:	b508      	push	{r3, lr}
            cfg->read_size, cfg->prog_size, cfg->block_size, cfg->block_count,
            cfg->block_cycles, cfg->cache_size, cfg->lookahead_size,
            cfg->read_buffer, cfg->prog_buffer, cfg->lookahead_buffer,
            cfg->name_max, cfg->file_max, cfg->attr_max);

    err = lfs_format_(lfs, cfg);
 800596a:	f7ff fe37 	bl	80055dc <lfs_format_>

    LFS_TRACE("lfs_format -> %d", err);
    LFS_UNLOCK(cfg);
    return err;
}
 800596e:	bd08      	pop	{r3, pc}

08005970 <lfs_mount>:
#endif

int lfs_mount(lfs_t *lfs, const struct lfs_config *cfg) {
 8005970:	b508      	push	{r3, lr}
            cfg->read_size, cfg->prog_size, cfg->block_size, cfg->block_count,
            cfg->block_cycles, cfg->cache_size, cfg->lookahead_size,
            cfg->read_buffer, cfg->prog_buffer, cfg->lookahead_buffer,
            cfg->name_max, cfg->file_max, cfg->attr_max);

    err = lfs_mount_(lfs, cfg);
 8005972:	f7ff feb1 	bl	80056d8 <lfs_mount_>

    LFS_TRACE("lfs_mount -> %d", err);
    LFS_UNLOCK(cfg);
    return err;
}
 8005976:	bd08      	pop	{r3, pc}

08005978 <lfs_crc>:
        0x9b64c2b0, 0x86d3d2d4, 0xa00ae278, 0xbdbdf21c,
    };

    const uint8_t *data = buffer;

    for (size_t i = 0; i < size; i++) {
 8005978:	f04f 0c00 	mov.w	ip, #0
 800597c:	4594      	cmp	ip, r2
 800597e:	d218      	bcs.n	80059b2 <lfs_crc+0x3a>
uint32_t lfs_crc(uint32_t crc, const void *buffer, size_t size) {
 8005980:	b530      	push	{r4, r5, lr}
        crc = (crc >> 4) ^ rtable[(crc ^ (data[i] >> 0)) & 0xf];
 8005982:	f811 300c 	ldrb.w	r3, [r1, ip]
 8005986:	ea83 0e00 	eor.w	lr, r3, r0
 800598a:	f00e 0e0f 	and.w	lr, lr, #15
 800598e:	4c09      	ldr	r4, [pc, #36]	@ (80059b4 <lfs_crc+0x3c>)
 8005990:	f854 502e 	ldr.w	r5, [r4, lr, lsl #2]
 8005994:	ea85 1010 	eor.w	r0, r5, r0, lsr #4
        crc = (crc >> 4) ^ rtable[(crc ^ (data[i] >> 4)) & 0xf];
 8005998:	ea80 1313 	eor.w	r3, r0, r3, lsr #4
 800599c:	f003 030f 	and.w	r3, r3, #15
 80059a0:	f854 3023 	ldr.w	r3, [r4, r3, lsl #2]
 80059a4:	ea83 1010 	eor.w	r0, r3, r0, lsr #4
    for (size_t i = 0; i < size; i++) {
 80059a8:	f10c 0c01 	add.w	ip, ip, #1
 80059ac:	4594      	cmp	ip, r2
 80059ae:	d3e8      	bcc.n	8005982 <lfs_crc+0xa>
    }

    return crc;
}
 80059b0:	bd30      	pop	{r4, r5, pc}
 80059b2:	4770      	bx	lr
 80059b4:	08007ea0 	.word	0x08007ea0

080059b8 <w25qxx_transmit>:
 * @param  W25Qxx handle
 * @param  Pointer to buffer with data to transmit
 * @param  Length (in bytes) of data to be transmitted
 * @retval None
 */
W25QXX_result_t w25qxx_transmit(W25QXX_HandleTypeDef *w25qxx, uint8_t *buf, uint32_t len) {
 80059b8:	b508      	push	{r3, lr}
    W25QXX_result_t ret = W25QXX_Err;
    if (HAL_SPI_Transmit(w25qxx->spiHandle, buf, len, HAL_MAX_DELAY) == HAL_OK) {
 80059ba:	f04f 33ff 	mov.w	r3, #4294967295	@ 0xffffffff
 80059be:	b292      	uxth	r2, r2
 80059c0:	6800      	ldr	r0, [r0, #0]
 80059c2:	f7fb ff2c 	bl	800181e <HAL_SPI_Transmit>
 80059c6:	b100      	cbz	r0, 80059ca <w25qxx_transmit+0x12>
    W25QXX_result_t ret = W25QXX_Err;
 80059c8:	2001      	movs	r0, #1
        ret = W25QXX_Ok;
    }
    return ret;
}
 80059ca:	bd08      	pop	{r3, pc}

080059cc <w25qxx_receive>:

/*
 * Receive data from w25qxx
 */
W25QXX_result_t w25qxx_receive(W25QXX_HandleTypeDef *w25qxx, uint8_t *buf, uint32_t len) {
 80059cc:	b508      	push	{r3, lr}
    W25QXX_result_t ret = W25QXX_Err;
    if (HAL_SPI_Receive(w25qxx->spiHandle, buf, len, HAL_MAX_DELAY) == HAL_OK) {
 80059ce:	f04f 33ff 	mov.w	r3, #4294967295	@ 0xffffffff
 80059d2:	b292      	uxth	r2, r2
 80059d4:	6800      	ldr	r0, [r0, #0]
 80059d6:	f7fc f92d 	bl	8001c34 <HAL_SPI_Receive>
 80059da:	b100      	cbz	r0, 80059de <w25qxx_receive+0x12>
    W25QXX_result_t ret = W25QXX_Err;
 80059dc:	2001      	movs	r0, #1
        ret = W25QXX_Ok;
    }
    return ret;
}
 80059de:	bd08      	pop	{r3, pc}

080059e0 <w25qxx_read_id>:

uint32_t w25qxx_read_id(W25QXX_HandleTypeDef *w25qxx) {
 80059e0:	b530      	push	{r4, r5, lr}
 80059e2:	b083      	sub	sp, #12
 80059e4:	4604      	mov	r4, r0
    HAL_GPIO_WritePin(w25qxx->cs_port, w25qxx->cs_pin, GPIO_PIN_RESET);
 80059e6:	2200      	movs	r2, #0
 80059e8:	8901      	ldrh	r1, [r0, #8]
 80059ea:	6840      	ldr	r0, [r0, #4]
 80059ec:	f7fb fa84 	bl	8000ef8 <HAL_GPIO_WritePin>
    uint32_t ret = 0;
    uint8_t buf[3];
    cs_on(w25qxx);
    buf[0] = W25QXX_GET_ID;
 80059f0:	239f      	movs	r3, #159	@ 0x9f
 80059f2:	f88d 3004 	strb.w	r3, [sp, #4]
    if (w25qxx_transmit(w25qxx, buf, 1) == W25QXX_Ok) {
 80059f6:	2201      	movs	r2, #1
 80059f8:	a901      	add	r1, sp, #4
 80059fa:	4620      	mov	r0, r4
 80059fc:	f7ff ffdc 	bl	80059b8 <w25qxx_transmit>
 8005a00:	b140      	cbz	r0, 8005a14 <w25qxx_read_id+0x34>
    uint32_t ret = 0;
 8005a02:	2500      	movs	r5, #0
    HAL_GPIO_WritePin(w25qxx->cs_port, w25qxx->cs_pin, GPIO_PIN_SET);
 8005a04:	2201      	movs	r2, #1
 8005a06:	8921      	ldrh	r1, [r4, #8]
 8005a08:	6860      	ldr	r0, [r4, #4]
 8005a0a:	f7fb fa75 	bl	8000ef8 <HAL_GPIO_WritePin>
            ret = (uint32_t) ((buf[0] << 16) | (buf[1] << 8) | (buf[2]));
        }
    }
    cs_off(w25qxx);
    return ret;
}
 8005a0e:	4628      	mov	r0, r5
 8005a10:	b003      	add	sp, #12
 8005a12:	bd30      	pop	{r4, r5, pc}
        if (w25qxx_receive(w25qxx, buf, 3) == W25QXX_Ok) {
 8005a14:	2203      	movs	r2, #3
 8005a16:	a901      	add	r1, sp, #4
 8005a18:	4620      	mov	r0, r4
 8005a1a:	f7ff ffd7 	bl	80059cc <w25qxx_receive>
 8005a1e:	b950      	cbnz	r0, 8005a36 <w25qxx_read_id+0x56>
            ret = (uint32_t) ((buf[0] << 16) | (buf[1] << 8) | (buf[2]));
 8005a20:	f89d 3004 	ldrb.w	r3, [sp, #4]
 8005a24:	f89d 5005 	ldrb.w	r5, [sp, #5]
 8005a28:	022d      	lsls	r5, r5, #8
 8005a2a:	ea45 4503 	orr.w	r5, r5, r3, lsl #16
 8005a2e:	f89d 3006 	ldrb.w	r3, [sp, #6]
 8005a32:	431d      	orrs	r5, r3
 8005a34:	e7e6      	b.n	8005a04 <w25qxx_read_id+0x24>
    uint32_t ret = 0;
 8005a36:	2500      	movs	r5, #0
 8005a38:	e7e4      	b.n	8005a04 <w25qxx_read_id+0x24>

08005a3a <w25qxx_get_status>:

uint8_t w25qxx_get_status(W25QXX_HandleTypeDef *w25qxx) {
 8005a3a:	b530      	push	{r4, r5, lr}
 8005a3c:	b083      	sub	sp, #12
 8005a3e:	4604      	mov	r4, r0
    uint8_t ret = 0;
    uint8_t buf = W25QXX_READ_REGISTER_1;
 8005a40:	2305      	movs	r3, #5
 8005a42:	f88d 3007 	strb.w	r3, [sp, #7]
    HAL_GPIO_WritePin(w25qxx->cs_port, w25qxx->cs_pin, GPIO_PIN_RESET);
 8005a46:	2200      	movs	r2, #0
 8005a48:	8901      	ldrh	r1, [r0, #8]
 8005a4a:	6840      	ldr	r0, [r0, #4]
 8005a4c:	f7fb fa54 	bl	8000ef8 <HAL_GPIO_WritePin>
    cs_on(w25qxx);
    if (w25qxx_transmit(w25qxx, &buf, 1) == W25QXX_Ok) {
 8005a50:	2201      	movs	r2, #1
 8005a52:	f10d 0107 	add.w	r1, sp, #7
 8005a56:	4620      	mov	r0, r4
 8005a58:	f7ff ffae 	bl	80059b8 <w25qxx_transmit>
 8005a5c:	b140      	cbz	r0, 8005a70 <w25qxx_get_status+0x36>
    uint8_t ret = 0;
 8005a5e:	2500      	movs	r5, #0
    HAL_GPIO_WritePin(w25qxx->cs_port, w25qxx->cs_pin, GPIO_PIN_SET);
 8005a60:	2201      	movs	r2, #1
 8005a62:	8921      	ldrh	r1, [r4, #8]
 8005a64:	6860      	ldr	r0, [r4, #4]
 8005a66:	f7fb fa47 	bl	8000ef8 <HAL_GPIO_WritePin>
            ret = buf;
        }
    }
    cs_off(w25qxx);
    return ret;
}
 8005a6a:	4628      	mov	r0, r5
 8005a6c:	b003      	add	sp, #12
 8005a6e:	bd30      	pop	{r4, r5, pc}
 8005a70:	4605      	mov	r5, r0
        if (w25qxx_receive(w25qxx, &buf, 1) == W25QXX_Ok) {
 8005a72:	2201      	movs	r2, #1
 8005a74:	f10d 0107 	add.w	r1, sp, #7
 8005a78:	4620      	mov	r0, r4
 8005a7a:	f7ff ffa7 	bl	80059cc <w25qxx_receive>
 8005a7e:	2800      	cmp	r0, #0
 8005a80:	d1ee      	bne.n	8005a60 <w25qxx_get_status+0x26>
            ret = buf;
 8005a82:	f89d 5007 	ldrb.w	r5, [sp, #7]
 8005a86:	e7eb      	b.n	8005a60 <w25qxx_get_status+0x26>

08005a88 <w25qxx_write_enable>:

W25QXX_result_t w25qxx_write_enable(W25QXX_HandleTypeDef *w25qxx) {
 8005a88:	b530      	push	{r4, r5, lr}
 8005a8a:	b083      	sub	sp, #12
 8005a8c:	4604      	mov	r4, r0
    HAL_GPIO_WritePin(w25qxx->cs_port, w25qxx->cs_pin, GPIO_PIN_RESET);
 8005a8e:	2200      	movs	r2, #0
 8005a90:	8901      	ldrh	r1, [r0, #8]
 8005a92:	6840      	ldr	r0, [r0, #4]
 8005a94:	f7fb fa30 	bl	8000ef8 <HAL_GPIO_WritePin>
    W25_DBG("w25qxx_write_enable");
    W25QXX_result_t ret = W25QXX_Err;
    uint8_t buf[1];
    cs_on(w25qxx);
    buf[0] = W25QXX_WRITE_ENABLE;
 8005a98:	2306      	movs	r3, #6
 8005a9a:	f88d 3004 	strb.w	r3, [sp, #4]
    if (w25qxx_transmit(w25qxx, buf, 1) == W25QXX_Ok) {
 8005a9e:	2201      	movs	r2, #1
 8005aa0:	a901      	add	r1, sp, #4
 8005aa2:	4620      	mov	r0, r4
 8005aa4:	f7ff ff88 	bl	80059b8 <w25qxx_transmit>
 8005aa8:	4605      	mov	r5, r0
 8005aaa:	b100      	cbz	r0, 8005aae <w25qxx_write_enable+0x26>
    W25QXX_result_t ret = W25QXX_Err;
 8005aac:	2501      	movs	r5, #1
    HAL_GPIO_WritePin(w25qxx->cs_port, w25qxx->cs_pin, GPIO_PIN_SET);
 8005aae:	2201      	movs	r2, #1
 8005ab0:	8921      	ldrh	r1, [r4, #8]
 8005ab2:	6860      	ldr	r0, [r4, #4]
 8005ab4:	f7fb fa20 	bl	8000ef8 <HAL_GPIO_WritePin>
        ret = W25QXX_Ok;
    }
    cs_off(w25qxx);
    return ret;
}
 8005ab8:	4628      	mov	r0, r5
 8005aba:	b003      	add	sp, #12
 8005abc:	bd30      	pop	{r4, r5, pc}

08005abe <w25qxx_wait_for_ready>:

W25QXX_result_t w25qxx_wait_for_ready(W25QXX_HandleTypeDef *w25qxx, uint32_t timeout) {
 8005abe:	b5f8      	push	{r3, r4, r5, r6, r7, lr}
 8005ac0:	4607      	mov	r7, r0
 8005ac2:	460d      	mov	r5, r1
    W25QXX_result_t ret = W25QXX_Ok;
    uint32_t begin = HAL_GetTick();
 8005ac4:	f7fb f890 	bl	8000be8 <HAL_GetTick>
 8005ac8:	4606      	mov	r6, r0
    uint32_t now = HAL_GetTick();
 8005aca:	f7fb f88d 	bl	8000be8 <HAL_GetTick>
    // Wait until the busy flags disappear.
    while ((now - begin <= timeout) && (w25qxx_get_status(w25qxx) & 0x01)) {
 8005ace:	e001      	b.n	8005ad4 <w25qxx_wait_for_ready+0x16>
        now = HAL_GetTick();
 8005ad0:	f7fb f88a 	bl	8000be8 <HAL_GetTick>
    while ((now - begin <= timeout) && (w25qxx_get_status(w25qxx) & 0x01)) {
 8005ad4:	1b84      	subs	r4, r0, r6
 8005ad6:	42ac      	cmp	r4, r5
 8005ad8:	d805      	bhi.n	8005ae6 <w25qxx_wait_for_ready+0x28>
 8005ada:	4638      	mov	r0, r7
 8005adc:	f7ff ffad 	bl	8005a3a <w25qxx_get_status>
 8005ae0:	f010 0f01 	tst.w	r0, #1
 8005ae4:	d1f4      	bne.n	8005ad0 <w25qxx_wait_for_ready+0x12>
    }
    if (now - begin == timeout)
 8005ae6:	42ac      	cmp	r4, r5
 8005ae8:	d001      	beq.n	8005aee <w25qxx_wait_for_ready+0x30>
    W25QXX_result_t ret = W25QXX_Ok;
 8005aea:	2000      	movs	r0, #0
        ret = W25QXX_Timeout;
    return ret;
}
 8005aec:	bdf8      	pop	{r3, r4, r5, r6, r7, pc}
        ret = W25QXX_Timeout;
 8005aee:	2002      	movs	r0, #2
 8005af0:	e7fc      	b.n	8005aec <w25qxx_wait_for_ready+0x2e>
	...

08005af4 <w25qxx_init>:

#ifdef W25QXX_QSPI
W25QXX_result_t w25qxx_init(W25QXX_HandleTypeDef *w25qxx, QSPI_HandleTypeDef *qhspi) {
#else
W25QXX_result_t w25qxx_init(W25QXX_HandleTypeDef *w25qxx, SPI_HandleTypeDef *hspi, GPIO_TypeDef *cs_port, uint16_t cs_pin) {
 8005af4:	e92d 41f0 	stmdb	sp!, {r4, r5, r6, r7, r8, lr}
 8005af8:	4604      	mov	r4, r0
 8005afa:	4688      	mov	r8, r1
 8005afc:	4616      	mov	r6, r2
 8005afe:	461f      	mov	r7, r3

    W25QXX_result_t result = W25QXX_Ok;

    W25_DBG("w25qxx_init");

    char *version_buffer = malloc(strlen(W25QXX_VERSION) + 1);
 8005b00:	2014      	movs	r0, #20
 8005b02:	f000 f9e5 	bl	8005ed0 <malloc>
    if (version_buffer) {
 8005b06:	b180      	cbz	r0, 8005b2a <w25qxx_init+0x36>
 8005b08:	4684      	mov	ip, r0
        sprintf(version_buffer, "%s", W25QXX_VERSION);
 8005b0a:	4d33      	ldr	r5, [pc, #204]	@ (8005bd8 <w25qxx_init+0xe4>)
 8005b0c:	cd0f      	ldmia	r5!, {r0, r1, r2, r3}
 8005b0e:	f8cc 0000 	str.w	r0, [ip]
 8005b12:	f8cc 1004 	str.w	r1, [ip, #4]
 8005b16:	f8cc 2008 	str.w	r2, [ip, #8]
 8005b1a:	f8cc 300c 	str.w	r3, [ip, #12]
 8005b1e:	6828      	ldr	r0, [r5, #0]
 8005b20:	f8cc 0010 	str.w	r0, [ip, #16]
        free(version_buffer);
 8005b24:	4660      	mov	r0, ip
 8005b26:	f000 f9db 	bl	8005ee0 <free>
    }

#ifdef W25QXX_QSPI
    w25qxx->qspiHandle = qhspi;
#else
    w25qxx->spiHandle = hspi;
 8005b2a:	f8c4 8000 	str.w	r8, [r4]
    w25qxx->cs_port = cs_port;
 8005b2e:	6066      	str	r6, [r4, #4]
    w25qxx->cs_pin = cs_pin;
 8005b30:	8127      	strh	r7, [r4, #8]
    HAL_GPIO_WritePin(w25qxx->cs_port, w25qxx->cs_pin, GPIO_PIN_SET);
 8005b32:	2201      	movs	r2, #1
 8005b34:	4639      	mov	r1, r7
 8005b36:	4630      	mov	r0, r6
 8005b38:	f7fb f9de 	bl	8000ef8 <HAL_GPIO_WritePin>

    cs_off(w25qxx);
#endif

    uint32_t id = w25qxx_read_id(w25qxx);
 8005b3c:	4620      	mov	r0, r4
 8005b3e:	f7ff ff4f 	bl	80059e0 <w25qxx_read_id>
    if (id) {
 8005b42:	b140      	cbz	r0, 8005b56 <w25qxx_init+0x62>
        w25qxx->manufacturer_id = (uint8_t) (id >> 16);
 8005b44:	f3c0 4307 	ubfx	r3, r0, #16, #8
 8005b48:	72a3      	strb	r3, [r4, #10]
        w25qxx->device_id = (uint16_t) (id & 0xFFFF);
 8005b4a:	b282      	uxth	r2, r0
 8005b4c:	81a2      	strh	r2, [r4, #12]

        switch (w25qxx->manufacturer_id) {
 8005b4e:	2bc8      	cmp	r3, #200	@ 0xc8
 8005b50:	d009      	beq.n	8005b66 <w25qxx_init+0x72>
 8005b52:	2bef      	cmp	r3, #239	@ 0xef
 8005b54:	d01b      	beq.n	8005b8e <w25qxx_init+0x9a>
        result = W25QXX_Err;
    }

    if (result == W25QXX_Err) {
        // Zero the handle so it is clear initialization failed!
        memset(w25qxx, 0, sizeof(W25QXX_HandleTypeDef));
 8005b56:	2228      	movs	r2, #40	@ 0x28
 8005b58:	2100      	movs	r1, #0
 8005b5a:	4620      	mov	r0, r4
 8005b5c:	f000 fca2 	bl	80064a4 <memset>
 8005b60:	2001      	movs	r0, #1
    }

    return result;

}
 8005b62:	e8bd 81f0 	ldmia.w	sp!, {r4, r5, r6, r7, r8, pc}
            w25qxx->block_size = 0x10000;
 8005b66:	f44f 3380 	mov.w	r3, #65536	@ 0x10000
 8005b6a:	6123      	str	r3, [r4, #16]
            w25qxx->sector_size = 0x1000;
 8005b6c:	f44f 5380 	mov.w	r3, #4096	@ 0x1000
 8005b70:	61a3      	str	r3, [r4, #24]
            w25qxx->sectors_in_block = 0x10;
 8005b72:	2310      	movs	r3, #16
 8005b74:	61e3      	str	r3, [r4, #28]
            w25qxx->page_size = 0x100;
 8005b76:	f44f 7180 	mov.w	r1, #256	@ 0x100
 8005b7a:	6221      	str	r1, [r4, #32]
            w25qxx->pages_in_sector = 0x10;
 8005b7c:	6263      	str	r3, [r4, #36]	@ 0x24
            switch (w25qxx->device_id) {
 8005b7e:	f246 0317 	movw	r3, #24599	@ 0x6017
 8005b82:	429a      	cmp	r2, r3
 8005b84:	d1e7      	bne.n	8005b56 <w25qxx_init+0x62>
                w25qxx->block_count = 0x80;
 8005b86:	2380      	movs	r3, #128	@ 0x80
 8005b88:	6163      	str	r3, [r4, #20]
    W25QXX_result_t result = W25QXX_Ok;
 8005b8a:	2000      	movs	r0, #0
 8005b8c:	e7e9      	b.n	8005b62 <w25qxx_init+0x6e>
            w25qxx->block_size = 0x10000;
 8005b8e:	f44f 3380 	mov.w	r3, #65536	@ 0x10000
 8005b92:	6123      	str	r3, [r4, #16]
            w25qxx->sector_size = 0x1000;
 8005b94:	f44f 5380 	mov.w	r3, #4096	@ 0x1000
 8005b98:	61a3      	str	r3, [r4, #24]
            w25qxx->sectors_in_block = 0x10;
 8005b9a:	2310      	movs	r3, #16
 8005b9c:	61e3      	str	r3, [r4, #28]
            w25qxx->page_size = 0x100;
 8005b9e:	f44f 7180 	mov.w	r1, #256	@ 0x100
 8005ba2:	6221      	str	r1, [r4, #32]
            w25qxx->pages_in_sector = 0x10;
 8005ba4:	6263      	str	r3, [r4, #36]	@ 0x24
            switch (w25qxx->device_id) {
 8005ba6:	f244 0317 	movw	r3, #16407	@ 0x4017
 8005baa:	429a      	cmp	r2, r3
 8005bac:	d010      	beq.n	8005bd0 <w25qxx_init+0xdc>
 8005bae:	f244 0318 	movw	r3, #16408	@ 0x4018
 8005bb2:	429a      	cmp	r2, r3
 8005bb4:	d007      	beq.n	8005bc6 <w25qxx_init+0xd2>
 8005bb6:	f244 0316 	movw	r3, #16406	@ 0x4016
 8005bba:	429a      	cmp	r2, r3
 8005bbc:	d1cb      	bne.n	8005b56 <w25qxx_init+0x62>
                w25qxx->block_count = 0x40;
 8005bbe:	2340      	movs	r3, #64	@ 0x40
 8005bc0:	6163      	str	r3, [r4, #20]
    W25QXX_result_t result = W25QXX_Ok;
 8005bc2:	2000      	movs	r0, #0
 8005bc4:	e7cd      	b.n	8005b62 <w25qxx_init+0x6e>
                w25qxx->block_count = 0x100;
 8005bc6:	f44f 7380 	mov.w	r3, #256	@ 0x100
 8005bca:	6163      	str	r3, [r4, #20]
    W25QXX_result_t result = W25QXX_Ok;
 8005bcc:	2000      	movs	r0, #0
 8005bce:	e7c8      	b.n	8005b62 <w25qxx_init+0x6e>
                w25qxx->block_count = 0x80;
 8005bd0:	2380      	movs	r3, #128	@ 0x80
 8005bd2:	6163      	str	r3, [r4, #20]
    W25QXX_result_t result = W25QXX_Ok;
 8005bd4:	2000      	movs	r0, #0
 8005bd6:	e7c4      	b.n	8005b62 <w25qxx_init+0x6e>
 8005bd8:	08007ce0 	.word	0x08007ce0

08005bdc <w25qxx_read>:

W25QXX_result_t w25qxx_read(W25QXX_HandleTypeDef *w25qxx, uint32_t address, uint8_t *buf, uint32_t len) {
 8005bdc:	b5f0      	push	{r4, r5, r6, r7, lr}
 8005bde:	b083      	sub	sp, #12
 8005be0:	4604      	mov	r4, r0
 8005be2:	4615      	mov	r5, r2
 8005be4:	461e      	mov	r6, r3

    W25_DBG("w25qxx_read - address: 0x%08lx, lengh: 0x%04lx", address, len);

    // Transmit buffer holding command and address
    uint8_t tx[4] = {
 8005be6:	2303      	movs	r3, #3
 8005be8:	f88d 3004 	strb.w	r3, [sp, #4]
    W25QXX_READ_DATA,
            (uint8_t) (address >> 16),
 8005bec:	f3c1 4307 	ubfx	r3, r1, #16, #8
    uint8_t tx[4] = {
 8005bf0:	f88d 3005 	strb.w	r3, [sp, #5]
            (uint8_t) (address >> 8),
 8005bf4:	f3c1 2307 	ubfx	r3, r1, #8, #8
    uint8_t tx[4] = {
 8005bf8:	f88d 3006 	strb.w	r3, [sp, #6]
 8005bfc:	f88d 1007 	strb.w	r1, [sp, #7]
            (uint8_t) (address)
    };

    // First wait for device to get ready
    if (w25qxx_wait_for_ready(w25qxx, HAL_MAX_DELAY) != W25QXX_Ok) {
 8005c00:	f04f 31ff 	mov.w	r1, #4294967295	@ 0xffffffff
 8005c04:	f7ff ff5b 	bl	8005abe <w25qxx_wait_for_ready>
 8005c08:	b118      	cbz	r0, 8005c12 <w25qxx_read+0x36>
        return W25QXX_Err;
 8005c0a:	2701      	movs	r7, #1
        }
    }
    cs_off(w25qxx);

    return W25QXX_Ok;
}
 8005c0c:	4638      	mov	r0, r7
 8005c0e:	b003      	add	sp, #12
 8005c10:	bdf0      	pop	{r4, r5, r6, r7, pc}
 8005c12:	4607      	mov	r7, r0
    HAL_GPIO_WritePin(w25qxx->cs_port, w25qxx->cs_pin, GPIO_PIN_RESET);
 8005c14:	2200      	movs	r2, #0
 8005c16:	8921      	ldrh	r1, [r4, #8]
 8005c18:	6860      	ldr	r0, [r4, #4]
 8005c1a:	f7fb f96d 	bl	8000ef8 <HAL_GPIO_WritePin>
    if (w25qxx_transmit(w25qxx, tx, 4) == W25QXX_Ok) { // size will always be fixed
 8005c1e:	2204      	movs	r2, #4
 8005c20:	eb0d 0102 	add.w	r1, sp, r2
 8005c24:	4620      	mov	r0, r4
 8005c26:	f7ff fec7 	bl	80059b8 <w25qxx_transmit>
 8005c2a:	b928      	cbnz	r0, 8005c38 <w25qxx_read+0x5c>
        if (w25qxx_receive(w25qxx, buf, len) != W25QXX_Ok) {
 8005c2c:	4632      	mov	r2, r6
 8005c2e:	4629      	mov	r1, r5
 8005c30:	4620      	mov	r0, r4
 8005c32:	f7ff fecb 	bl	80059cc <w25qxx_receive>
 8005c36:	b928      	cbnz	r0, 8005c44 <w25qxx_read+0x68>
    HAL_GPIO_WritePin(w25qxx->cs_port, w25qxx->cs_pin, GPIO_PIN_SET);
 8005c38:	2201      	movs	r2, #1
 8005c3a:	8921      	ldrh	r1, [r4, #8]
 8005c3c:	6860      	ldr	r0, [r4, #4]
 8005c3e:	f7fb f95b 	bl	8000ef8 <HAL_GPIO_WritePin>
    return W25QXX_Ok;
 8005c42:	e7e3      	b.n	8005c0c <w25qxx_read+0x30>
    HAL_GPIO_WritePin(w25qxx->cs_port, w25qxx->cs_pin, GPIO_PIN_SET);
 8005c44:	2201      	movs	r2, #1
 8005c46:	8921      	ldrh	r1, [r4, #8]
 8005c48:	6860      	ldr	r0, [r4, #4]
 8005c4a:	f7fb f955 	bl	8000ef8 <HAL_GPIO_WritePin>
            return W25QXX_Err;
 8005c4e:	2701      	movs	r7, #1
 8005c50:	e7dc      	b.n	8005c0c <w25qxx_read+0x30>

08005c52 <w25qxx_write>:

W25QXX_result_t w25qxx_write(W25QXX_HandleTypeDef *w25qxx, uint32_t address, uint8_t *buf, uint32_t len) {
 8005c52:	e92d 4ff0 	stmdb	sp!, {r4, r5, r6, r7, r8, r9, sl, fp, lr}
 8005c56:	b083      	sub	sp, #12
 8005c58:	4605      	mov	r5, r0
 8005c5a:	460e      	mov	r6, r1
 8005c5c:	4693      	mov	fp, r2
 8005c5e:	461f      	mov	r7, r3

    W25_DBG("w25qxx_write - address 0x%08lx len 0x%04lx", address, len);

    // Let's determine the pages
    uint32_t first_page = address / w25qxx->page_size;
 8005c60:	6a03      	ldr	r3, [r0, #32]
 8005c62:	fbb1 f8f3 	udiv	r8, r1, r3
    uint32_t last_page = (address + len - 1) / w25qxx->page_size;
 8005c66:	eb01 0a07 	add.w	sl, r1, r7
 8005c6a:	f10a 3aff 	add.w	sl, sl, #4294967295	@ 0xffffffff
 8005c6e:	fbba faf3 	udiv	sl, sl, r3

    W25_DBG("w25qxx_write %lu pages from %lu to %lu", 1 + last_page - first_page, first_page, last_page);

    uint32_t buffer_offset = 0;
 8005c72:	f04f 0900 	mov.w	r9, #0
    uint32_t start_address = address;

    for (uint32_t page = first_page; page <= last_page; ++page) {
 8005c76:	e009      	b.n	8005c8c <w25qxx_write+0x3a>
    HAL_GPIO_WritePin(w25qxx->cs_port, w25qxx->cs_pin, GPIO_PIN_SET);
 8005c78:	2201      	movs	r2, #1
 8005c7a:	8929      	ldrh	r1, [r5, #8]
 8005c7c:	6868      	ldr	r0, [r5, #4]
 8005c7e:	f7fb f93b 	bl	8000ef8 <HAL_GPIO_WritePin>
                    return W25QXX_Err;
                }
            }
            cs_off(w25qxx);
        }
        start_address += write_len;
 8005c82:	4426      	add	r6, r4
        buffer_offset += write_len;
 8005c84:	44a1      	add	r9, r4
        len -= write_len;
 8005c86:	1b3f      	subs	r7, r7, r4
    for (uint32_t page = first_page; page <= last_page; ++page) {
 8005c88:	f108 0801 	add.w	r8, r8, #1
 8005c8c:	45d0      	cmp	r8, sl
 8005c8e:	d83a      	bhi.n	8005d06 <w25qxx_write+0xb4>
        uint32_t write_len = w25qxx->page_size - (start_address & (w25qxx->page_size - 1));
 8005c90:	6a2c      	ldr	r4, [r5, #32]
 8005c92:	1e63      	subs	r3, r4, #1
 8005c94:	4033      	ands	r3, r6
 8005c96:	1ae4      	subs	r4, r4, r3
        write_len = len > write_len ? write_len : len;
 8005c98:	42bc      	cmp	r4, r7
 8005c9a:	bf28      	it	cs
 8005c9c:	463c      	movcs	r4, r7
        if (w25qxx_wait_for_ready(w25qxx, HAL_MAX_DELAY) != W25QXX_Ok) {
 8005c9e:	f04f 31ff 	mov.w	r1, #4294967295	@ 0xffffffff
 8005ca2:	4628      	mov	r0, r5
 8005ca4:	f7ff ff0b 	bl	8005abe <w25qxx_wait_for_ready>
 8005ca8:	bb88      	cbnz	r0, 8005d0e <w25qxx_write+0xbc>
        if (w25qxx_write_enable(w25qxx) == W25QXX_Ok) {
 8005caa:	4628      	mov	r0, r5
 8005cac:	f7ff feec 	bl	8005a88 <w25qxx_write_enable>
 8005cb0:	2800      	cmp	r0, #0
 8005cb2:	d1e6      	bne.n	8005c82 <w25qxx_write+0x30>
            uint8_t tx[4] = {
 8005cb4:	2302      	movs	r3, #2
 8005cb6:	f88d 3004 	strb.w	r3, [sp, #4]
            W25QXX_PAGE_PROGRAM, (uint8_t) (start_address >> 16), (uint8_t) (start_address >> 8), (uint8_t) (start_address), };
 8005cba:	f3c6 4307 	ubfx	r3, r6, #16, #8
            uint8_t tx[4] = {
 8005cbe:	f88d 3005 	strb.w	r3, [sp, #5]
            W25QXX_PAGE_PROGRAM, (uint8_t) (start_address >> 16), (uint8_t) (start_address >> 8), (uint8_t) (start_address), };
 8005cc2:	f3c6 2307 	ubfx	r3, r6, #8, #8
            uint8_t tx[4] = {
 8005cc6:	f88d 3006 	strb.w	r3, [sp, #6]
 8005cca:	f88d 6007 	strb.w	r6, [sp, #7]
    HAL_GPIO_WritePin(w25qxx->cs_port, w25qxx->cs_pin, GPIO_PIN_RESET);
 8005cce:	2200      	movs	r2, #0
 8005cd0:	8929      	ldrh	r1, [r5, #8]
 8005cd2:	6868      	ldr	r0, [r5, #4]
 8005cd4:	f7fb f910 	bl	8000ef8 <HAL_GPIO_WritePin>
            if (w25qxx_transmit(w25qxx, tx, 4) == W25QXX_Ok) { // size will always be fixed
 8005cd8:	2204      	movs	r2, #4
 8005cda:	eb0d 0102 	add.w	r1, sp, r2
 8005cde:	4628      	mov	r0, r5
 8005ce0:	f7ff fe6a 	bl	80059b8 <w25qxx_transmit>
 8005ce4:	2800      	cmp	r0, #0
 8005ce6:	d1c7      	bne.n	8005c78 <w25qxx_write+0x26>
                if (w25qxx_transmit(w25qxx, buf + buffer_offset, write_len) != W25QXX_Ok) {
 8005ce8:	4622      	mov	r2, r4
 8005cea:	eb0b 0109 	add.w	r1, fp, r9
 8005cee:	4628      	mov	r0, r5
 8005cf0:	f7ff fe62 	bl	80059b8 <w25qxx_transmit>
 8005cf4:	2800      	cmp	r0, #0
 8005cf6:	d0bf      	beq.n	8005c78 <w25qxx_write+0x26>
    HAL_GPIO_WritePin(w25qxx->cs_port, w25qxx->cs_pin, GPIO_PIN_SET);
 8005cf8:	2201      	movs	r2, #1
 8005cfa:	8929      	ldrh	r1, [r5, #8]
 8005cfc:	6868      	ldr	r0, [r5, #4]
 8005cfe:	f7fb f8fb 	bl	8000ef8 <HAL_GPIO_WritePin>
                    return W25QXX_Err;
 8005d02:	2001      	movs	r0, #1
 8005d04:	e000      	b.n	8005d08 <w25qxx_write+0xb6>
    }

    return W25QXX_Ok;
 8005d06:	2000      	movs	r0, #0
}
 8005d08:	b003      	add	sp, #12
 8005d0a:	e8bd 8ff0 	ldmia.w	sp!, {r4, r5, r6, r7, r8, r9, sl, fp, pc}
            return W25QXX_Err;
 8005d0e:	2001      	movs	r0, #1
 8005d10:	e7fa      	b.n	8005d08 <w25qxx_write+0xb6>

08005d12 <w25qxx_erase>:

W25QXX_result_t w25qxx_erase(W25QXX_HandleTypeDef *w25qxx, uint32_t address, uint32_t len) {
 8005d12:	b5f0      	push	{r4, r5, r6, r7, lr}
 8005d14:	b083      	sub	sp, #12
 8005d16:	4605      	mov	r5, r0
    W25_DBG("w25qxx_erase, address = 0x%08lx len = 0x%04lx", address, len);

    W25QXX_result_t ret = W25QXX_Ok;

    // Let's determine the sector start
    uint32_t first_sector = address / w25qxx->sector_size;
 8005d18:	6983      	ldr	r3, [r0, #24]
 8005d1a:	fbb1 f4f3 	udiv	r4, r1, r3
    uint32_t last_sector = (address + len - 1) / w25qxx->sector_size;
 8005d1e:	188e      	adds	r6, r1, r2
 8005d20:	3e01      	subs	r6, #1
 8005d22:	fbb6 f6f3 	udiv	r6, r6, r3
    W25QXX_result_t ret = W25QXX_Ok;
 8005d26:	2700      	movs	r7, #0

    W25_DBG("w25qxx_erase: first sector: 0x%04lx", first_sector);W25_DBG("w25qxx_erase: last sector : 0x%04lx", last_sector);

    for (uint32_t sector = first_sector; sector <= last_sector; ++sector) {
 8005d28:	e004      	b.n	8005d34 <w25qxx_erase+0x22>

        W25_DBG("Erasing sector %lu, starting at: 0x%08lx", sector, sector * w25qxx->sector_size);

        // First we have to ensure the device is not busy
        if (w25qxx_wait_for_ready(w25qxx, HAL_MAX_DELAY) == W25QXX_Ok) {
            if (w25qxx_write_enable(w25qxx) == W25QXX_Ok) {
 8005d2a:	4628      	mov	r0, r5
 8005d2c:	f7ff feac 	bl	8005a88 <w25qxx_write_enable>
 8005d30:	b158      	cbz	r0, 8005d4a <w25qxx_erase+0x38>
    for (uint32_t sector = first_sector; sector <= last_sector; ++sector) {
 8005d32:	3401      	adds	r4, #1
 8005d34:	42b4      	cmp	r4, r6
 8005d36:	d82b      	bhi.n	8005d90 <w25qxx_erase+0x7e>
        if (w25qxx_wait_for_ready(w25qxx, HAL_MAX_DELAY) == W25QXX_Ok) {
 8005d38:	f04f 31ff 	mov.w	r1, #4294967295	@ 0xffffffff
 8005d3c:	4628      	mov	r0, r5
 8005d3e:	f7ff febe 	bl	8005abe <w25qxx_wait_for_ready>
 8005d42:	2800      	cmp	r0, #0
 8005d44:	d0f1      	beq.n	8005d2a <w25qxx_erase+0x18>
                    ret = W25QXX_Err;
                }
                cs_off(w25qxx);
            }
        } else {
            ret = W25QXX_Timeout;
 8005d46:	2702      	movs	r7, #2
 8005d48:	e7f3      	b.n	8005d32 <w25qxx_erase+0x20>
                uint32_t sector_start_address = sector * w25qxx->sector_size;
 8005d4a:	69ab      	ldr	r3, [r5, #24]
 8005d4c:	fb04 f303 	mul.w	r3, r4, r3
                uint8_t tx[4] = {
 8005d50:	2220      	movs	r2, #32
 8005d52:	f88d 2004 	strb.w	r2, [sp, #4]
                W25QXX_SECTOR_ERASE, (uint8_t) (sector_start_address >> 16), (uint8_t) (sector_start_address >> 8), (uint8_t) (sector_start_address), };
 8005d56:	f3c3 4207 	ubfx	r2, r3, #16, #8
                uint8_t tx[4] = {
 8005d5a:	f88d 2005 	strb.w	r2, [sp, #5]
                W25QXX_SECTOR_ERASE, (uint8_t) (sector_start_address >> 16), (uint8_t) (sector_start_address >> 8), (uint8_t) (sector_start_address), };
 8005d5e:	f3c3 2207 	ubfx	r2, r3, #8, #8
                uint8_t tx[4] = {
 8005d62:	f88d 2006 	strb.w	r2, [sp, #6]
 8005d66:	f88d 3007 	strb.w	r3, [sp, #7]
    HAL_GPIO_WritePin(w25qxx->cs_port, w25qxx->cs_pin, GPIO_PIN_RESET);
 8005d6a:	2200      	movs	r2, #0
 8005d6c:	8929      	ldrh	r1, [r5, #8]
 8005d6e:	6868      	ldr	r0, [r5, #4]
 8005d70:	f7fb f8c2 	bl	8000ef8 <HAL_GPIO_WritePin>
                if (w25qxx_transmit(w25qxx, tx, 4) != W25QXX_Ok) {
 8005d74:	2204      	movs	r2, #4
 8005d76:	eb0d 0102 	add.w	r1, sp, r2
 8005d7a:	4628      	mov	r0, r5
 8005d7c:	f7ff fe1c 	bl	80059b8 <w25qxx_transmit>
 8005d80:	b100      	cbz	r0, 8005d84 <w25qxx_erase+0x72>
                    ret = W25QXX_Err;
 8005d82:	2701      	movs	r7, #1
    HAL_GPIO_WritePin(w25qxx->cs_port, w25qxx->cs_pin, GPIO_PIN_SET);
 8005d84:	2201      	movs	r2, #1
 8005d86:	8929      	ldrh	r1, [r5, #8]
 8005d88:	6868      	ldr	r0, [r5, #4]
 8005d8a:	f7fb f8b5 	bl	8000ef8 <HAL_GPIO_WritePin>
 8005d8e:	e7d0      	b.n	8005d32 <w25qxx_erase+0x20>
        }

    }

    return ret;
}
 8005d90:	4638      	mov	r0, r7
 8005d92:	b003      	add	sp, #12
 8005d94:	bdf0      	pop	{r4, r5, r6, r7, pc}
	...

08005d98 <littlefs_sync>:
	LFS_DBG("LittleFS Erase b = 0x%04lx", block);
	if (w25qxx_erase(w25qxx_handle, block * w25qxx_handle->sector_size, w25qxx_handle->sector_size) != W25QXX_Ok) return -1;
	return 0;
}

int littlefs_sync(const struct lfs_config *c) {
 8005d98:	b508      	push	{r3, lr}
	LFS_DBG("LittleFS Sync");
 8005d9a:	4802      	ldr	r0, [pc, #8]	@ (8005da4 <littlefs_sync+0xc>)
 8005d9c:	f000 fa2c 	bl	80061f8 <iprintf>
	return 0;
}
 8005da0:	2000      	movs	r0, #0
 8005da2:	bd08      	pop	{r3, pc}
 8005da4:	08007cf4 	.word	0x08007cf4

08005da8 <littlefs_read>:
int littlefs_read(const struct lfs_config *c, lfs_block_t block, lfs_off_t off, void *buffer, lfs_size_t size) {
 8005da8:	b5f8      	push	{r3, r4, r5, r6, r7, lr}
 8005daa:	460d      	mov	r5, r1
 8005dac:	4614      	mov	r4, r2
 8005dae:	461e      	mov	r6, r3
 8005db0:	9f06      	ldr	r7, [sp, #24]
	LFS_DBG("LittleFS Read b = 0x%04lx o = 0x%04lx s = 0x%04lx", block, off, size);
 8005db2:	463b      	mov	r3, r7
 8005db4:	4808      	ldr	r0, [pc, #32]	@ (8005dd8 <littlefs_read+0x30>)
 8005db6:	f000 fa1f 	bl	80061f8 <iprintf>
	if (w25qxx_read(w25qxx_handle, block * w25qxx_handle->sector_size + off, buffer, size) != W25QXX_Ok) return -1;
 8005dba:	4b08      	ldr	r3, [pc, #32]	@ (8005ddc <littlefs_read+0x34>)
 8005dbc:	6818      	ldr	r0, [r3, #0]
 8005dbe:	6981      	ldr	r1, [r0, #24]
 8005dc0:	463b      	mov	r3, r7
 8005dc2:	4632      	mov	r2, r6
 8005dc4:	fb05 4101 	mla	r1, r5, r1, r4
 8005dc8:	f7ff ff08 	bl	8005bdc <w25qxx_read>
 8005dcc:	b900      	cbnz	r0, 8005dd0 <littlefs_read+0x28>
}
 8005dce:	bdf8      	pop	{r3, r4, r5, r6, r7, pc}
	if (w25qxx_read(w25qxx_handle, block * w25qxx_handle->sector_size + off, buffer, size) != W25QXX_Ok) return -1;
 8005dd0:	f04f 30ff 	mov.w	r0, #4294967295	@ 0xffffffff
 8005dd4:	e7fb      	b.n	8005dce <littlefs_read+0x26>
 8005dd6:	bf00      	nop
 8005dd8:	08007d04 	.word	0x08007d04
 8005ddc:	200001b0 	.word	0x200001b0

08005de0 <littlefs_prog>:
int littlefs_prog(const struct lfs_config *c, lfs_block_t block, lfs_off_t off, const void *buffer, lfs_size_t size) {
 8005de0:	b5f8      	push	{r3, r4, r5, r6, r7, lr}
 8005de2:	460d      	mov	r5, r1
 8005de4:	4614      	mov	r4, r2
 8005de6:	461e      	mov	r6, r3
 8005de8:	9f06      	ldr	r7, [sp, #24]
	LFS_DBG("LittleFS Prog b = 0x%04lx o = 0x%04lx s = 0x%04lx", block, off, size);
 8005dea:	463b      	mov	r3, r7
 8005dec:	4808      	ldr	r0, [pc, #32]	@ (8005e10 <littlefs_prog+0x30>)
 8005dee:	f000 fa03 	bl	80061f8 <iprintf>
	if (w25qxx_write(w25qxx_handle, block * w25qxx_handle->sector_size + off, (void *)buffer, size) != W25QXX_Ok) return -1;
 8005df2:	4b08      	ldr	r3, [pc, #32]	@ (8005e14 <littlefs_prog+0x34>)
 8005df4:	6818      	ldr	r0, [r3, #0]
 8005df6:	6981      	ldr	r1, [r0, #24]
 8005df8:	463b      	mov	r3, r7
 8005dfa:	4632      	mov	r2, r6
 8005dfc:	fb05 4101 	mla	r1, r5, r1, r4
 8005e00:	f7ff ff27 	bl	8005c52 <w25qxx_write>
 8005e04:	b900      	cbnz	r0, 8005e08 <littlefs_prog+0x28>
}
 8005e06:	bdf8      	pop	{r3, r4, r5, r6, r7, pc}
	if (w25qxx_write(w25qxx_handle, block * w25qxx_handle->sector_size + off, (void *)buffer, size) != W25QXX_Ok) return -1;
 8005e08:	f04f 30ff 	mov.w	r0, #4294967295	@ 0xffffffff
 8005e0c:	e7fb      	b.n	8005e06 <littlefs_prog+0x26>
 8005e0e:	bf00      	nop
 8005e10:	08007d38 	.word	0x08007d38
 8005e14:	200001b0 	.word	0x200001b0

08005e18 <littlefs_erase>:
int littlefs_erase(const struct lfs_config *c, lfs_block_t block) {
 8005e18:	b510      	push	{r4, lr}
 8005e1a:	460c      	mov	r4, r1
	LFS_DBG("LittleFS Erase b = 0x%04lx", block);
 8005e1c:	4807      	ldr	r0, [pc, #28]	@ (8005e3c <littlefs_erase+0x24>)
 8005e1e:	f000 f9eb 	bl	80061f8 <iprintf>
	if (w25qxx_erase(w25qxx_handle, block * w25qxx_handle->sector_size, w25qxx_handle->sector_size) != W25QXX_Ok) return -1;
 8005e22:	4b07      	ldr	r3, [pc, #28]	@ (8005e40 <littlefs_erase+0x28>)
 8005e24:	6818      	ldr	r0, [r3, #0]
 8005e26:	6982      	ldr	r2, [r0, #24]
 8005e28:	fb04 f102 	mul.w	r1, r4, r2
 8005e2c:	f7ff ff71 	bl	8005d12 <w25qxx_erase>
 8005e30:	b900      	cbnz	r0, 8005e34 <littlefs_erase+0x1c>
}
 8005e32:	bd10      	pop	{r4, pc}
	if (w25qxx_erase(w25qxx_handle, block * w25qxx_handle->sector_size, w25qxx_handle->sector_size) != W25QXX_Ok) return -1;
 8005e34:	f04f 30ff 	mov.w	r0, #4294967295	@ 0xffffffff
 8005e38:	e7fb      	b.n	8005e32 <littlefs_erase+0x1a>
 8005e3a:	bf00      	nop
 8005e3c:	08007d6c 	.word	0x08007d6c
 8005e40:	200001b0 	.word	0x200001b0

08005e44 <w25qxx_littlefs_init>:
int w25qxx_littlefs_init(W25QXX_HandleTypeDef *w25qxx_init) {
 8005e44:	b538      	push	{r3, r4, r5, lr}
 8005e46:	4604      	mov	r4, r0
	LFS_DBG("LittleFS Init");
 8005e48:	480e      	ldr	r0, [pc, #56]	@ (8005e84 <w25qxx_littlefs_init+0x40>)
 8005e4a:	f000 f9d5 	bl	80061f8 <iprintf>
	w25qxx_handle = w25qxx_init;
 8005e4e:	4b0e      	ldr	r3, [pc, #56]	@ (8005e88 <w25qxx_littlefs_init+0x44>)
 8005e50:	601c      	str	r4, [r3, #0]
	littlefs_config.block_size = w25qxx_handle->sector_size;
 8005e52:	69a3      	ldr	r3, [r4, #24]
 8005e54:	490d      	ldr	r1, [pc, #52]	@ (8005e8c <w25qxx_littlefs_init+0x48>)
 8005e56:	61cb      	str	r3, [r1, #28]
	littlefs_config.block_count = w25qxx_handle->sectors_in_block * w25qxx_handle->block_count;
 8005e58:	69e3      	ldr	r3, [r4, #28]
 8005e5a:	6962      	ldr	r2, [r4, #20]
 8005e5c:	fb02 f303 	mul.w	r3, r2, r3
 8005e60:	620b      	str	r3, [r1, #32]
	int err = lfs_mount(&littlefs, &littlefs_config);
 8005e62:	480b      	ldr	r0, [pc, #44]	@ (8005e90 <w25qxx_littlefs_init+0x4c>)
 8005e64:	f7ff fd84 	bl	8005970 <lfs_mount>
    if (err) {
 8005e68:	b908      	cbnz	r0, 8005e6e <w25qxx_littlefs_init+0x2a>
}
 8005e6a:	2000      	movs	r0, #0
 8005e6c:	bd38      	pop	{r3, r4, r5, pc}
        lfs_format(&littlefs, &littlefs_config);
 8005e6e:	4d07      	ldr	r5, [pc, #28]	@ (8005e8c <w25qxx_littlefs_init+0x48>)
 8005e70:	4c07      	ldr	r4, [pc, #28]	@ (8005e90 <w25qxx_littlefs_init+0x4c>)
 8005e72:	4629      	mov	r1, r5
 8005e74:	4620      	mov	r0, r4
 8005e76:	f7ff fd77 	bl	8005968 <lfs_format>
        lfs_mount(&littlefs, &littlefs_config);
 8005e7a:	4629      	mov	r1, r5
 8005e7c:	4620      	mov	r0, r4
 8005e7e:	f7ff fd77 	bl	8005970 <lfs_mount>
 8005e82:	e7f2      	b.n	8005e6a <w25qxx_littlefs_init+0x26>
 8005e84:	08007d88 	.word	0x08007d88
 8005e88:	200001b0 	.word	0x200001b0
 8005e8c:	2000000c 	.word	0x2000000c
 8005e90:	200001b4 	.word	0x200001b4

08005e94 <__assert_func>:
 8005e94:	b51f      	push	{r0, r1, r2, r3, r4, lr}
 8005e96:	4614      	mov	r4, r2
 8005e98:	461a      	mov	r2, r3
 8005e9a:	4b09      	ldr	r3, [pc, #36]	@ (8005ec0 <__assert_func+0x2c>)
 8005e9c:	681b      	ldr	r3, [r3, #0]
 8005e9e:	4605      	mov	r5, r0
 8005ea0:	68d8      	ldr	r0, [r3, #12]
 8005ea2:	b14c      	cbz	r4, 8005eb8 <__assert_func+0x24>
 8005ea4:	4b07      	ldr	r3, [pc, #28]	@ (8005ec4 <__assert_func+0x30>)
 8005ea6:	9100      	str	r1, [sp, #0]
 8005ea8:	e9cd 3401 	strd	r3, r4, [sp, #4]
 8005eac:	4906      	ldr	r1, [pc, #24]	@ (8005ec8 <__assert_func+0x34>)
 8005eae:	462b      	mov	r3, r5
 8005eb0:	f000 f972 	bl	8006198 <fiprintf>
 8005eb4:	f000 fb8f 	bl	80065d6 <abort>
 8005eb8:	4b04      	ldr	r3, [pc, #16]	@ (8005ecc <__assert_func+0x38>)
 8005eba:	461c      	mov	r4, r3
 8005ebc:	e7f3      	b.n	8005ea6 <__assert_func+0x12>
 8005ebe:	bf00      	nop
 8005ec0:	2000006c 	.word	0x2000006c
 8005ec4:	08007ee0 	.word	0x08007ee0
 8005ec8:	08007eed 	.word	0x08007eed
 8005ecc:	08007f1b 	.word	0x08007f1b

08005ed0 <malloc>:
 8005ed0:	4b02      	ldr	r3, [pc, #8]	@ (8005edc <malloc+0xc>)
 8005ed2:	4601      	mov	r1, r0
 8005ed4:	6818      	ldr	r0, [r3, #0]
 8005ed6:	f000 b82d 	b.w	8005f34 <_malloc_r>
 8005eda:	bf00      	nop
 8005edc:	2000006c 	.word	0x2000006c

08005ee0 <free>:
 8005ee0:	4b02      	ldr	r3, [pc, #8]	@ (8005eec <free+0xc>)
 8005ee2:	4601      	mov	r1, r0
 8005ee4:	6818      	ldr	r0, [r3, #0]
 8005ee6:	f000 bb7d 	b.w	80065e4 <_free_r>
 8005eea:	bf00      	nop
 8005eec:	2000006c 	.word	0x2000006c

08005ef0 <sbrk_aligned>:
 8005ef0:	b570      	push	{r4, r5, r6, lr}
 8005ef2:	4e0f      	ldr	r6, [pc, #60]	@ (8005f30 <sbrk_aligned+0x40>)
 8005ef4:	460c      	mov	r4, r1
 8005ef6:	6831      	ldr	r1, [r6, #0]
 8005ef8:	4605      	mov	r5, r0
 8005efa:	b911      	cbnz	r1, 8005f02 <sbrk_aligned+0x12>
 8005efc:	f000 fb0e 	bl	800651c <_sbrk_r>
 8005f00:	6030      	str	r0, [r6, #0]
 8005f02:	4621      	mov	r1, r4
 8005f04:	4628      	mov	r0, r5
 8005f06:	f000 fb09 	bl	800651c <_sbrk_r>
 8005f0a:	1c43      	adds	r3, r0, #1
 8005f0c:	d103      	bne.n	8005f16 <sbrk_aligned+0x26>
 8005f0e:	f04f 34ff 	mov.w	r4, #4294967295	@ 0xffffffff
 8005f12:	4620      	mov	r0, r4
 8005f14:	bd70      	pop	{r4, r5, r6, pc}
 8005f16:	1cc4      	adds	r4, r0, #3
 8005f18:	f024 0403 	bic.w	r4, r4, #3
 8005f1c:	42a0      	cmp	r0, r4
 8005f1e:	d0f8      	beq.n	8005f12 <sbrk_aligned+0x22>
 8005f20:	1a21      	subs	r1, r4, r0
 8005f22:	4628      	mov	r0, r5
 8005f24:	f000 fafa 	bl	800651c <_sbrk_r>
 8005f28:	3001      	adds	r0, #1
 8005f2a:	d1f2      	bne.n	8005f12 <sbrk_aligned+0x22>
 8005f2c:	e7ef      	b.n	8005f0e <sbrk_aligned+0x1e>
 8005f2e:	bf00      	nop
 8005f30:	20000234 	.word	0x20000234

08005f34 <_malloc_r>:
 8005f34:	e92d 43f8 	stmdb	sp!, {r3, r4, r5, r6, r7, r8, r9, lr}
 8005f38:	1ccd      	adds	r5, r1, #3
 8005f3a:	f025 0503 	bic.w	r5, r5, #3
 8005f3e:	3508      	adds	r5, #8
 8005f40:	2d0c      	cmp	r5, #12
 8005f42:	bf38      	it	cc
 8005f44:	250c      	movcc	r5, #12
 8005f46:	2d00      	cmp	r5, #0
 8005f48:	4606      	mov	r6, r0
 8005f4a:	db01      	blt.n	8005f50 <_malloc_r+0x1c>
 8005f4c:	42a9      	cmp	r1, r5
 8005f4e:	d904      	bls.n	8005f5a <_malloc_r+0x26>
 8005f50:	230c      	movs	r3, #12
 8005f52:	6033      	str	r3, [r6, #0]
 8005f54:	2000      	movs	r0, #0
 8005f56:	e8bd 83f8 	ldmia.w	sp!, {r3, r4, r5, r6, r7, r8, r9, pc}
 8005f5a:	f8df 80d4 	ldr.w	r8, [pc, #212]	@ 8006030 <_malloc_r+0xfc>
 8005f5e:	f000 f869 	bl	8006034 <__malloc_lock>
 8005f62:	f8d8 3000 	ldr.w	r3, [r8]
 8005f66:	461c      	mov	r4, r3
 8005f68:	bb44      	cbnz	r4, 8005fbc <_malloc_r+0x88>
 8005f6a:	4629      	mov	r1, r5
 8005f6c:	4630      	mov	r0, r6
 8005f6e:	f7ff ffbf 	bl	8005ef0 <sbrk_aligned>
 8005f72:	1c43      	adds	r3, r0, #1
 8005f74:	4604      	mov	r4, r0
 8005f76:	d158      	bne.n	800602a <_malloc_r+0xf6>
 8005f78:	f8d8 4000 	ldr.w	r4, [r8]
 8005f7c:	4627      	mov	r7, r4
 8005f7e:	2f00      	cmp	r7, #0
 8005f80:	d143      	bne.n	800600a <_malloc_r+0xd6>
 8005f82:	2c00      	cmp	r4, #0
 8005f84:	d04b      	beq.n	800601e <_malloc_r+0xea>
 8005f86:	6823      	ldr	r3, [r4, #0]
 8005f88:	4639      	mov	r1, r7
 8005f8a:	4630      	mov	r0, r6
 8005f8c:	eb04 0903 	add.w	r9, r4, r3
 8005f90:	f000 fac4 	bl	800651c <_sbrk_r>
 8005f94:	4581      	cmp	r9, r0
 8005f96:	d142      	bne.n	800601e <_malloc_r+0xea>
 8005f98:	6821      	ldr	r1, [r4, #0]
 8005f9a:	1a6d      	subs	r5, r5, r1
 8005f9c:	4629      	mov	r1, r5
 8005f9e:	4630      	mov	r0, r6
 8005fa0:	f7ff ffa6 	bl	8005ef0 <sbrk_aligned>
 8005fa4:	3001      	adds	r0, #1
 8005fa6:	d03a      	beq.n	800601e <_malloc_r+0xea>
 8005fa8:	6823      	ldr	r3, [r4, #0]
 8005faa:	442b      	add	r3, r5
 8005fac:	6023      	str	r3, [r4, #0]
 8005fae:	f8d8 3000 	ldr.w	r3, [r8]
 8005fb2:	685a      	ldr	r2, [r3, #4]
 8005fb4:	bb62      	cbnz	r2, 8006010 <_malloc_r+0xdc>
 8005fb6:	f8c8 7000 	str.w	r7, [r8]
 8005fba:	e00f      	b.n	8005fdc <_malloc_r+0xa8>
 8005fbc:	6822      	ldr	r2, [r4, #0]
 8005fbe:	1b52      	subs	r2, r2, r5
 8005fc0:	d420      	bmi.n	8006004 <_malloc_r+0xd0>
 8005fc2:	2a0b      	cmp	r2, #11
 8005fc4:	d917      	bls.n	8005ff6 <_malloc_r+0xc2>
 8005fc6:	1961      	adds	r1, r4, r5
 8005fc8:	42a3      	cmp	r3, r4
 8005fca:	6025      	str	r5, [r4, #0]
 8005fcc:	bf18      	it	ne
 8005fce:	6059      	strne	r1, [r3, #4]
 8005fd0:	6863      	ldr	r3, [r4, #4]
 8005fd2:	bf08      	it	eq
 8005fd4:	f8c8 1000 	streq.w	r1, [r8]
 8005fd8:	5162      	str	r2, [r4, r5]
 8005fda:	604b      	str	r3, [r1, #4]
 8005fdc:	4630      	mov	r0, r6
 8005fde:	f000 f82f 	bl	8006040 <__malloc_unlock>
 8005fe2:	f104 000b 	add.w	r0, r4, #11
 8005fe6:	1d23      	adds	r3, r4, #4
 8005fe8:	f020 0007 	bic.w	r0, r0, #7
 8005fec:	1ac2      	subs	r2, r0, r3
 8005fee:	bf1c      	itt	ne
 8005ff0:	1a1b      	subne	r3, r3, r0
 8005ff2:	50a3      	strne	r3, [r4, r2]
 8005ff4:	e7af      	b.n	8005f56 <_malloc_r+0x22>
 8005ff6:	6862      	ldr	r2, [r4, #4]
 8005ff8:	42a3      	cmp	r3, r4
 8005ffa:	bf0c      	ite	eq
 8005ffc:	f8c8 2000 	streq.w	r2, [r8]
 8006000:	605a      	strne	r2, [r3, #4]
 8006002:	e7eb      	b.n	8005fdc <_malloc_r+0xa8>
 8006004:	4623      	mov	r3, r4
 8006006:	6864      	ldr	r4, [r4, #4]
 8006008:	e7ae      	b.n	8005f68 <_malloc_r+0x34>
 800600a:	463c      	mov	r4, r7
 800600c:	687f      	ldr	r7, [r7, #4]
 800600e:	e7b6      	b.n	8005f7e <_malloc_r+0x4a>
 8006010:	461a      	mov	r2, r3
 8006012:	685b      	ldr	r3, [r3, #4]
 8006014:	42a3      	cmp	r3, r4
 8006016:	d1fb      	bne.n	8006010 <_malloc_r+0xdc>
 8006018:	2300      	movs	r3, #0
 800601a:	6053      	str	r3, [r2, #4]
 800601c:	e7de      	b.n	8005fdc <_malloc_r+0xa8>
 800601e:	230c      	movs	r3, #12
 8006020:	6033      	str	r3, [r6, #0]
 8006022:	4630      	mov	r0, r6
 8006024:	f000 f80c 	bl	8006040 <__malloc_unlock>
 8006028:	e794      	b.n	8005f54 <_malloc_r+0x20>
 800602a:	6005      	str	r5, [r0, #0]
 800602c:	e7d6      	b.n	8005fdc <_malloc_r+0xa8>
 800602e:	bf00      	nop
 8006030:	20000238 	.word	0x20000238

08006034 <__malloc_lock>:
 8006034:	4801      	ldr	r0, [pc, #4]	@ (800603c <__malloc_lock+0x8>)
 8006036:	f000 babe 	b.w	80065b6 <__retarget_lock_acquire_recursive>
 800603a:	bf00      	nop
 800603c:	2000037c 	.word	0x2000037c

08006040 <__malloc_unlock>:
 8006040:	4801      	ldr	r0, [pc, #4]	@ (8006048 <__malloc_unlock+0x8>)
 8006042:	f000 bab9 	b.w	80065b8 <__retarget_lock_release_recursive>
 8006046:	bf00      	nop
 8006048:	2000037c 	.word	0x2000037c

0800604c <std>:
 800604c:	2300      	movs	r3, #0
 800604e:	b510      	push	{r4, lr}
 8006050:	4604      	mov	r4, r0
 8006052:	e9c0 3300 	strd	r3, r3, [r0]
 8006056:	e9c0 3304 	strd	r3, r3, [r0, #16]
 800605a:	6083      	str	r3, [r0, #8]
 800605c:	8181      	strh	r1, [r0, #12]
 800605e:	6643      	str	r3, [r0, #100]	@ 0x64
 8006060:	81c2      	strh	r2, [r0, #14]
 8006062:	6183      	str	r3, [r0, #24]
 8006064:	4619      	mov	r1, r3
 8006066:	2208      	movs	r2, #8
 8006068:	305c      	adds	r0, #92	@ 0x5c
 800606a:	f000 fa1b 	bl	80064a4 <memset>
 800606e:	4b0d      	ldr	r3, [pc, #52]	@ (80060a4 <std+0x58>)
 8006070:	6263      	str	r3, [r4, #36]	@ 0x24
 8006072:	4b0d      	ldr	r3, [pc, #52]	@ (80060a8 <std+0x5c>)
 8006074:	62a3      	str	r3, [r4, #40]	@ 0x28
 8006076:	4b0d      	ldr	r3, [pc, #52]	@ (80060ac <std+0x60>)
 8006078:	62e3      	str	r3, [r4, #44]	@ 0x2c
 800607a:	4b0d      	ldr	r3, [pc, #52]	@ (80060b0 <std+0x64>)
 800607c:	6323      	str	r3, [r4, #48]	@ 0x30
 800607e:	4b0d      	ldr	r3, [pc, #52]	@ (80060b4 <std+0x68>)
 8006080:	6224      	str	r4, [r4, #32]
 8006082:	429c      	cmp	r4, r3
 8006084:	d006      	beq.n	8006094 <std+0x48>
 8006086:	f103 0268 	add.w	r2, r3, #104	@ 0x68
 800608a:	4294      	cmp	r4, r2
 800608c:	d002      	beq.n	8006094 <std+0x48>
 800608e:	33d0      	adds	r3, #208	@ 0xd0
 8006090:	429c      	cmp	r4, r3
 8006092:	d105      	bne.n	80060a0 <std+0x54>
 8006094:	f104 0058 	add.w	r0, r4, #88	@ 0x58
 8006098:	e8bd 4010 	ldmia.w	sp!, {r4, lr}
 800609c:	f000 ba8a 	b.w	80065b4 <__retarget_lock_init_recursive>
 80060a0:	bd10      	pop	{r4, pc}
 80060a2:	bf00      	nop
 80060a4:	080062d9 	.word	0x080062d9
 80060a8:	080062fb 	.word	0x080062fb
 80060ac:	08006333 	.word	0x08006333
 80060b0:	08006359 	.word	0x08006359
 80060b4:	2000023c 	.word	0x2000023c

080060b8 <stdio_exit_handler>:
 80060b8:	4a02      	ldr	r2, [pc, #8]	@ (80060c4 <stdio_exit_handler+0xc>)
 80060ba:	4903      	ldr	r1, [pc, #12]	@ (80060c8 <stdio_exit_handler+0x10>)
 80060bc:	4803      	ldr	r0, [pc, #12]	@ (80060cc <stdio_exit_handler+0x14>)
 80060be:	f000 b87d 	b.w	80061bc <_fwalk_sglue>
 80060c2:	bf00      	nop
 80060c4:	20000060 	.word	0x20000060
 80060c8:	08006d21 	.word	0x08006d21
 80060cc:	20000070 	.word	0x20000070

080060d0 <cleanup_stdio>:
 80060d0:	6841      	ldr	r1, [r0, #4]
 80060d2:	4b0c      	ldr	r3, [pc, #48]	@ (8006104 <cleanup_stdio+0x34>)
 80060d4:	4299      	cmp	r1, r3
 80060d6:	b510      	push	{r4, lr}
 80060d8:	4604      	mov	r4, r0
 80060da:	d001      	beq.n	80060e0 <cleanup_stdio+0x10>
 80060dc:	f000 fe20 	bl	8006d20 <_fflush_r>
 80060e0:	68a1      	ldr	r1, [r4, #8]
 80060e2:	4b09      	ldr	r3, [pc, #36]	@ (8006108 <cleanup_stdio+0x38>)
 80060e4:	4299      	cmp	r1, r3
 80060e6:	d002      	beq.n	80060ee <cleanup_stdio+0x1e>
 80060e8:	4620      	mov	r0, r4
 80060ea:	f000 fe19 	bl	8006d20 <_fflush_r>
 80060ee:	68e1      	ldr	r1, [r4, #12]
 80060f0:	4b06      	ldr	r3, [pc, #24]	@ (800610c <cleanup_stdio+0x3c>)
 80060f2:	4299      	cmp	r1, r3
 80060f4:	d004      	beq.n	8006100 <cleanup_stdio+0x30>
 80060f6:	4620      	mov	r0, r4
 80060f8:	e8bd 4010 	ldmia.w	sp!, {r4, lr}
 80060fc:	f000 be10 	b.w	8006d20 <_fflush_r>
 8006100:	bd10      	pop	{r4, pc}
 8006102:	bf00      	nop
 8006104:	2000023c 	.word	0x2000023c
 8006108:	200002a4 	.word	0x200002a4
 800610c:	2000030c 	.word	0x2000030c

08006110 <global_stdio_init.part.0>:
 8006110:	4b0c      	ldr	r3, [pc, #48]	@ (8006144 <global_stdio_init.part.0+0x34>)
 8006112:	4a0d      	ldr	r2, [pc, #52]	@ (8006148 <global_stdio_init.part.0+0x38>)
 8006114:	480d      	ldr	r0, [pc, #52]	@ (800614c <global_stdio_init.part.0+0x3c>)
 8006116:	b510      	push	{r4, lr}
 8006118:	2104      	movs	r1, #4
 800611a:	601a      	str	r2, [r3, #0]
 800611c:	2200      	movs	r2, #0
 800611e:	f7ff ff95 	bl	800604c <std>
 8006122:	4b0a      	ldr	r3, [pc, #40]	@ (800614c <global_stdio_init.part.0+0x3c>)
 8006124:	2201      	movs	r2, #1
 8006126:	461c      	mov	r4, r3
 8006128:	2109      	movs	r1, #9
 800612a:	f103 0068 	add.w	r0, r3, #104	@ 0x68
 800612e:	f7ff ff8d 	bl	800604c <std>
 8006132:	f104 00d0 	add.w	r0, r4, #208	@ 0xd0
 8006136:	2202      	movs	r2, #2
 8006138:	e8bd 4010 	ldmia.w	sp!, {r4, lr}
 800613c:	2112      	movs	r1, #18
 800613e:	f7ff bf85 	b.w	800604c <std>
 8006142:	bf00      	nop
 8006144:	20000374 	.word	0x20000374
 8006148:	080060b9 	.word	0x080060b9
 800614c:	2000023c 	.word	0x2000023c

08006150 <__sfp_lock_acquire>:
 8006150:	4801      	ldr	r0, [pc, #4]	@ (8006158 <__sfp_lock_acquire+0x8>)
 8006152:	f000 ba30 	b.w	80065b6 <__retarget_lock_acquire_recursive>
 8006156:	bf00      	nop
 8006158:	2000037d 	.word	0x2000037d

0800615c <__sfp_lock_release>:
 800615c:	4801      	ldr	r0, [pc, #4]	@ (8006164 <__sfp_lock_release+0x8>)
 800615e:	f000 ba2b 	b.w	80065b8 <__retarget_lock_release_recursive>
 8006162:	bf00      	nop
 8006164:	2000037d 	.word	0x2000037d

08006168 <__sinit>:
 8006168:	b510      	push	{r4, lr}
 800616a:	4604      	mov	r4, r0
 800616c:	f7ff fff0 	bl	8006150 <__sfp_lock_acquire>
 8006170:	6a23      	ldr	r3, [r4, #32]
 8006172:	b11b      	cbz	r3, 800617c <__sinit+0x14>
 8006174:	e8bd 4010 	ldmia.w	sp!, {r4, lr}
 8006178:	f7ff bff0 	b.w	800615c <__sfp_lock_release>
 800617c:	4b04      	ldr	r3, [pc, #16]	@ (8006190 <__sinit+0x28>)
 800617e:	6223      	str	r3, [r4, #32]
 8006180:	4b04      	ldr	r3, [pc, #16]	@ (8006194 <__sinit+0x2c>)
 8006182:	681b      	ldr	r3, [r3, #0]
 8006184:	2b00      	cmp	r3, #0
 8006186:	d1f5      	bne.n	8006174 <__sinit+0xc>
 8006188:	f7ff ffc2 	bl	8006110 <global_stdio_init.part.0>
 800618c:	e7f2      	b.n	8006174 <__sinit+0xc>
 800618e:	bf00      	nop
 8006190:	080060d1 	.word	0x080060d1
 8006194:	20000374 	.word	0x20000374

08006198 <fiprintf>:
 8006198:	b40e      	push	{r1, r2, r3}
 800619a:	b503      	push	{r0, r1, lr}
 800619c:	4601      	mov	r1, r0
 800619e:	ab03      	add	r3, sp, #12
 80061a0:	4805      	ldr	r0, [pc, #20]	@ (80061b8 <fiprintf+0x20>)
 80061a2:	f853 2b04 	ldr.w	r2, [r3], #4
 80061a6:	6800      	ldr	r0, [r0, #0]
 80061a8:	9301      	str	r3, [sp, #4]
 80061aa:	f000 fa8f 	bl	80066cc <_vfiprintf_r>
 80061ae:	b002      	add	sp, #8
 80061b0:	f85d eb04 	ldr.w	lr, [sp], #4
 80061b4:	b003      	add	sp, #12
 80061b6:	4770      	bx	lr
 80061b8:	2000006c 	.word	0x2000006c

080061bc <_fwalk_sglue>:
 80061bc:	e92d 43f8 	stmdb	sp!, {r3, r4, r5, r6, r7, r8, r9, lr}
 80061c0:	4607      	mov	r7, r0
 80061c2:	4688      	mov	r8, r1
 80061c4:	4614      	mov	r4, r2
 80061c6:	2600      	movs	r6, #0
 80061c8:	e9d4 9501 	ldrd	r9, r5, [r4, #4]
 80061cc:	f1b9 0901 	subs.w	r9, r9, #1
 80061d0:	d505      	bpl.n	80061de <_fwalk_sglue+0x22>
 80061d2:	6824      	ldr	r4, [r4, #0]
 80061d4:	2c00      	cmp	r4, #0
 80061d6:	d1f7      	bne.n	80061c8 <_fwalk_sglue+0xc>
 80061d8:	4630      	mov	r0, r6
 80061da:	e8bd 83f8 	ldmia.w	sp!, {r3, r4, r5, r6, r7, r8, r9, pc}
 80061de:	89ab      	ldrh	r3, [r5, #12]
 80061e0:	2b01      	cmp	r3, #1
 80061e2:	d907      	bls.n	80061f4 <_fwalk_sglue+0x38>
 80061e4:	f9b5 300e 	ldrsh.w	r3, [r5, #14]
 80061e8:	3301      	adds	r3, #1
 80061ea:	d003      	beq.n	80061f4 <_fwalk_sglue+0x38>
 80061ec:	4629      	mov	r1, r5
 80061ee:	4638      	mov	r0, r7
 80061f0:	47c0      	blx	r8
 80061f2:	4306      	orrs	r6, r0
 80061f4:	3568      	adds	r5, #104	@ 0x68
 80061f6:	e7e9      	b.n	80061cc <_fwalk_sglue+0x10>

080061f8 <iprintf>:
 80061f8:	b40f      	push	{r0, r1, r2, r3}
 80061fa:	b507      	push	{r0, r1, r2, lr}
 80061fc:	4906      	ldr	r1, [pc, #24]	@ (8006218 <iprintf+0x20>)
 80061fe:	ab04      	add	r3, sp, #16
 8006200:	6808      	ldr	r0, [r1, #0]
 8006202:	f853 2b04 	ldr.w	r2, [r3], #4
 8006206:	6881      	ldr	r1, [r0, #8]
 8006208:	9301      	str	r3, [sp, #4]
 800620a:	f000 fa5f 	bl	80066cc <_vfiprintf_r>
 800620e:	b003      	add	sp, #12
 8006210:	f85d eb04 	ldr.w	lr, [sp], #4
 8006214:	b004      	add	sp, #16
 8006216:	4770      	bx	lr
 8006218:	2000006c 	.word	0x2000006c

0800621c <_puts_r>:
 800621c:	6a03      	ldr	r3, [r0, #32]
 800621e:	b570      	push	{r4, r5, r6, lr}
 8006220:	6884      	ldr	r4, [r0, #8]
 8006222:	4605      	mov	r5, r0
 8006224:	460e      	mov	r6, r1
 8006226:	b90b      	cbnz	r3, 800622c <_puts_r+0x10>
 8006228:	f7ff ff9e 	bl	8006168 <__sinit>
 800622c:	6e63      	ldr	r3, [r4, #100]	@ 0x64
 800622e:	07db      	lsls	r3, r3, #31
 8006230:	d405      	bmi.n	800623e <_puts_r+0x22>
 8006232:	89a3      	ldrh	r3, [r4, #12]
 8006234:	0598      	lsls	r0, r3, #22
 8006236:	d402      	bmi.n	800623e <_puts_r+0x22>
 8006238:	6da0      	ldr	r0, [r4, #88]	@ 0x58
 800623a:	f000 f9bc 	bl	80065b6 <__retarget_lock_acquire_recursive>
 800623e:	89a3      	ldrh	r3, [r4, #12]
 8006240:	0719      	lsls	r1, r3, #28
 8006242:	d502      	bpl.n	800624a <_puts_r+0x2e>
 8006244:	6923      	ldr	r3, [r4, #16]
 8006246:	2b00      	cmp	r3, #0
 8006248:	d135      	bne.n	80062b6 <_puts_r+0x9a>
 800624a:	4621      	mov	r1, r4
 800624c:	4628      	mov	r0, r5
 800624e:	f000 f8c5 	bl	80063dc <__swsetup_r>
 8006252:	b380      	cbz	r0, 80062b6 <_puts_r+0x9a>
 8006254:	f04f 35ff 	mov.w	r5, #4294967295	@ 0xffffffff
 8006258:	6e63      	ldr	r3, [r4, #100]	@ 0x64
 800625a:	07da      	lsls	r2, r3, #31
 800625c:	d405      	bmi.n	800626a <_puts_r+0x4e>
 800625e:	89a3      	ldrh	r3, [r4, #12]
 8006260:	059b      	lsls	r3, r3, #22
 8006262:	d402      	bmi.n	800626a <_puts_r+0x4e>
 8006264:	6da0      	ldr	r0, [r4, #88]	@ 0x58
 8006266:	f000 f9a7 	bl	80065b8 <__retarget_lock_release_recursive>
 800626a:	4628      	mov	r0, r5
 800626c:	bd70      	pop	{r4, r5, r6, pc}
 800626e:	2b00      	cmp	r3, #0
 8006270:	da04      	bge.n	800627c <_puts_r+0x60>
 8006272:	69a2      	ldr	r2, [r4, #24]
 8006274:	4293      	cmp	r3, r2
 8006276:	db17      	blt.n	80062a8 <_puts_r+0x8c>
 8006278:	290a      	cmp	r1, #10
 800627a:	d015      	beq.n	80062a8 <_puts_r+0x8c>
 800627c:	6823      	ldr	r3, [r4, #0]
 800627e:	1c5a      	adds	r2, r3, #1
 8006280:	6022      	str	r2, [r4, #0]
 8006282:	7019      	strb	r1, [r3, #0]
 8006284:	68a3      	ldr	r3, [r4, #8]
 8006286:	f816 1f01 	ldrb.w	r1, [r6, #1]!
 800628a:	3b01      	subs	r3, #1
 800628c:	60a3      	str	r3, [r4, #8]
 800628e:	2900      	cmp	r1, #0
 8006290:	d1ed      	bne.n	800626e <_puts_r+0x52>
 8006292:	2b00      	cmp	r3, #0
 8006294:	da11      	bge.n	80062ba <_puts_r+0x9e>
 8006296:	4622      	mov	r2, r4
 8006298:	210a      	movs	r1, #10
 800629a:	4628      	mov	r0, r5
 800629c:	f000 f860 	bl	8006360 <__swbuf_r>
 80062a0:	3001      	adds	r0, #1
 80062a2:	d0d7      	beq.n	8006254 <_puts_r+0x38>
 80062a4:	250a      	movs	r5, #10
 80062a6:	e7d7      	b.n	8006258 <_puts_r+0x3c>
 80062a8:	4622      	mov	r2, r4
 80062aa:	4628      	mov	r0, r5
 80062ac:	f000 f858 	bl	8006360 <__swbuf_r>
 80062b0:	3001      	adds	r0, #1
 80062b2:	d1e7      	bne.n	8006284 <_puts_r+0x68>
 80062b4:	e7ce      	b.n	8006254 <_puts_r+0x38>
 80062b6:	3e01      	subs	r6, #1
 80062b8:	e7e4      	b.n	8006284 <_puts_r+0x68>
 80062ba:	6823      	ldr	r3, [r4, #0]
 80062bc:	1c5a      	adds	r2, r3, #1
 80062be:	6022      	str	r2, [r4, #0]
 80062c0:	220a      	movs	r2, #10
 80062c2:	701a      	strb	r2, [r3, #0]
 80062c4:	e7ee      	b.n	80062a4 <_puts_r+0x88>
	...

080062c8 <puts>:
 80062c8:	4b02      	ldr	r3, [pc, #8]	@ (80062d4 <puts+0xc>)
 80062ca:	4601      	mov	r1, r0
 80062cc:	6818      	ldr	r0, [r3, #0]
 80062ce:	f7ff bfa5 	b.w	800621c <_puts_r>
 80062d2:	bf00      	nop
 80062d4:	2000006c 	.word	0x2000006c

080062d8 <__sread>:
 80062d8:	b510      	push	{r4, lr}
 80062da:	460c      	mov	r4, r1
 80062dc:	f9b1 100e 	ldrsh.w	r1, [r1, #14]
 80062e0:	f000 f90a 	bl	80064f8 <_read_r>
 80062e4:	2800      	cmp	r0, #0
 80062e6:	bfab      	itete	ge
 80062e8:	6d63      	ldrge	r3, [r4, #84]	@ 0x54
 80062ea:	89a3      	ldrhlt	r3, [r4, #12]
 80062ec:	181b      	addge	r3, r3, r0
 80062ee:	f423 5380 	biclt.w	r3, r3, #4096	@ 0x1000
 80062f2:	bfac      	ite	ge
 80062f4:	6563      	strge	r3, [r4, #84]	@ 0x54
 80062f6:	81a3      	strhlt	r3, [r4, #12]
 80062f8:	bd10      	pop	{r4, pc}

080062fa <__swrite>:
 80062fa:	e92d 41f0 	stmdb	sp!, {r4, r5, r6, r7, r8, lr}
 80062fe:	461f      	mov	r7, r3
 8006300:	898b      	ldrh	r3, [r1, #12]
 8006302:	05db      	lsls	r3, r3, #23
 8006304:	4605      	mov	r5, r0
 8006306:	460c      	mov	r4, r1
 8006308:	4616      	mov	r6, r2
 800630a:	d505      	bpl.n	8006318 <__swrite+0x1e>
 800630c:	f9b1 100e 	ldrsh.w	r1, [r1, #14]
 8006310:	2302      	movs	r3, #2
 8006312:	2200      	movs	r2, #0
 8006314:	f000 f8de 	bl	80064d4 <_lseek_r>
 8006318:	89a3      	ldrh	r3, [r4, #12]
 800631a:	f9b4 100e 	ldrsh.w	r1, [r4, #14]
 800631e:	f423 5380 	bic.w	r3, r3, #4096	@ 0x1000
 8006322:	81a3      	strh	r3, [r4, #12]
 8006324:	4632      	mov	r2, r6
 8006326:	463b      	mov	r3, r7
 8006328:	4628      	mov	r0, r5
 800632a:	e8bd 41f0 	ldmia.w	sp!, {r4, r5, r6, r7, r8, lr}
 800632e:	f000 b905 	b.w	800653c <_write_r>

08006332 <__sseek>:
 8006332:	b510      	push	{r4, lr}
 8006334:	460c      	mov	r4, r1
 8006336:	f9b1 100e 	ldrsh.w	r1, [r1, #14]
 800633a:	f000 f8cb 	bl	80064d4 <_lseek_r>
 800633e:	f9b4 300c 	ldrsh.w	r3, [r4, #12]
 8006342:	1c42      	adds	r2, r0, #1
 8006344:	bf0b      	itete	eq
 8006346:	f423 5380 	biceq.w	r3, r3, #4096	@ 0x1000
 800634a:	f443 5380 	orrne.w	r3, r3, #4096	@ 0x1000
 800634e:	81a3      	strheq	r3, [r4, #12]
 8006350:	81a3      	strhne	r3, [r4, #12]
 8006352:	bf18      	it	ne
 8006354:	6560      	strne	r0, [r4, #84]	@ 0x54
 8006356:	bd10      	pop	{r4, pc}

08006358 <__sclose>:
 8006358:	f9b1 100e 	ldrsh.w	r1, [r1, #14]
 800635c:	f000 b8aa 	b.w	80064b4 <_close_r>

08006360 <__swbuf_r>:
 8006360:	b5f8      	push	{r3, r4, r5, r6, r7, lr}
 8006362:	460e      	mov	r6, r1
 8006364:	4614      	mov	r4, r2
 8006366:	4605      	mov	r5, r0
 8006368:	b118      	cbz	r0, 8006372 <__swbuf_r+0x12>
 800636a:	6a03      	ldr	r3, [r0, #32]
 800636c:	b90b      	cbnz	r3, 8006372 <__swbuf_r+0x12>
 800636e:	f7ff fefb 	bl	8006168 <__sinit>
 8006372:	69a3      	ldr	r3, [r4, #24]
 8006374:	60a3      	str	r3, [r4, #8]
 8006376:	89a3      	ldrh	r3, [r4, #12]
 8006378:	071a      	lsls	r2, r3, #28
 800637a:	d501      	bpl.n	8006380 <__swbuf_r+0x20>
 800637c:	6923      	ldr	r3, [r4, #16]
 800637e:	b943      	cbnz	r3, 8006392 <__swbuf_r+0x32>
 8006380:	4621      	mov	r1, r4
 8006382:	4628      	mov	r0, r5
 8006384:	f000 f82a 	bl	80063dc <__swsetup_r>
 8006388:	b118      	cbz	r0, 8006392 <__swbuf_r+0x32>
 800638a:	f04f 37ff 	mov.w	r7, #4294967295	@ 0xffffffff
 800638e:	4638      	mov	r0, r7
 8006390:	bdf8      	pop	{r3, r4, r5, r6, r7, pc}
 8006392:	6823      	ldr	r3, [r4, #0]
 8006394:	6922      	ldr	r2, [r4, #16]
 8006396:	1a98      	subs	r0, r3, r2
 8006398:	6963      	ldr	r3, [r4, #20]
 800639a:	b2f6      	uxtb	r6, r6
 800639c:	4283      	cmp	r3, r0
 800639e:	4637      	mov	r7, r6
 80063a0:	dc05      	bgt.n	80063ae <__swbuf_r+0x4e>
 80063a2:	4621      	mov	r1, r4
 80063a4:	4628      	mov	r0, r5
 80063a6:	f000 fcbb 	bl	8006d20 <_fflush_r>
 80063aa:	2800      	cmp	r0, #0
 80063ac:	d1ed      	bne.n	800638a <__swbuf_r+0x2a>
 80063ae:	68a3      	ldr	r3, [r4, #8]
 80063b0:	3b01      	subs	r3, #1
 80063b2:	60a3      	str	r3, [r4, #8]
 80063b4:	6823      	ldr	r3, [r4, #0]
 80063b6:	1c5a      	adds	r2, r3, #1
 80063b8:	6022      	str	r2, [r4, #0]
 80063ba:	701e      	strb	r6, [r3, #0]
 80063bc:	6962      	ldr	r2, [r4, #20]
 80063be:	1c43      	adds	r3, r0, #1
 80063c0:	429a      	cmp	r2, r3
 80063c2:	d004      	beq.n	80063ce <__swbuf_r+0x6e>
 80063c4:	89a3      	ldrh	r3, [r4, #12]
 80063c6:	07db      	lsls	r3, r3, #31
 80063c8:	d5e1      	bpl.n	800638e <__swbuf_r+0x2e>
 80063ca:	2e0a      	cmp	r6, #10
 80063cc:	d1df      	bne.n	800638e <__swbuf_r+0x2e>
 80063ce:	4621      	mov	r1, r4
 80063d0:	4628      	mov	r0, r5
 80063d2:	f000 fca5 	bl	8006d20 <_fflush_r>
 80063d6:	2800      	cmp	r0, #0
 80063d8:	d0d9      	beq.n	800638e <__swbuf_r+0x2e>
 80063da:	e7d6      	b.n	800638a <__swbuf_r+0x2a>

080063dc <__swsetup_r>:
 80063dc:	b538      	push	{r3, r4, r5, lr}
 80063de:	4b28      	ldr	r3, [pc, #160]	@ (8006480 <__swsetup_r+0xa4>)
 80063e0:	4605      	mov	r5, r0
 80063e2:	6818      	ldr	r0, [r3, #0]
 80063e4:	460c      	mov	r4, r1
 80063e6:	b118      	cbz	r0, 80063f0 <__swsetup_r+0x14>
 80063e8:	6a03      	ldr	r3, [r0, #32]
 80063ea:	b90b      	cbnz	r3, 80063f0 <__swsetup_r+0x14>
 80063ec:	f7ff febc 	bl	8006168 <__sinit>
 80063f0:	f9b4 300c 	ldrsh.w	r3, [r4, #12]
 80063f4:	071a      	lsls	r2, r3, #28
 80063f6:	d421      	bmi.n	800643c <__swsetup_r+0x60>
 80063f8:	06d8      	lsls	r0, r3, #27
 80063fa:	d407      	bmi.n	800640c <__swsetup_r+0x30>
 80063fc:	2209      	movs	r2, #9
 80063fe:	602a      	str	r2, [r5, #0]
 8006400:	f043 0340 	orr.w	r3, r3, #64	@ 0x40
 8006404:	81a3      	strh	r3, [r4, #12]
 8006406:	f04f 30ff 	mov.w	r0, #4294967295	@ 0xffffffff
 800640a:	e030      	b.n	800646e <__swsetup_r+0x92>
 800640c:	0759      	lsls	r1, r3, #29
 800640e:	d512      	bpl.n	8006436 <__swsetup_r+0x5a>
 8006410:	6b61      	ldr	r1, [r4, #52]	@ 0x34
 8006412:	b141      	cbz	r1, 8006426 <__swsetup_r+0x4a>
 8006414:	f104 0344 	add.w	r3, r4, #68	@ 0x44
 8006418:	4299      	cmp	r1, r3
 800641a:	d002      	beq.n	8006422 <__swsetup_r+0x46>
 800641c:	4628      	mov	r0, r5
 800641e:	f000 f8e1 	bl	80065e4 <_free_r>
 8006422:	2300      	movs	r3, #0
 8006424:	6363      	str	r3, [r4, #52]	@ 0x34
 8006426:	2200      	movs	r2, #0
 8006428:	f9b4 300c 	ldrsh.w	r3, [r4, #12]
 800642c:	6062      	str	r2, [r4, #4]
 800642e:	6922      	ldr	r2, [r4, #16]
 8006430:	6022      	str	r2, [r4, #0]
 8006432:	f023 0324 	bic.w	r3, r3, #36	@ 0x24
 8006436:	f043 0308 	orr.w	r3, r3, #8
 800643a:	81a3      	strh	r3, [r4, #12]
 800643c:	6922      	ldr	r2, [r4, #16]
 800643e:	b93a      	cbnz	r2, 8006450 <__swsetup_r+0x74>
 8006440:	059a      	lsls	r2, r3, #22
 8006442:	d501      	bpl.n	8006448 <__swsetup_r+0x6c>
 8006444:	0618      	lsls	r0, r3, #24
 8006446:	d503      	bpl.n	8006450 <__swsetup_r+0x74>
 8006448:	4621      	mov	r1, r4
 800644a:	4628      	mov	r0, r5
 800644c:	f000 fcb4 	bl	8006db8 <__smakebuf_r>
 8006450:	f9b4 300c 	ldrsh.w	r3, [r4, #12]
 8006454:	f013 0201 	ands.w	r2, r3, #1
 8006458:	d00a      	beq.n	8006470 <__swsetup_r+0x94>
 800645a:	2200      	movs	r2, #0
 800645c:	60a2      	str	r2, [r4, #8]
 800645e:	6962      	ldr	r2, [r4, #20]
 8006460:	4252      	negs	r2, r2
 8006462:	61a2      	str	r2, [r4, #24]
 8006464:	6922      	ldr	r2, [r4, #16]
 8006466:	b942      	cbnz	r2, 800647a <__swsetup_r+0x9e>
 8006468:	f013 0080 	ands.w	r0, r3, #128	@ 0x80
 800646c:	d1c8      	bne.n	8006400 <__swsetup_r+0x24>
 800646e:	bd38      	pop	{r3, r4, r5, pc}
 8006470:	0799      	lsls	r1, r3, #30
 8006472:	bf58      	it	pl
 8006474:	6962      	ldrpl	r2, [r4, #20]
 8006476:	60a2      	str	r2, [r4, #8]
 8006478:	e7f4      	b.n	8006464 <__swsetup_r+0x88>
 800647a:	2000      	movs	r0, #0
 800647c:	e7f7      	b.n	800646e <__swsetup_r+0x92>
 800647e:	bf00      	nop
 8006480:	2000006c 	.word	0x2000006c

08006484 <memcmp>:
 8006484:	b510      	push	{r4, lr}
 8006486:	3901      	subs	r1, #1
 8006488:	4402      	add	r2, r0
 800648a:	4290      	cmp	r0, r2
 800648c:	d101      	bne.n	8006492 <memcmp+0xe>
 800648e:	2000      	movs	r0, #0
 8006490:	e005      	b.n	800649e <memcmp+0x1a>
 8006492:	7803      	ldrb	r3, [r0, #0]
 8006494:	f811 4f01 	ldrb.w	r4, [r1, #1]!
 8006498:	42a3      	cmp	r3, r4
 800649a:	d001      	beq.n	80064a0 <memcmp+0x1c>
 800649c:	1b18      	subs	r0, r3, r4
 800649e:	bd10      	pop	{r4, pc}
 80064a0:	3001      	adds	r0, #1
 80064a2:	e7f2      	b.n	800648a <memcmp+0x6>

080064a4 <memset>:
 80064a4:	4402      	add	r2, r0
 80064a6:	4603      	mov	r3, r0
 80064a8:	4293      	cmp	r3, r2
 80064aa:	d100      	bne.n	80064ae <memset+0xa>
 80064ac:	4770      	bx	lr
 80064ae:	f803 1b01 	strb.w	r1, [r3], #1
 80064b2:	e7f9      	b.n	80064a8 <memset+0x4>

080064b4 <_close_r>:
 80064b4:	b538      	push	{r3, r4, r5, lr}
 80064b6:	4d06      	ldr	r5, [pc, #24]	@ (80064d0 <_close_r+0x1c>)
 80064b8:	2300      	movs	r3, #0
 80064ba:	4604      	mov	r4, r0
 80064bc:	4608      	mov	r0, r1
 80064be:	602b      	str	r3, [r5, #0]
 80064c0:	f7fa fae2 	bl	8000a88 <_close>
 80064c4:	1c43      	adds	r3, r0, #1
 80064c6:	d102      	bne.n	80064ce <_close_r+0x1a>
 80064c8:	682b      	ldr	r3, [r5, #0]
 80064ca:	b103      	cbz	r3, 80064ce <_close_r+0x1a>
 80064cc:	6023      	str	r3, [r4, #0]
 80064ce:	bd38      	pop	{r3, r4, r5, pc}
 80064d0:	20000378 	.word	0x20000378

080064d4 <_lseek_r>:
 80064d4:	b538      	push	{r3, r4, r5, lr}
 80064d6:	4d07      	ldr	r5, [pc, #28]	@ (80064f4 <_lseek_r+0x20>)
 80064d8:	4604      	mov	r4, r0
 80064da:	4608      	mov	r0, r1
 80064dc:	4611      	mov	r1, r2
 80064de:	2200      	movs	r2, #0
 80064e0:	602a      	str	r2, [r5, #0]
 80064e2:	461a      	mov	r2, r3
 80064e4:	f7fa fada 	bl	8000a9c <_lseek>
 80064e8:	1c43      	adds	r3, r0, #1
 80064ea:	d102      	bne.n	80064f2 <_lseek_r+0x1e>
 80064ec:	682b      	ldr	r3, [r5, #0]
 80064ee:	b103      	cbz	r3, 80064f2 <_lseek_r+0x1e>
 80064f0:	6023      	str	r3, [r4, #0]
 80064f2:	bd38      	pop	{r3, r4, r5, pc}
 80064f4:	20000378 	.word	0x20000378

080064f8 <_read_r>:
 80064f8:	b538      	push	{r3, r4, r5, lr}
 80064fa:	4d07      	ldr	r5, [pc, #28]	@ (8006518 <_read_r+0x20>)
 80064fc:	4604      	mov	r4, r0
 80064fe:	4608      	mov	r0, r1
 8006500:	4611      	mov	r1, r2
 8006502:	2200      	movs	r2, #0
 8006504:	602a      	str	r2, [r5, #0]
 8006506:	461a      	mov	r2, r3
 8006508:	f7fa faae 	bl	8000a68 <_read>
 800650c:	1c43      	adds	r3, r0, #1
 800650e:	d102      	bne.n	8006516 <_read_r+0x1e>
 8006510:	682b      	ldr	r3, [r5, #0]
 8006512:	b103      	cbz	r3, 8006516 <_read_r+0x1e>
 8006514:	6023      	str	r3, [r4, #0]
 8006516:	bd38      	pop	{r3, r4, r5, pc}
 8006518:	20000378 	.word	0x20000378

0800651c <_sbrk_r>:
 800651c:	b538      	push	{r3, r4, r5, lr}
 800651e:	4d06      	ldr	r5, [pc, #24]	@ (8006538 <_sbrk_r+0x1c>)
 8006520:	2300      	movs	r3, #0
 8006522:	4604      	mov	r4, r0
 8006524:	4608      	mov	r0, r1
 8006526:	602b      	str	r3, [r5, #0]
 8006528:	f7fa faba 	bl	8000aa0 <_sbrk>
 800652c:	1c43      	adds	r3, r0, #1
 800652e:	d102      	bne.n	8006536 <_sbrk_r+0x1a>
 8006530:	682b      	ldr	r3, [r5, #0]
 8006532:	b103      	cbz	r3, 8006536 <_sbrk_r+0x1a>
 8006534:	6023      	str	r3, [r4, #0]
 8006536:	bd38      	pop	{r3, r4, r5, pc}
 8006538:	20000378 	.word	0x20000378

0800653c <_write_r>:
 800653c:	b538      	push	{r3, r4, r5, lr}
 800653e:	4d07      	ldr	r5, [pc, #28]	@ (800655c <_write_r+0x20>)
 8006540:	4604      	mov	r4, r0
 8006542:	4608      	mov	r0, r1
 8006544:	4611      	mov	r1, r2
 8006546:	2200      	movs	r2, #0
 8006548:	602a      	str	r2, [r5, #0]
 800654a:	461a      	mov	r2, r3
 800654c:	f7fa f896 	bl	800067c <_write>
 8006550:	1c43      	adds	r3, r0, #1
 8006552:	d102      	bne.n	800655a <_write_r+0x1e>
 8006554:	682b      	ldr	r3, [r5, #0]
 8006556:	b103      	cbz	r3, 800655a <_write_r+0x1e>
 8006558:	6023      	str	r3, [r4, #0]
 800655a:	bd38      	pop	{r3, r4, r5, pc}
 800655c:	20000378 	.word	0x20000378

08006560 <__errno>:
 8006560:	4b01      	ldr	r3, [pc, #4]	@ (8006568 <__errno+0x8>)
 8006562:	6818      	ldr	r0, [r3, #0]
 8006564:	4770      	bx	lr
 8006566:	bf00      	nop
 8006568:	2000006c 	.word	0x2000006c

0800656c <__libc_init_array>:
 800656c:	b570      	push	{r4, r5, r6, lr}
 800656e:	4b0d      	ldr	r3, [pc, #52]	@ (80065a4 <__libc_init_array+0x38>)
 8006570:	4d0d      	ldr	r5, [pc, #52]	@ (80065a8 <__libc_init_array+0x3c>)
 8006572:	1b5b      	subs	r3, r3, r5
 8006574:	109c      	asrs	r4, r3, #2
 8006576:	2600      	movs	r6, #0
 8006578:	42a6      	cmp	r6, r4
 800657a:	d109      	bne.n	8006590 <__libc_init_array+0x24>
 800657c:	f000 fcbc 	bl	8006ef8 <_init>
 8006580:	4d0a      	ldr	r5, [pc, #40]	@ (80065ac <__libc_init_array+0x40>)
 8006582:	4b0b      	ldr	r3, [pc, #44]	@ (80065b0 <__libc_init_array+0x44>)
 8006584:	1b5b      	subs	r3, r3, r5
 8006586:	109c      	asrs	r4, r3, #2
 8006588:	2600      	movs	r6, #0
 800658a:	42a6      	cmp	r6, r4
 800658c:	d105      	bne.n	800659a <__libc_init_array+0x2e>
 800658e:	bd70      	pop	{r4, r5, r6, pc}
 8006590:	f855 3b04 	ldr.w	r3, [r5], #4
 8006594:	4798      	blx	r3
 8006596:	3601      	adds	r6, #1
 8006598:	e7ee      	b.n	8006578 <__libc_init_array+0xc>
 800659a:	f855 3b04 	ldr.w	r3, [r5], #4
 800659e:	4798      	blx	r3
 80065a0:	3601      	adds	r6, #1
 80065a2:	e7f2      	b.n	800658a <__libc_init_array+0x1e>
 80065a4:	08007f58 	.word	0x08007f58
 80065a8:	08007f58 	.word	0x08007f58
 80065ac:	08007f58 	.word	0x08007f58
 80065b0:	08007f5c 	.word	0x08007f5c

080065b4 <__retarget_lock_init_recursive>:
 80065b4:	4770      	bx	lr

080065b6 <__retarget_lock_acquire_recursive>:
 80065b6:	4770      	bx	lr

080065b8 <__retarget_lock_release_recursive>:
 80065b8:	4770      	bx	lr

080065ba <memcpy>:
 80065ba:	440a      	add	r2, r1
 80065bc:	4291      	cmp	r1, r2
 80065be:	f100 33ff 	add.w	r3, r0, #4294967295	@ 0xffffffff
 80065c2:	d100      	bne.n	80065c6 <memcpy+0xc>
 80065c4:	4770      	bx	lr
 80065c6:	b510      	push	{r4, lr}
 80065c8:	f811 4b01 	ldrb.w	r4, [r1], #1
 80065cc:	f803 4f01 	strb.w	r4, [r3, #1]!
 80065d0:	4291      	cmp	r1, r2
 80065d2:	d1f9      	bne.n	80065c8 <memcpy+0xe>
 80065d4:	bd10      	pop	{r4, pc}

080065d6 <abort>:
 80065d6:	b508      	push	{r3, lr}
 80065d8:	2006      	movs	r0, #6
 80065da:	f000 fc4f 	bl	8006e7c <raise>
 80065de:	2001      	movs	r0, #1
 80065e0:	f7fa fa3c 	bl	8000a5c <_exit>

080065e4 <_free_r>:
 80065e4:	b538      	push	{r3, r4, r5, lr}
 80065e6:	4605      	mov	r5, r0
 80065e8:	2900      	cmp	r1, #0
 80065ea:	d041      	beq.n	8006670 <_free_r+0x8c>
 80065ec:	f851 3c04 	ldr.w	r3, [r1, #-4]
 80065f0:	1f0c      	subs	r4, r1, #4
 80065f2:	2b00      	cmp	r3, #0
 80065f4:	bfb8      	it	lt
 80065f6:	18e4      	addlt	r4, r4, r3
 80065f8:	f7ff fd1c 	bl	8006034 <__malloc_lock>
 80065fc:	4a1d      	ldr	r2, [pc, #116]	@ (8006674 <_free_r+0x90>)
 80065fe:	6813      	ldr	r3, [r2, #0]
 8006600:	b933      	cbnz	r3, 8006610 <_free_r+0x2c>
 8006602:	6063      	str	r3, [r4, #4]
 8006604:	6014      	str	r4, [r2, #0]
 8006606:	4628      	mov	r0, r5
 8006608:	e8bd 4038 	ldmia.w	sp!, {r3, r4, r5, lr}
 800660c:	f7ff bd18 	b.w	8006040 <__malloc_unlock>
 8006610:	42a3      	cmp	r3, r4
 8006612:	d908      	bls.n	8006626 <_free_r+0x42>
 8006614:	6820      	ldr	r0, [r4, #0]
 8006616:	1821      	adds	r1, r4, r0
 8006618:	428b      	cmp	r3, r1
 800661a:	bf01      	itttt	eq
 800661c:	6819      	ldreq	r1, [r3, #0]
 800661e:	685b      	ldreq	r3, [r3, #4]
 8006620:	1809      	addeq	r1, r1, r0
 8006622:	6021      	streq	r1, [r4, #0]
 8006624:	e7ed      	b.n	8006602 <_free_r+0x1e>
 8006626:	461a      	mov	r2, r3
 8006628:	685b      	ldr	r3, [r3, #4]
 800662a:	b10b      	cbz	r3, 8006630 <_free_r+0x4c>
 800662c:	42a3      	cmp	r3, r4
 800662e:	d9fa      	bls.n	8006626 <_free_r+0x42>
 8006630:	6811      	ldr	r1, [r2, #0]
 8006632:	1850      	adds	r0, r2, r1
 8006634:	42a0      	cmp	r0, r4
 8006636:	d10b      	bne.n	8006650 <_free_r+0x6c>
 8006638:	6820      	ldr	r0, [r4, #0]
 800663a:	4401      	add	r1, r0
 800663c:	1850      	adds	r0, r2, r1
 800663e:	4283      	cmp	r3, r0
 8006640:	6011      	str	r1, [r2, #0]
 8006642:	d1e0      	bne.n	8006606 <_free_r+0x22>
 8006644:	6818      	ldr	r0, [r3, #0]
 8006646:	685b      	ldr	r3, [r3, #4]
 8006648:	6053      	str	r3, [r2, #4]
 800664a:	4408      	add	r0, r1
 800664c:	6010      	str	r0, [r2, #0]
 800664e:	e7da      	b.n	8006606 <_free_r+0x22>
 8006650:	d902      	bls.n	8006658 <_free_r+0x74>
 8006652:	230c      	movs	r3, #12
 8006654:	602b      	str	r3, [r5, #0]
 8006656:	e7d6      	b.n	8006606 <_free_r+0x22>
 8006658:	6820      	ldr	r0, [r4, #0]
 800665a:	1821      	adds	r1, r4, r0
 800665c:	428b      	cmp	r3, r1
 800665e:	bf04      	itt	eq
 8006660:	6819      	ldreq	r1, [r3, #0]
 8006662:	685b      	ldreq	r3, [r3, #4]
 8006664:	6063      	str	r3, [r4, #4]
 8006666:	bf04      	itt	eq
 8006668:	1809      	addeq	r1, r1, r0
 800666a:	6021      	streq	r1, [r4, #0]
 800666c:	6054      	str	r4, [r2, #4]
 800666e:	e7ca      	b.n	8006606 <_free_r+0x22>
 8006670:	bd38      	pop	{r3, r4, r5, pc}
 8006672:	bf00      	nop
 8006674:	20000238 	.word	0x20000238

08006678 <__sfputc_r>:
 8006678:	6893      	ldr	r3, [r2, #8]
 800667a:	3b01      	subs	r3, #1
 800667c:	2b00      	cmp	r3, #0
 800667e:	b410      	push	{r4}
 8006680:	6093      	str	r3, [r2, #8]
 8006682:	da08      	bge.n	8006696 <__sfputc_r+0x1e>
 8006684:	6994      	ldr	r4, [r2, #24]
 8006686:	42a3      	cmp	r3, r4
 8006688:	db01      	blt.n	800668e <__sfputc_r+0x16>
 800668a:	290a      	cmp	r1, #10
 800668c:	d103      	bne.n	8006696 <__sfputc_r+0x1e>
 800668e:	f85d 4b04 	ldr.w	r4, [sp], #4
 8006692:	f7ff be65 	b.w	8006360 <__swbuf_r>
 8006696:	6813      	ldr	r3, [r2, #0]
 8006698:	1c58      	adds	r0, r3, #1
 800669a:	6010      	str	r0, [r2, #0]
 800669c:	7019      	strb	r1, [r3, #0]
 800669e:	4608      	mov	r0, r1
 80066a0:	f85d 4b04 	ldr.w	r4, [sp], #4
 80066a4:	4770      	bx	lr

080066a6 <__sfputs_r>:
 80066a6:	b5f8      	push	{r3, r4, r5, r6, r7, lr}
 80066a8:	4606      	mov	r6, r0
 80066aa:	460f      	mov	r7, r1
 80066ac:	4614      	mov	r4, r2
 80066ae:	18d5      	adds	r5, r2, r3
 80066b0:	42ac      	cmp	r4, r5
 80066b2:	d101      	bne.n	80066b8 <__sfputs_r+0x12>
 80066b4:	2000      	movs	r0, #0
 80066b6:	e007      	b.n	80066c8 <__sfputs_r+0x22>
 80066b8:	f814 1b01 	ldrb.w	r1, [r4], #1
 80066bc:	463a      	mov	r2, r7
 80066be:	4630      	mov	r0, r6
 80066c0:	f7ff ffda 	bl	8006678 <__sfputc_r>
 80066c4:	1c43      	adds	r3, r0, #1
 80066c6:	d1f3      	bne.n	80066b0 <__sfputs_r+0xa>
 80066c8:	bdf8      	pop	{r3, r4, r5, r6, r7, pc}
	...

080066cc <_vfiprintf_r>:
 80066cc:	e92d 47f0 	stmdb	sp!, {r4, r5, r6, r7, r8, r9, sl, lr}
 80066d0:	460d      	mov	r5, r1
 80066d2:	b09c      	sub	sp, #112	@ 0x70
 80066d4:	4614      	mov	r4, r2
 80066d6:	461f      	mov	r7, r3
 80066d8:	4606      	mov	r6, r0
 80066da:	b118      	cbz	r0, 80066e4 <_vfiprintf_r+0x18>
 80066dc:	6a03      	ldr	r3, [r0, #32]
 80066de:	b90b      	cbnz	r3, 80066e4 <_vfiprintf_r+0x18>
 80066e0:	f7ff fd42 	bl	8006168 <__sinit>
 80066e4:	6e6b      	ldr	r3, [r5, #100]	@ 0x64
 80066e6:	07d9      	lsls	r1, r3, #31
 80066e8:	d405      	bmi.n	80066f6 <_vfiprintf_r+0x2a>
 80066ea:	89ab      	ldrh	r3, [r5, #12]
 80066ec:	059a      	lsls	r2, r3, #22
 80066ee:	d402      	bmi.n	80066f6 <_vfiprintf_r+0x2a>
 80066f0:	6da8      	ldr	r0, [r5, #88]	@ 0x58
 80066f2:	f7ff ff60 	bl	80065b6 <__retarget_lock_acquire_recursive>
 80066f6:	89ab      	ldrh	r3, [r5, #12]
 80066f8:	071b      	lsls	r3, r3, #28
 80066fa:	d501      	bpl.n	8006700 <_vfiprintf_r+0x34>
 80066fc:	692b      	ldr	r3, [r5, #16]
 80066fe:	b99b      	cbnz	r3, 8006728 <_vfiprintf_r+0x5c>
 8006700:	4629      	mov	r1, r5
 8006702:	4630      	mov	r0, r6
 8006704:	f7ff fe6a 	bl	80063dc <__swsetup_r>
 8006708:	b170      	cbz	r0, 8006728 <_vfiprintf_r+0x5c>
 800670a:	6e6b      	ldr	r3, [r5, #100]	@ 0x64
 800670c:	07dc      	lsls	r4, r3, #31
 800670e:	d504      	bpl.n	800671a <_vfiprintf_r+0x4e>
 8006710:	f04f 30ff 	mov.w	r0, #4294967295	@ 0xffffffff
 8006714:	b01c      	add	sp, #112	@ 0x70
 8006716:	e8bd 87f0 	ldmia.w	sp!, {r4, r5, r6, r7, r8, r9, sl, pc}
 800671a:	89ab      	ldrh	r3, [r5, #12]
 800671c:	0598      	lsls	r0, r3, #22
 800671e:	d4f7      	bmi.n	8006710 <_vfiprintf_r+0x44>
 8006720:	6da8      	ldr	r0, [r5, #88]	@ 0x58
 8006722:	f7ff ff49 	bl	80065b8 <__retarget_lock_release_recursive>
 8006726:	e7f3      	b.n	8006710 <_vfiprintf_r+0x44>
 8006728:	2300      	movs	r3, #0
 800672a:	9309      	str	r3, [sp, #36]	@ 0x24
 800672c:	2320      	movs	r3, #32
 800672e:	f88d 3029 	strb.w	r3, [sp, #41]	@ 0x29
 8006732:	9703      	str	r7, [sp, #12]
 8006734:	2330      	movs	r3, #48	@ 0x30
 8006736:	4f6a      	ldr	r7, [pc, #424]	@ (80068e0 <_vfiprintf_r+0x214>)
 8006738:	f88d 302a 	strb.w	r3, [sp, #42]	@ 0x2a
 800673c:	f04f 0801 	mov.w	r8, #1
 8006740:	4623      	mov	r3, r4
 8006742:	4699      	mov	r9, r3
 8006744:	f813 2b01 	ldrb.w	r2, [r3], #1
 8006748:	b10a      	cbz	r2, 800674e <_vfiprintf_r+0x82>
 800674a:	2a25      	cmp	r2, #37	@ 0x25
 800674c:	d1f9      	bne.n	8006742 <_vfiprintf_r+0x76>
 800674e:	ebb9 0a04 	subs.w	sl, r9, r4
 8006752:	d00b      	beq.n	800676c <_vfiprintf_r+0xa0>
 8006754:	4653      	mov	r3, sl
 8006756:	4622      	mov	r2, r4
 8006758:	4629      	mov	r1, r5
 800675a:	4630      	mov	r0, r6
 800675c:	f7ff ffa3 	bl	80066a6 <__sfputs_r>
 8006760:	3001      	adds	r0, #1
 8006762:	f000 80a4 	beq.w	80068ae <_vfiprintf_r+0x1e2>
 8006766:	9a09      	ldr	r2, [sp, #36]	@ 0x24
 8006768:	4452      	add	r2, sl
 800676a:	9209      	str	r2, [sp, #36]	@ 0x24
 800676c:	f899 3000 	ldrb.w	r3, [r9]
 8006770:	2b00      	cmp	r3, #0
 8006772:	f000 809c 	beq.w	80068ae <_vfiprintf_r+0x1e2>
 8006776:	2300      	movs	r3, #0
 8006778:	f04f 32ff 	mov.w	r2, #4294967295	@ 0xffffffff
 800677c:	e9cd 2305 	strd	r2, r3, [sp, #20]
 8006780:	f109 0901 	add.w	r9, r9, #1
 8006784:	9304      	str	r3, [sp, #16]
 8006786:	9307      	str	r3, [sp, #28]
 8006788:	f88d 3053 	strb.w	r3, [sp, #83]	@ 0x53
 800678c:	931a      	str	r3, [sp, #104]	@ 0x68
 800678e:	464c      	mov	r4, r9
 8006790:	4853      	ldr	r0, [pc, #332]	@ (80068e0 <_vfiprintf_r+0x214>)
 8006792:	f814 1b01 	ldrb.w	r1, [r4], #1
 8006796:	2205      	movs	r2, #5
 8006798:	f7f9 fd1a 	bl	80001d0 <memchr>
 800679c:	9b04      	ldr	r3, [sp, #16]
 800679e:	b9d0      	cbnz	r0, 80067d6 <_vfiprintf_r+0x10a>
 80067a0:	06d9      	lsls	r1, r3, #27
 80067a2:	bf44      	itt	mi
 80067a4:	2220      	movmi	r2, #32
 80067a6:	f88d 2053 	strbmi.w	r2, [sp, #83]	@ 0x53
 80067aa:	071a      	lsls	r2, r3, #28
 80067ac:	bf44      	itt	mi
 80067ae:	222b      	movmi	r2, #43	@ 0x2b
 80067b0:	f88d 2053 	strbmi.w	r2, [sp, #83]	@ 0x53
 80067b4:	f899 2000 	ldrb.w	r2, [r9]
 80067b8:	2a2a      	cmp	r2, #42	@ 0x2a
 80067ba:	d013      	beq.n	80067e4 <_vfiprintf_r+0x118>
 80067bc:	9a07      	ldr	r2, [sp, #28]
 80067be:	464c      	mov	r4, r9
 80067c0:	2000      	movs	r0, #0
 80067c2:	f04f 0c0a 	mov.w	ip, #10
 80067c6:	4621      	mov	r1, r4
 80067c8:	f811 3b01 	ldrb.w	r3, [r1], #1
 80067cc:	3b30      	subs	r3, #48	@ 0x30
 80067ce:	2b09      	cmp	r3, #9
 80067d0:	d949      	bls.n	8006866 <_vfiprintf_r+0x19a>
 80067d2:	b968      	cbnz	r0, 80067f0 <_vfiprintf_r+0x124>
 80067d4:	e013      	b.n	80067fe <_vfiprintf_r+0x132>
 80067d6:	1bc0      	subs	r0, r0, r7
 80067d8:	fa08 f000 	lsl.w	r0, r8, r0
 80067dc:	4318      	orrs	r0, r3
 80067de:	9004      	str	r0, [sp, #16]
 80067e0:	46a1      	mov	r9, r4
 80067e2:	e7d4      	b.n	800678e <_vfiprintf_r+0xc2>
 80067e4:	9a03      	ldr	r2, [sp, #12]
 80067e6:	1d11      	adds	r1, r2, #4
 80067e8:	6812      	ldr	r2, [r2, #0]
 80067ea:	9103      	str	r1, [sp, #12]
 80067ec:	2a00      	cmp	r2, #0
 80067ee:	db01      	blt.n	80067f4 <_vfiprintf_r+0x128>
 80067f0:	9207      	str	r2, [sp, #28]
 80067f2:	e004      	b.n	80067fe <_vfiprintf_r+0x132>
 80067f4:	4252      	negs	r2, r2
 80067f6:	f043 0302 	orr.w	r3, r3, #2
 80067fa:	9207      	str	r2, [sp, #28]
 80067fc:	9304      	str	r3, [sp, #16]
 80067fe:	7823      	ldrb	r3, [r4, #0]
 8006800:	2b2e      	cmp	r3, #46	@ 0x2e
 8006802:	d10a      	bne.n	800681a <_vfiprintf_r+0x14e>
 8006804:	7863      	ldrb	r3, [r4, #1]
 8006806:	2b2a      	cmp	r3, #42	@ 0x2a
 8006808:	d132      	bne.n	8006870 <_vfiprintf_r+0x1a4>
 800680a:	9b03      	ldr	r3, [sp, #12]
 800680c:	1d1a      	adds	r2, r3, #4
 800680e:	681b      	ldr	r3, [r3, #0]
 8006810:	9203      	str	r2, [sp, #12]
 8006812:	ea43 73e3 	orr.w	r3, r3, r3, asr #31
 8006816:	3402      	adds	r4, #2
 8006818:	9305      	str	r3, [sp, #20]
 800681a:	f8df 90d4 	ldr.w	r9, [pc, #212]	@ 80068f0 <_vfiprintf_r+0x224>
 800681e:	7821      	ldrb	r1, [r4, #0]
 8006820:	2203      	movs	r2, #3
 8006822:	4648      	mov	r0, r9
 8006824:	f7f9 fcd4 	bl	80001d0 <memchr>
 8006828:	b138      	cbz	r0, 800683a <_vfiprintf_r+0x16e>
 800682a:	9b04      	ldr	r3, [sp, #16]
 800682c:	eba0 0009 	sub.w	r0, r0, r9
 8006830:	2240      	movs	r2, #64	@ 0x40
 8006832:	4082      	lsls	r2, r0
 8006834:	4313      	orrs	r3, r2
 8006836:	3401      	adds	r4, #1
 8006838:	9304      	str	r3, [sp, #16]
 800683a:	f814 1b01 	ldrb.w	r1, [r4], #1
 800683e:	4829      	ldr	r0, [pc, #164]	@ (80068e4 <_vfiprintf_r+0x218>)
 8006840:	f88d 1028 	strb.w	r1, [sp, #40]	@ 0x28
 8006844:	2206      	movs	r2, #6
 8006846:	f7f9 fcc3 	bl	80001d0 <memchr>
 800684a:	2800      	cmp	r0, #0
 800684c:	d03e      	beq.n	80068cc <_vfiprintf_r+0x200>
 800684e:	4826      	ldr	r0, [pc, #152]	@ (80068e8 <_vfiprintf_r+0x21c>)
 8006850:	bb18      	cbnz	r0, 800689a <_vfiprintf_r+0x1ce>
 8006852:	9b03      	ldr	r3, [sp, #12]
 8006854:	3307      	adds	r3, #7
 8006856:	f023 0307 	bic.w	r3, r3, #7
 800685a:	3308      	adds	r3, #8
 800685c:	9303      	str	r3, [sp, #12]
 800685e:	9b09      	ldr	r3, [sp, #36]	@ 0x24
 8006860:	4403      	add	r3, r0
 8006862:	9309      	str	r3, [sp, #36]	@ 0x24
 8006864:	e76c      	b.n	8006740 <_vfiprintf_r+0x74>
 8006866:	fb0c 3202 	mla	r2, ip, r2, r3
 800686a:	460c      	mov	r4, r1
 800686c:	2001      	movs	r0, #1
 800686e:	e7aa      	b.n	80067c6 <_vfiprintf_r+0xfa>
 8006870:	2300      	movs	r3, #0
 8006872:	3401      	adds	r4, #1
 8006874:	9305      	str	r3, [sp, #20]
 8006876:	4619      	mov	r1, r3
 8006878:	f04f 0c0a 	mov.w	ip, #10
 800687c:	4620      	mov	r0, r4
 800687e:	f810 2b01 	ldrb.w	r2, [r0], #1
 8006882:	3a30      	subs	r2, #48	@ 0x30
 8006884:	2a09      	cmp	r2, #9
 8006886:	d903      	bls.n	8006890 <_vfiprintf_r+0x1c4>
 8006888:	2b00      	cmp	r3, #0
 800688a:	d0c6      	beq.n	800681a <_vfiprintf_r+0x14e>
 800688c:	9105      	str	r1, [sp, #20]
 800688e:	e7c4      	b.n	800681a <_vfiprintf_r+0x14e>
 8006890:	fb0c 2101 	mla	r1, ip, r1, r2
 8006894:	4604      	mov	r4, r0
 8006896:	2301      	movs	r3, #1
 8006898:	e7f0      	b.n	800687c <_vfiprintf_r+0x1b0>
 800689a:	ab03      	add	r3, sp, #12
 800689c:	9300      	str	r3, [sp, #0]
 800689e:	462a      	mov	r2, r5
 80068a0:	4b12      	ldr	r3, [pc, #72]	@ (80068ec <_vfiprintf_r+0x220>)
 80068a2:	a904      	add	r1, sp, #16
 80068a4:	4630      	mov	r0, r6
 80068a6:	f3af 8000 	nop.w
 80068aa:	1c43      	adds	r3, r0, #1
 80068ac:	d1d7      	bne.n	800685e <_vfiprintf_r+0x192>
 80068ae:	6e6b      	ldr	r3, [r5, #100]	@ 0x64
 80068b0:	07d9      	lsls	r1, r3, #31
 80068b2:	d405      	bmi.n	80068c0 <_vfiprintf_r+0x1f4>
 80068b4:	89ab      	ldrh	r3, [r5, #12]
 80068b6:	059a      	lsls	r2, r3, #22
 80068b8:	d402      	bmi.n	80068c0 <_vfiprintf_r+0x1f4>
 80068ba:	6da8      	ldr	r0, [r5, #88]	@ 0x58
 80068bc:	f7ff fe7c 	bl	80065b8 <__retarget_lock_release_recursive>
 80068c0:	89ab      	ldrh	r3, [r5, #12]
 80068c2:	065b      	lsls	r3, r3, #25
 80068c4:	f53f af24 	bmi.w	8006710 <_vfiprintf_r+0x44>
 80068c8:	9809      	ldr	r0, [sp, #36]	@ 0x24
 80068ca:	e723      	b.n	8006714 <_vfiprintf_r+0x48>
 80068cc:	ab03      	add	r3, sp, #12
 80068ce:	9300      	str	r3, [sp, #0]
 80068d0:	462a      	mov	r2, r5
 80068d2:	4b06      	ldr	r3, [pc, #24]	@ (80068ec <_vfiprintf_r+0x220>)
 80068d4:	a904      	add	r1, sp, #16
 80068d6:	4630      	mov	r0, r6
 80068d8:	f000 f87a 	bl	80069d0 <_printf_i>
 80068dc:	e7e5      	b.n	80068aa <_vfiprintf_r+0x1de>
 80068de:	bf00      	nop
 80068e0:	08007f1c 	.word	0x08007f1c
 80068e4:	08007f26 	.word	0x08007f26
 80068e8:	00000000 	.word	0x00000000
 80068ec:	080066a7 	.word	0x080066a7
 80068f0:	08007f22 	.word	0x08007f22

080068f4 <_printf_common>:
 80068f4:	e92d 47f0 	stmdb	sp!, {r4, r5, r6, r7, r8, r9, sl, lr}
 80068f8:	4616      	mov	r6, r2
 80068fa:	4698      	mov	r8, r3
 80068fc:	688a      	ldr	r2, [r1, #8]
 80068fe:	690b      	ldr	r3, [r1, #16]
 8006900:	f8dd 9020 	ldr.w	r9, [sp, #32]
 8006904:	4293      	cmp	r3, r2
 8006906:	bfb8      	it	lt
 8006908:	4613      	movlt	r3, r2
 800690a:	6033      	str	r3, [r6, #0]
 800690c:	f891 2043 	ldrb.w	r2, [r1, #67]	@ 0x43
 8006910:	4607      	mov	r7, r0
 8006912:	460c      	mov	r4, r1
 8006914:	b10a      	cbz	r2, 800691a <_printf_common+0x26>
 8006916:	3301      	adds	r3, #1
 8006918:	6033      	str	r3, [r6, #0]
 800691a:	6823      	ldr	r3, [r4, #0]
 800691c:	0699      	lsls	r1, r3, #26
 800691e:	bf42      	ittt	mi
 8006920:	6833      	ldrmi	r3, [r6, #0]
 8006922:	3302      	addmi	r3, #2
 8006924:	6033      	strmi	r3, [r6, #0]
 8006926:	6825      	ldr	r5, [r4, #0]
 8006928:	f015 0506 	ands.w	r5, r5, #6
 800692c:	d106      	bne.n	800693c <_printf_common+0x48>
 800692e:	f104 0a19 	add.w	sl, r4, #25
 8006932:	68e3      	ldr	r3, [r4, #12]
 8006934:	6832      	ldr	r2, [r6, #0]
 8006936:	1a9b      	subs	r3, r3, r2
 8006938:	42ab      	cmp	r3, r5
 800693a:	dc26      	bgt.n	800698a <_printf_common+0x96>
 800693c:	f894 3043 	ldrb.w	r3, [r4, #67]	@ 0x43
 8006940:	6822      	ldr	r2, [r4, #0]
 8006942:	3b00      	subs	r3, #0
 8006944:	bf18      	it	ne
 8006946:	2301      	movne	r3, #1
 8006948:	0692      	lsls	r2, r2, #26
 800694a:	d42b      	bmi.n	80069a4 <_printf_common+0xb0>
 800694c:	f104 0243 	add.w	r2, r4, #67	@ 0x43
 8006950:	4641      	mov	r1, r8
 8006952:	4638      	mov	r0, r7
 8006954:	47c8      	blx	r9
 8006956:	3001      	adds	r0, #1
 8006958:	d01e      	beq.n	8006998 <_printf_common+0xa4>
 800695a:	6823      	ldr	r3, [r4, #0]
 800695c:	6922      	ldr	r2, [r4, #16]
 800695e:	f003 0306 	and.w	r3, r3, #6
 8006962:	2b04      	cmp	r3, #4
 8006964:	bf02      	ittt	eq
 8006966:	68e5      	ldreq	r5, [r4, #12]
 8006968:	6833      	ldreq	r3, [r6, #0]
 800696a:	1aed      	subeq	r5, r5, r3
 800696c:	68a3      	ldr	r3, [r4, #8]
 800696e:	bf0c      	ite	eq
 8006970:	ea25 75e5 	biceq.w	r5, r5, r5, asr #31
 8006974:	2500      	movne	r5, #0
 8006976:	4293      	cmp	r3, r2
 8006978:	bfc4      	itt	gt
 800697a:	1a9b      	subgt	r3, r3, r2
 800697c:	18ed      	addgt	r5, r5, r3
 800697e:	2600      	movs	r6, #0
 8006980:	341a      	adds	r4, #26
 8006982:	42b5      	cmp	r5, r6
 8006984:	d11a      	bne.n	80069bc <_printf_common+0xc8>
 8006986:	2000      	movs	r0, #0
 8006988:	e008      	b.n	800699c <_printf_common+0xa8>
 800698a:	2301      	movs	r3, #1
 800698c:	4652      	mov	r2, sl
 800698e:	4641      	mov	r1, r8
 8006990:	4638      	mov	r0, r7
 8006992:	47c8      	blx	r9
 8006994:	3001      	adds	r0, #1
 8006996:	d103      	bne.n	80069a0 <_printf_common+0xac>
 8006998:	f04f 30ff 	mov.w	r0, #4294967295	@ 0xffffffff
 800699c:	e8bd 87f0 	ldmia.w	sp!, {r4, r5, r6, r7, r8, r9, sl, pc}
 80069a0:	3501      	adds	r5, #1
 80069a2:	e7c6      	b.n	8006932 <_printf_common+0x3e>
 80069a4:	18e1      	adds	r1, r4, r3
 80069a6:	1c5a      	adds	r2, r3, #1
 80069a8:	2030      	movs	r0, #48	@ 0x30
 80069aa:	f881 0043 	strb.w	r0, [r1, #67]	@ 0x43
 80069ae:	4422      	add	r2, r4
 80069b0:	f894 1045 	ldrb.w	r1, [r4, #69]	@ 0x45
 80069b4:	f882 1043 	strb.w	r1, [r2, #67]	@ 0x43
 80069b8:	3302      	adds	r3, #2
 80069ba:	e7c7      	b.n	800694c <_printf_common+0x58>
 80069bc:	2301      	movs	r3, #1
 80069be:	4622      	mov	r2, r4
 80069c0:	4641      	mov	r1, r8
 80069c2:	4638      	mov	r0, r7
 80069c4:	47c8      	blx	r9
 80069c6:	3001      	adds	r0, #1
 80069c8:	d0e6      	beq.n	8006998 <_printf_common+0xa4>
 80069ca:	3601      	adds	r6, #1
 80069cc:	e7d9      	b.n	8006982 <_printf_common+0x8e>
	...

080069d0 <_printf_i>:
 80069d0:	e92d 43f0 	stmdb	sp!, {r4, r5, r6, r7, r8, r9, lr}
 80069d4:	7e0d      	ldrb	r5, [r1, #24]
 80069d6:	b085      	sub	sp, #20
 80069d8:	2d78      	cmp	r5, #120	@ 0x78
 80069da:	4690      	mov	r8, r2
 80069dc:	9e0c      	ldr	r6, [sp, #48]	@ 0x30
 80069de:	4607      	mov	r7, r0
 80069e0:	460c      	mov	r4, r1
 80069e2:	4699      	mov	r9, r3
 80069e4:	f101 0243 	add.w	r2, r1, #67	@ 0x43
 80069e8:	d807      	bhi.n	80069fa <_printf_i+0x2a>
 80069ea:	2d62      	cmp	r5, #98	@ 0x62
 80069ec:	d80a      	bhi.n	8006a04 <_printf_i+0x34>
 80069ee:	2d00      	cmp	r5, #0
 80069f0:	f000 80d7 	beq.w	8006ba2 <_printf_i+0x1d2>
 80069f4:	2d58      	cmp	r5, #88	@ 0x58
 80069f6:	f000 80bc 	beq.w	8006b72 <_printf_i+0x1a2>
 80069fa:	f104 0642 	add.w	r6, r4, #66	@ 0x42
 80069fe:	f884 5042 	strb.w	r5, [r4, #66]	@ 0x42
 8006a02:	e03b      	b.n	8006a7c <_printf_i+0xac>
 8006a04:	f1a5 0363 	sub.w	r3, r5, #99	@ 0x63
 8006a08:	2b15      	cmp	r3, #21
 8006a0a:	d8f6      	bhi.n	80069fa <_printf_i+0x2a>
 8006a0c:	a101      	add	r1, pc, #4	@ (adr r1, 8006a14 <_printf_i+0x44>)
 8006a0e:	f851 f023 	ldr.w	pc, [r1, r3, lsl #2]
 8006a12:	bf00      	nop
 8006a14:	08006a6d 	.word	0x08006a6d
 8006a18:	08006a81 	.word	0x08006a81
 8006a1c:	080069fb 	.word	0x080069fb
 8006a20:	080069fb 	.word	0x080069fb
 8006a24:	080069fb 	.word	0x080069fb
 8006a28:	080069fb 	.word	0x080069fb
 8006a2c:	08006a81 	.word	0x08006a81
 8006a30:	080069fb 	.word	0x080069fb
 8006a34:	080069fb 	.word	0x080069fb
 8006a38:	080069fb 	.word	0x080069fb
 8006a3c:	080069fb 	.word	0x080069fb
 8006a40:	08006b89 	.word	0x08006b89
 8006a44:	08006aab 	.word	0x08006aab
 8006a48:	08006b3b 	.word	0x08006b3b
 8006a4c:	080069fb 	.word	0x080069fb
 8006a50:	080069fb 	.word	0x080069fb
 8006a54:	08006bab 	.word	0x08006bab
 8006a58:	080069fb 	.word	0x080069fb
 8006a5c:	08006aab 	.word	0x08006aab
 8006a60:	080069fb 	.word	0x080069fb
 8006a64:	080069fb 	.word	0x080069fb
 8006a68:	08006b43 	.word	0x08006b43
 8006a6c:	6833      	ldr	r3, [r6, #0]
 8006a6e:	1d1a      	adds	r2, r3, #4
 8006a70:	681b      	ldr	r3, [r3, #0]
 8006a72:	6032      	str	r2, [r6, #0]
 8006a74:	f104 0642 	add.w	r6, r4, #66	@ 0x42
 8006a78:	f884 3042 	strb.w	r3, [r4, #66]	@ 0x42
 8006a7c:	2301      	movs	r3, #1
 8006a7e:	e0a1      	b.n	8006bc4 <_printf_i+0x1f4>
 8006a80:	6833      	ldr	r3, [r6, #0]
 8006a82:	6820      	ldr	r0, [r4, #0]
 8006a84:	1d19      	adds	r1, r3, #4
 8006a86:	6031      	str	r1, [r6, #0]
 8006a88:	0606      	lsls	r6, r0, #24
 8006a8a:	d501      	bpl.n	8006a90 <_printf_i+0xc0>
 8006a8c:	681d      	ldr	r5, [r3, #0]
 8006a8e:	e003      	b.n	8006a98 <_printf_i+0xc8>
 8006a90:	0645      	lsls	r5, r0, #25
 8006a92:	d5fb      	bpl.n	8006a8c <_printf_i+0xbc>
 8006a94:	f9b3 5000 	ldrsh.w	r5, [r3]
 8006a98:	2d00      	cmp	r5, #0
 8006a9a:	da03      	bge.n	8006aa4 <_printf_i+0xd4>
 8006a9c:	232d      	movs	r3, #45	@ 0x2d
 8006a9e:	426d      	negs	r5, r5
 8006aa0:	f884 3043 	strb.w	r3, [r4, #67]	@ 0x43
 8006aa4:	485b      	ldr	r0, [pc, #364]	@ (8006c14 <_printf_i+0x244>)
 8006aa6:	230a      	movs	r3, #10
 8006aa8:	e011      	b.n	8006ace <_printf_i+0xfe>
 8006aaa:	6821      	ldr	r1, [r4, #0]
 8006aac:	6833      	ldr	r3, [r6, #0]
 8006aae:	0608      	lsls	r0, r1, #24
 8006ab0:	f853 5b04 	ldr.w	r5, [r3], #4
 8006ab4:	d402      	bmi.n	8006abc <_printf_i+0xec>
 8006ab6:	0649      	lsls	r1, r1, #25
 8006ab8:	bf48      	it	mi
 8006aba:	b2ad      	uxthmi	r5, r5
 8006abc:	6033      	str	r3, [r6, #0]
 8006abe:	7e23      	ldrb	r3, [r4, #24]
 8006ac0:	4854      	ldr	r0, [pc, #336]	@ (8006c14 <_printf_i+0x244>)
 8006ac2:	2b6f      	cmp	r3, #111	@ 0x6f
 8006ac4:	d15c      	bne.n	8006b80 <_printf_i+0x1b0>
 8006ac6:	2308      	movs	r3, #8
 8006ac8:	2100      	movs	r1, #0
 8006aca:	f884 1043 	strb.w	r1, [r4, #67]	@ 0x43
 8006ace:	6866      	ldr	r6, [r4, #4]
 8006ad0:	60a6      	str	r6, [r4, #8]
 8006ad2:	2e00      	cmp	r6, #0
 8006ad4:	db05      	blt.n	8006ae2 <_printf_i+0x112>
 8006ad6:	6821      	ldr	r1, [r4, #0]
 8006ad8:	432e      	orrs	r6, r5
 8006ada:	f021 0104 	bic.w	r1, r1, #4
 8006ade:	6021      	str	r1, [r4, #0]
 8006ae0:	d050      	beq.n	8006b84 <_printf_i+0x1b4>
 8006ae2:	4616      	mov	r6, r2
 8006ae4:	fbb5 f1f3 	udiv	r1, r5, r3
 8006ae8:	fb03 5c11 	mls	ip, r3, r1, r5
 8006aec:	f810 c00c 	ldrb.w	ip, [r0, ip]
 8006af0:	f806 cd01 	strb.w	ip, [r6, #-1]!
 8006af4:	46ac      	mov	ip, r5
 8006af6:	4563      	cmp	r3, ip
 8006af8:	460d      	mov	r5, r1
 8006afa:	d9f3      	bls.n	8006ae4 <_printf_i+0x114>
 8006afc:	2b08      	cmp	r3, #8
 8006afe:	d10b      	bne.n	8006b18 <_printf_i+0x148>
 8006b00:	6823      	ldr	r3, [r4, #0]
 8006b02:	07db      	lsls	r3, r3, #31
 8006b04:	d508      	bpl.n	8006b18 <_printf_i+0x148>
 8006b06:	6923      	ldr	r3, [r4, #16]
 8006b08:	6861      	ldr	r1, [r4, #4]
 8006b0a:	4299      	cmp	r1, r3
 8006b0c:	bfde      	ittt	le
 8006b0e:	2330      	movle	r3, #48	@ 0x30
 8006b10:	f806 3c01 	strble.w	r3, [r6, #-1]
 8006b14:	f106 36ff 	addle.w	r6, r6, #4294967295	@ 0xffffffff
 8006b18:	1b92      	subs	r2, r2, r6
 8006b1a:	6122      	str	r2, [r4, #16]
 8006b1c:	f8cd 9000 	str.w	r9, [sp]
 8006b20:	4643      	mov	r3, r8
 8006b22:	aa03      	add	r2, sp, #12
 8006b24:	4621      	mov	r1, r4
 8006b26:	4638      	mov	r0, r7
 8006b28:	f7ff fee4 	bl	80068f4 <_printf_common>
 8006b2c:	3001      	adds	r0, #1
 8006b2e:	d14e      	bne.n	8006bce <_printf_i+0x1fe>
 8006b30:	f04f 30ff 	mov.w	r0, #4294967295	@ 0xffffffff
 8006b34:	b005      	add	sp, #20
 8006b36:	e8bd 83f0 	ldmia.w	sp!, {r4, r5, r6, r7, r8, r9, pc}
 8006b3a:	6823      	ldr	r3, [r4, #0]
 8006b3c:	f043 0320 	orr.w	r3, r3, #32
 8006b40:	6023      	str	r3, [r4, #0]
 8006b42:	4835      	ldr	r0, [pc, #212]	@ (8006c18 <_printf_i+0x248>)
 8006b44:	2578      	movs	r5, #120	@ 0x78
 8006b46:	f884 5045 	strb.w	r5, [r4, #69]	@ 0x45
 8006b4a:	6823      	ldr	r3, [r4, #0]
 8006b4c:	6831      	ldr	r1, [r6, #0]
 8006b4e:	f013 0f80 	tst.w	r3, #128	@ 0x80
 8006b52:	f851 5b04 	ldr.w	r5, [r1], #4
 8006b56:	d103      	bne.n	8006b60 <_printf_i+0x190>
 8006b58:	f013 0f40 	tst.w	r3, #64	@ 0x40
 8006b5c:	bf18      	it	ne
 8006b5e:	b2ad      	uxthne	r5, r5
 8006b60:	6031      	str	r1, [r6, #0]
 8006b62:	07d9      	lsls	r1, r3, #31
 8006b64:	bf44      	itt	mi
 8006b66:	f043 0320 	orrmi.w	r3, r3, #32
 8006b6a:	6023      	strmi	r3, [r4, #0]
 8006b6c:	b11d      	cbz	r5, 8006b76 <_printf_i+0x1a6>
 8006b6e:	2310      	movs	r3, #16
 8006b70:	e7aa      	b.n	8006ac8 <_printf_i+0xf8>
 8006b72:	4828      	ldr	r0, [pc, #160]	@ (8006c14 <_printf_i+0x244>)
 8006b74:	e7e7      	b.n	8006b46 <_printf_i+0x176>
 8006b76:	6823      	ldr	r3, [r4, #0]
 8006b78:	f023 0320 	bic.w	r3, r3, #32
 8006b7c:	6023      	str	r3, [r4, #0]
 8006b7e:	e7f6      	b.n	8006b6e <_printf_i+0x19e>
 8006b80:	230a      	movs	r3, #10
 8006b82:	e7a1      	b.n	8006ac8 <_printf_i+0xf8>
 8006b84:	4616      	mov	r6, r2
 8006b86:	e7b9      	b.n	8006afc <_printf_i+0x12c>
 8006b88:	6833      	ldr	r3, [r6, #0]
 8006b8a:	6825      	ldr	r5, [r4, #0]
 8006b8c:	6961      	ldr	r1, [r4, #20]
 8006b8e:	1d18      	adds	r0, r3, #4
 8006b90:	6030      	str	r0, [r6, #0]
 8006b92:	062e      	lsls	r6, r5, #24
 8006b94:	681b      	ldr	r3, [r3, #0]
 8006b96:	d501      	bpl.n	8006b9c <_printf_i+0x1cc>
 8006b98:	6019      	str	r1, [r3, #0]
 8006b9a:	e002      	b.n	8006ba2 <_printf_i+0x1d2>
 8006b9c:	0668      	lsls	r0, r5, #25
 8006b9e:	d5fb      	bpl.n	8006b98 <_printf_i+0x1c8>
 8006ba0:	8019      	strh	r1, [r3, #0]
 8006ba2:	2300      	movs	r3, #0
 8006ba4:	6123      	str	r3, [r4, #16]
 8006ba6:	4616      	mov	r6, r2
 8006ba8:	e7b8      	b.n	8006b1c <_printf_i+0x14c>
 8006baa:	6833      	ldr	r3, [r6, #0]
 8006bac:	1d1a      	adds	r2, r3, #4
 8006bae:	6032      	str	r2, [r6, #0]
 8006bb0:	681e      	ldr	r6, [r3, #0]
 8006bb2:	6862      	ldr	r2, [r4, #4]
 8006bb4:	2100      	movs	r1, #0
 8006bb6:	4630      	mov	r0, r6
 8006bb8:	f7f9 fb0a 	bl	80001d0 <memchr>
 8006bbc:	b108      	cbz	r0, 8006bc2 <_printf_i+0x1f2>
 8006bbe:	1b80      	subs	r0, r0, r6
 8006bc0:	6060      	str	r0, [r4, #4]
 8006bc2:	6863      	ldr	r3, [r4, #4]
 8006bc4:	6123      	str	r3, [r4, #16]
 8006bc6:	2300      	movs	r3, #0
 8006bc8:	f884 3043 	strb.w	r3, [r4, #67]	@ 0x43
 8006bcc:	e7a6      	b.n	8006b1c <_printf_i+0x14c>
 8006bce:	6923      	ldr	r3, [r4, #16]
 8006bd0:	4632      	mov	r2, r6
 8006bd2:	4641      	mov	r1, r8
 8006bd4:	4638      	mov	r0, r7
 8006bd6:	47c8      	blx	r9
 8006bd8:	3001      	adds	r0, #1
 8006bda:	d0a9      	beq.n	8006b30 <_printf_i+0x160>
 8006bdc:	6823      	ldr	r3, [r4, #0]
 8006bde:	079b      	lsls	r3, r3, #30
 8006be0:	d413      	bmi.n	8006c0a <_printf_i+0x23a>
 8006be2:	68e0      	ldr	r0, [r4, #12]
 8006be4:	9b03      	ldr	r3, [sp, #12]
 8006be6:	4298      	cmp	r0, r3
 8006be8:	bfb8      	it	lt
 8006bea:	4618      	movlt	r0, r3
 8006bec:	e7a2      	b.n	8006b34 <_printf_i+0x164>
 8006bee:	2301      	movs	r3, #1
 8006bf0:	4632      	mov	r2, r6
 8006bf2:	4641      	mov	r1, r8
 8006bf4:	4638      	mov	r0, r7
 8006bf6:	47c8      	blx	r9
 8006bf8:	3001      	adds	r0, #1
 8006bfa:	d099      	beq.n	8006b30 <_printf_i+0x160>
 8006bfc:	3501      	adds	r5, #1
 8006bfe:	68e3      	ldr	r3, [r4, #12]
 8006c00:	9903      	ldr	r1, [sp, #12]
 8006c02:	1a5b      	subs	r3, r3, r1
 8006c04:	42ab      	cmp	r3, r5
 8006c06:	dcf2      	bgt.n	8006bee <_printf_i+0x21e>
 8006c08:	e7eb      	b.n	8006be2 <_printf_i+0x212>
 8006c0a:	2500      	movs	r5, #0
 8006c0c:	f104 0619 	add.w	r6, r4, #25
 8006c10:	e7f5      	b.n	8006bfe <_printf_i+0x22e>
 8006c12:	bf00      	nop
 8006c14:	08007f2d 	.word	0x08007f2d
 8006c18:	08007f3e 	.word	0x08007f3e

08006c1c <__sflush_r>:
 8006c1c:	f9b1 200c 	ldrsh.w	r2, [r1, #12]
 8006c20:	e92d 41f0 	stmdb	sp!, {r4, r5, r6, r7, r8, lr}
 8006c24:	0716      	lsls	r6, r2, #28
 8006c26:	4605      	mov	r5, r0
 8006c28:	460c      	mov	r4, r1
 8006c2a:	d451      	bmi.n	8006cd0 <__sflush_r+0xb4>
 8006c2c:	684b      	ldr	r3, [r1, #4]
 8006c2e:	2b00      	cmp	r3, #0
 8006c30:	dc02      	bgt.n	8006c38 <__sflush_r+0x1c>
 8006c32:	6c0b      	ldr	r3, [r1, #64]	@ 0x40
 8006c34:	2b00      	cmp	r3, #0
 8006c36:	dd49      	ble.n	8006ccc <__sflush_r+0xb0>
 8006c38:	6ae6      	ldr	r6, [r4, #44]	@ 0x2c
 8006c3a:	2e00      	cmp	r6, #0
 8006c3c:	d046      	beq.n	8006ccc <__sflush_r+0xb0>
 8006c3e:	2300      	movs	r3, #0
 8006c40:	f412 5280 	ands.w	r2, r2, #4096	@ 0x1000
 8006c44:	682f      	ldr	r7, [r5, #0]
 8006c46:	602b      	str	r3, [r5, #0]
 8006c48:	d031      	beq.n	8006cae <__sflush_r+0x92>
 8006c4a:	6d62      	ldr	r2, [r4, #84]	@ 0x54
 8006c4c:	89a3      	ldrh	r3, [r4, #12]
 8006c4e:	0759      	lsls	r1, r3, #29
 8006c50:	d505      	bpl.n	8006c5e <__sflush_r+0x42>
 8006c52:	6863      	ldr	r3, [r4, #4]
 8006c54:	1ad2      	subs	r2, r2, r3
 8006c56:	6b63      	ldr	r3, [r4, #52]	@ 0x34
 8006c58:	b10b      	cbz	r3, 8006c5e <__sflush_r+0x42>
 8006c5a:	6c23      	ldr	r3, [r4, #64]	@ 0x40
 8006c5c:	1ad2      	subs	r2, r2, r3
 8006c5e:	2300      	movs	r3, #0
 8006c60:	6ae6      	ldr	r6, [r4, #44]	@ 0x2c
 8006c62:	6a21      	ldr	r1, [r4, #32]
 8006c64:	4628      	mov	r0, r5
 8006c66:	47b0      	blx	r6
 8006c68:	1c42      	adds	r2, r0, #1
 8006c6a:	f9b4 300c 	ldrsh.w	r3, [r4, #12]
 8006c6e:	d106      	bne.n	8006c7e <__sflush_r+0x62>
 8006c70:	6829      	ldr	r1, [r5, #0]
 8006c72:	291d      	cmp	r1, #29
 8006c74:	d846      	bhi.n	8006d04 <__sflush_r+0xe8>
 8006c76:	4a29      	ldr	r2, [pc, #164]	@ (8006d1c <__sflush_r+0x100>)
 8006c78:	40ca      	lsrs	r2, r1
 8006c7a:	07d6      	lsls	r6, r2, #31
 8006c7c:	d542      	bpl.n	8006d04 <__sflush_r+0xe8>
 8006c7e:	2200      	movs	r2, #0
 8006c80:	6062      	str	r2, [r4, #4]
 8006c82:	04d9      	lsls	r1, r3, #19
 8006c84:	6922      	ldr	r2, [r4, #16]
 8006c86:	6022      	str	r2, [r4, #0]
 8006c88:	d504      	bpl.n	8006c94 <__sflush_r+0x78>
 8006c8a:	1c42      	adds	r2, r0, #1
 8006c8c:	d101      	bne.n	8006c92 <__sflush_r+0x76>
 8006c8e:	682b      	ldr	r3, [r5, #0]
 8006c90:	b903      	cbnz	r3, 8006c94 <__sflush_r+0x78>
 8006c92:	6560      	str	r0, [r4, #84]	@ 0x54
 8006c94:	6b61      	ldr	r1, [r4, #52]	@ 0x34
 8006c96:	602f      	str	r7, [r5, #0]
 8006c98:	b1c1      	cbz	r1, 8006ccc <__sflush_r+0xb0>
 8006c9a:	f104 0344 	add.w	r3, r4, #68	@ 0x44
 8006c9e:	4299      	cmp	r1, r3
 8006ca0:	d002      	beq.n	8006ca8 <__sflush_r+0x8c>
 8006ca2:	4628      	mov	r0, r5
 8006ca4:	f7ff fc9e 	bl	80065e4 <_free_r>
 8006ca8:	2300      	movs	r3, #0
 8006caa:	6363      	str	r3, [r4, #52]	@ 0x34
 8006cac:	e00e      	b.n	8006ccc <__sflush_r+0xb0>
 8006cae:	6a21      	ldr	r1, [r4, #32]
 8006cb0:	2301      	movs	r3, #1
 8006cb2:	4628      	mov	r0, r5
 8006cb4:	47b0      	blx	r6
 8006cb6:	4602      	mov	r2, r0
 8006cb8:	1c50      	adds	r0, r2, #1
 8006cba:	d1c7      	bne.n	8006c4c <__sflush_r+0x30>
 8006cbc:	682b      	ldr	r3, [r5, #0]
 8006cbe:	2b00      	cmp	r3, #0
 8006cc0:	d0c4      	beq.n	8006c4c <__sflush_r+0x30>
 8006cc2:	2b1d      	cmp	r3, #29
 8006cc4:	d001      	beq.n	8006cca <__sflush_r+0xae>
 8006cc6:	2b16      	cmp	r3, #22
 8006cc8:	d11a      	bne.n	8006d00 <__sflush_r+0xe4>
 8006cca:	602f      	str	r7, [r5, #0]
 8006ccc:	2000      	movs	r0, #0
 8006cce:	e01e      	b.n	8006d0e <__sflush_r+0xf2>
 8006cd0:	690f      	ldr	r7, [r1, #16]
 8006cd2:	2f00      	cmp	r7, #0
 8006cd4:	d0fa      	beq.n	8006ccc <__sflush_r+0xb0>
 8006cd6:	0793      	lsls	r3, r2, #30
 8006cd8:	680e      	ldr	r6, [r1, #0]
 8006cda:	bf08      	it	eq
 8006cdc:	694b      	ldreq	r3, [r1, #20]
 8006cde:	600f      	str	r7, [r1, #0]
 8006ce0:	bf18      	it	ne
 8006ce2:	2300      	movne	r3, #0
 8006ce4:	eba6 0807 	sub.w	r8, r6, r7
 8006ce8:	608b      	str	r3, [r1, #8]
 8006cea:	f1b8 0f00 	cmp.w	r8, #0
 8006cee:	dded      	ble.n	8006ccc <__sflush_r+0xb0>
 8006cf0:	6a21      	ldr	r1, [r4, #32]
 8006cf2:	6aa6      	ldr	r6, [r4, #40]	@ 0x28
 8006cf4:	4643      	mov	r3, r8
 8006cf6:	463a      	mov	r2, r7
 8006cf8:	4628      	mov	r0, r5
 8006cfa:	47b0      	blx	r6
 8006cfc:	2800      	cmp	r0, #0
 8006cfe:	dc08      	bgt.n	8006d12 <__sflush_r+0xf6>
 8006d00:	f9b4 300c 	ldrsh.w	r3, [r4, #12]
 8006d04:	f043 0340 	orr.w	r3, r3, #64	@ 0x40
 8006d08:	81a3      	strh	r3, [r4, #12]
 8006d0a:	f04f 30ff 	mov.w	r0, #4294967295	@ 0xffffffff
 8006d0e:	e8bd 81f0 	ldmia.w	sp!, {r4, r5, r6, r7, r8, pc}
 8006d12:	4407      	add	r7, r0
 8006d14:	eba8 0800 	sub.w	r8, r8, r0
 8006d18:	e7e7      	b.n	8006cea <__sflush_r+0xce>
 8006d1a:	bf00      	nop
 8006d1c:	20400001 	.word	0x20400001

08006d20 <_fflush_r>:
 8006d20:	b538      	push	{r3, r4, r5, lr}
 8006d22:	690b      	ldr	r3, [r1, #16]
 8006d24:	4605      	mov	r5, r0
 8006d26:	460c      	mov	r4, r1
 8006d28:	b913      	cbnz	r3, 8006d30 <_fflush_r+0x10>
 8006d2a:	2500      	movs	r5, #0
 8006d2c:	4628      	mov	r0, r5
 8006d2e:	bd38      	pop	{r3, r4, r5, pc}
 8006d30:	b118      	cbz	r0, 8006d3a <_fflush_r+0x1a>
 8006d32:	6a03      	ldr	r3, [r0, #32]
 8006d34:	b90b      	cbnz	r3, 8006d3a <_fflush_r+0x1a>
 8006d36:	f7ff fa17 	bl	8006168 <__sinit>
 8006d3a:	f9b4 300c 	ldrsh.w	r3, [r4, #12]
 8006d3e:	2b00      	cmp	r3, #0
 8006d40:	d0f3      	beq.n	8006d2a <_fflush_r+0xa>
 8006d42:	6e62      	ldr	r2, [r4, #100]	@ 0x64
 8006d44:	07d0      	lsls	r0, r2, #31
 8006d46:	d404      	bmi.n	8006d52 <_fflush_r+0x32>
 8006d48:	0599      	lsls	r1, r3, #22
 8006d4a:	d402      	bmi.n	8006d52 <_fflush_r+0x32>
 8006d4c:	6da0      	ldr	r0, [r4, #88]	@ 0x58
 8006d4e:	f7ff fc32 	bl	80065b6 <__retarget_lock_acquire_recursive>
 8006d52:	4628      	mov	r0, r5
 8006d54:	4621      	mov	r1, r4
 8006d56:	f7ff ff61 	bl	8006c1c <__sflush_r>
 8006d5a:	6e63      	ldr	r3, [r4, #100]	@ 0x64
 8006d5c:	07da      	lsls	r2, r3, #31
 8006d5e:	4605      	mov	r5, r0
 8006d60:	d4e4      	bmi.n	8006d2c <_fflush_r+0xc>
 8006d62:	89a3      	ldrh	r3, [r4, #12]
 8006d64:	059b      	lsls	r3, r3, #22
 8006d66:	d4e1      	bmi.n	8006d2c <_fflush_r+0xc>
 8006d68:	6da0      	ldr	r0, [r4, #88]	@ 0x58
 8006d6a:	f7ff fc25 	bl	80065b8 <__retarget_lock_release_recursive>
 8006d6e:	e7dd      	b.n	8006d2c <_fflush_r+0xc>

08006d70 <__swhatbuf_r>:
 8006d70:	b570      	push	{r4, r5, r6, lr}
 8006d72:	460c      	mov	r4, r1
 8006d74:	f9b1 100e 	ldrsh.w	r1, [r1, #14]
 8006d78:	2900      	cmp	r1, #0
 8006d7a:	b096      	sub	sp, #88	@ 0x58
 8006d7c:	4615      	mov	r5, r2
 8006d7e:	461e      	mov	r6, r3
 8006d80:	da0a      	bge.n	8006d98 <__swhatbuf_r+0x28>
 8006d82:	89a1      	ldrh	r1, [r4, #12]
 8006d84:	f011 0180 	ands.w	r1, r1, #128	@ 0x80
 8006d88:	d113      	bne.n	8006db2 <__swhatbuf_r+0x42>
 8006d8a:	f44f 6280 	mov.w	r2, #1024	@ 0x400
 8006d8e:	2000      	movs	r0, #0
 8006d90:	6031      	str	r1, [r6, #0]
 8006d92:	602a      	str	r2, [r5, #0]
 8006d94:	b016      	add	sp, #88	@ 0x58
 8006d96:	bd70      	pop	{r4, r5, r6, pc}
 8006d98:	466a      	mov	r2, sp
 8006d9a:	f000 f877 	bl	8006e8c <_fstat_r>
 8006d9e:	2800      	cmp	r0, #0
 8006da0:	dbef      	blt.n	8006d82 <__swhatbuf_r+0x12>
 8006da2:	9901      	ldr	r1, [sp, #4]
 8006da4:	f401 4170 	and.w	r1, r1, #61440	@ 0xf000
 8006da8:	f5a1 5300 	sub.w	r3, r1, #8192	@ 0x2000
 8006dac:	4259      	negs	r1, r3
 8006dae:	4159      	adcs	r1, r3
 8006db0:	e7eb      	b.n	8006d8a <__swhatbuf_r+0x1a>
 8006db2:	2100      	movs	r1, #0
 8006db4:	2240      	movs	r2, #64	@ 0x40
 8006db6:	e7ea      	b.n	8006d8e <__swhatbuf_r+0x1e>

08006db8 <__smakebuf_r>:
 8006db8:	898b      	ldrh	r3, [r1, #12]
 8006dba:	b573      	push	{r0, r1, r4, r5, r6, lr}
 8006dbc:	079e      	lsls	r6, r3, #30
 8006dbe:	4605      	mov	r5, r0
 8006dc0:	460c      	mov	r4, r1
 8006dc2:	d507      	bpl.n	8006dd4 <__smakebuf_r+0x1c>
 8006dc4:	f104 0347 	add.w	r3, r4, #71	@ 0x47
 8006dc8:	6023      	str	r3, [r4, #0]
 8006dca:	6123      	str	r3, [r4, #16]
 8006dcc:	2301      	movs	r3, #1
 8006dce:	6163      	str	r3, [r4, #20]
 8006dd0:	b002      	add	sp, #8
 8006dd2:	bd70      	pop	{r4, r5, r6, pc}
 8006dd4:	ab01      	add	r3, sp, #4
 8006dd6:	466a      	mov	r2, sp
 8006dd8:	f7ff ffca 	bl	8006d70 <__swhatbuf_r>
 8006ddc:	9e00      	ldr	r6, [sp, #0]
 8006dde:	4628      	mov	r0, r5
 8006de0:	4631      	mov	r1, r6
 8006de2:	f7ff f8a7 	bl	8005f34 <_malloc_r>
 8006de6:	f9b4 300c 	ldrsh.w	r3, [r4, #12]
 8006dea:	b938      	cbnz	r0, 8006dfc <__smakebuf_r+0x44>
 8006dec:	059a      	lsls	r2, r3, #22
 8006dee:	d4ef      	bmi.n	8006dd0 <__smakebuf_r+0x18>
 8006df0:	f023 0303 	bic.w	r3, r3, #3
 8006df4:	f043 0302 	orr.w	r3, r3, #2
 8006df8:	81a3      	strh	r3, [r4, #12]
 8006dfa:	e7e3      	b.n	8006dc4 <__smakebuf_r+0xc>
 8006dfc:	f043 0380 	orr.w	r3, r3, #128	@ 0x80
 8006e00:	81a3      	strh	r3, [r4, #12]
 8006e02:	9b01      	ldr	r3, [sp, #4]
 8006e04:	6020      	str	r0, [r4, #0]
 8006e06:	e9c4 0604 	strd	r0, r6, [r4, #16]
 8006e0a:	2b00      	cmp	r3, #0
 8006e0c:	d0e0      	beq.n	8006dd0 <__smakebuf_r+0x18>
 8006e0e:	f9b4 100e 	ldrsh.w	r1, [r4, #14]
 8006e12:	4628      	mov	r0, r5
 8006e14:	f000 f84c 	bl	8006eb0 <_isatty_r>
 8006e18:	2800      	cmp	r0, #0
 8006e1a:	d0d9      	beq.n	8006dd0 <__smakebuf_r+0x18>
 8006e1c:	89a3      	ldrh	r3, [r4, #12]
 8006e1e:	f023 0303 	bic.w	r3, r3, #3
 8006e22:	f043 0301 	orr.w	r3, r3, #1
 8006e26:	81a3      	strh	r3, [r4, #12]
 8006e28:	e7d2      	b.n	8006dd0 <__smakebuf_r+0x18>

08006e2a <_raise_r>:
 8006e2a:	291f      	cmp	r1, #31
 8006e2c:	b538      	push	{r3, r4, r5, lr}
 8006e2e:	4605      	mov	r5, r0
 8006e30:	460c      	mov	r4, r1
 8006e32:	d904      	bls.n	8006e3e <_raise_r+0x14>
 8006e34:	2316      	movs	r3, #22
 8006e36:	6003      	str	r3, [r0, #0]
 8006e38:	f04f 30ff 	mov.w	r0, #4294967295	@ 0xffffffff
 8006e3c:	bd38      	pop	{r3, r4, r5, pc}
 8006e3e:	6bc2      	ldr	r2, [r0, #60]	@ 0x3c
 8006e40:	b112      	cbz	r2, 8006e48 <_raise_r+0x1e>
 8006e42:	f852 3021 	ldr.w	r3, [r2, r1, lsl #2]
 8006e46:	b94b      	cbnz	r3, 8006e5c <_raise_r+0x32>
 8006e48:	4628      	mov	r0, r5
 8006e4a:	f000 f853 	bl	8006ef4 <_getpid_r>
 8006e4e:	4622      	mov	r2, r4
 8006e50:	4601      	mov	r1, r0
 8006e52:	4628      	mov	r0, r5
 8006e54:	e8bd 4038 	ldmia.w	sp!, {r3, r4, r5, lr}
 8006e58:	f000 b83a 	b.w	8006ed0 <_kill_r>
 8006e5c:	2b01      	cmp	r3, #1
 8006e5e:	d00a      	beq.n	8006e76 <_raise_r+0x4c>
 8006e60:	1c59      	adds	r1, r3, #1
 8006e62:	d103      	bne.n	8006e6c <_raise_r+0x42>
 8006e64:	2316      	movs	r3, #22
 8006e66:	6003      	str	r3, [r0, #0]
 8006e68:	2001      	movs	r0, #1
 8006e6a:	e7e7      	b.n	8006e3c <_raise_r+0x12>
 8006e6c:	2100      	movs	r1, #0
 8006e6e:	f842 1024 	str.w	r1, [r2, r4, lsl #2]
 8006e72:	4620      	mov	r0, r4
 8006e74:	4798      	blx	r3
 8006e76:	2000      	movs	r0, #0
 8006e78:	e7e0      	b.n	8006e3c <_raise_r+0x12>
	...

08006e7c <raise>:
 8006e7c:	4b02      	ldr	r3, [pc, #8]	@ (8006e88 <raise+0xc>)
 8006e7e:	4601      	mov	r1, r0
 8006e80:	6818      	ldr	r0, [r3, #0]
 8006e82:	f7ff bfd2 	b.w	8006e2a <_raise_r>
 8006e86:	bf00      	nop
 8006e88:	2000006c 	.word	0x2000006c

08006e8c <_fstat_r>:
 8006e8c:	b538      	push	{r3, r4, r5, lr}
 8006e8e:	4d07      	ldr	r5, [pc, #28]	@ (8006eac <_fstat_r+0x20>)
 8006e90:	2300      	movs	r3, #0
 8006e92:	4604      	mov	r4, r0
 8006e94:	4608      	mov	r0, r1
 8006e96:	4611      	mov	r1, r2
 8006e98:	602b      	str	r3, [r5, #0]
 8006e9a:	f7f9 fdf8 	bl	8000a8e <_fstat>
 8006e9e:	1c43      	adds	r3, r0, #1
 8006ea0:	d102      	bne.n	8006ea8 <_fstat_r+0x1c>
 8006ea2:	682b      	ldr	r3, [r5, #0]
 8006ea4:	b103      	cbz	r3, 8006ea8 <_fstat_r+0x1c>
 8006ea6:	6023      	str	r3, [r4, #0]
 8006ea8:	bd38      	pop	{r3, r4, r5, pc}
 8006eaa:	bf00      	nop
 8006eac:	20000378 	.word	0x20000378

08006eb0 <_isatty_r>:
 8006eb0:	b538      	push	{r3, r4, r5, lr}
 8006eb2:	4d06      	ldr	r5, [pc, #24]	@ (8006ecc <_isatty_r+0x1c>)
 8006eb4:	2300      	movs	r3, #0
 8006eb6:	4604      	mov	r4, r0
 8006eb8:	4608      	mov	r0, r1
 8006eba:	602b      	str	r3, [r5, #0]
 8006ebc:	f7f9 fdec 	bl	8000a98 <_isatty>
 8006ec0:	1c43      	adds	r3, r0, #1
 8006ec2:	d102      	bne.n	8006eca <_isatty_r+0x1a>
 8006ec4:	682b      	ldr	r3, [r5, #0]
 8006ec6:	b103      	cbz	r3, 8006eca <_isatty_r+0x1a>
 8006ec8:	6023      	str	r3, [r4, #0]
 8006eca:	bd38      	pop	{r3, r4, r5, pc}
 8006ecc:	20000378 	.word	0x20000378

08006ed0 <_kill_r>:
 8006ed0:	b538      	push	{r3, r4, r5, lr}
 8006ed2:	4d07      	ldr	r5, [pc, #28]	@ (8006ef0 <_kill_r+0x20>)
 8006ed4:	2300      	movs	r3, #0
 8006ed6:	4604      	mov	r4, r0
 8006ed8:	4608      	mov	r0, r1
 8006eda:	4611      	mov	r1, r2
 8006edc:	602b      	str	r3, [r5, #0]
 8006ede:	f7f9 fdb5 	bl	8000a4c <_kill>
 8006ee2:	1c43      	adds	r3, r0, #1
 8006ee4:	d102      	bne.n	8006eec <_kill_r+0x1c>
 8006ee6:	682b      	ldr	r3, [r5, #0]
 8006ee8:	b103      	cbz	r3, 8006eec <_kill_r+0x1c>
 8006eea:	6023      	str	r3, [r4, #0]
 8006eec:	bd38      	pop	{r3, r4, r5, pc}
 8006eee:	bf00      	nop
 8006ef0:	20000378 	.word	0x20000378

08006ef4 <_getpid_r>:
 8006ef4:	f7f9 bda8 	b.w	8000a48 <_getpid>

08006ef8 <_init>:
 8006ef8:	b5f8      	push	{r3, r4, r5, r6, r7, lr}
 8006efa:	bf00      	nop
 8006efc:	bcf8      	pop	{r3, r4, r5, r6, r7}
 8006efe:	bc08      	pop	{r3}
 8006f00:	469e      	mov	lr, r3
 8006f02:	4770      	bx	lr

08006f04 <_fini>:
 8006f04:	b5f8      	push	{r3, r4, r5, r6, r7, lr}
 8006f06:	bf00      	nop
 8006f08:	bcf8      	pop	{r3, r4, r5, r6, r7}
 8006f0a:	bc08      	pop	{r3}
 8006f0c:	469e      	mov	lr, r3
 8006f0e:	4770      	bx	lr
